LIBRARY OgreMain_x64 
EXPORTS 
??0?$AllocatedObject@V?$CategorisedAlignAllocPolicy@$02$0A@@Ogre@@@Ogre@@QEAA@XZ 
??0?$AllocatedObject@V?$CategorisedAllocPolicy@$00@Ogre@@@Ogre@@QEAA@XZ 
??0?$AllocatedObject@V?$CategorisedAllocPolicy@$01@Ogre@@@Ogre@@QEAA@XZ 
??0?$AllocatedObject@V?$CategorisedAllocPolicy@$02@Ogre@@@Ogre@@QEAA@XZ 
??0?$AllocatedObject@V?$CategorisedAllocPolicy@$03@Ogre@@@Ogre@@QEAA@XZ 
??0?$AllocatedObject@V?$CategorisedAllocPolicy@$04@Ogre@@@Ogre@@QEAA@XZ 
??0?$AllocatedObject@V?$CategorisedAllocPolicy@$05@Ogre@@@Ogre@@QEAA@XZ 
??0?$AllocatedObject@V?$CategorisedAllocPolicy@$06@Ogre@@@Ogre@@QEAA@XZ 
??0?$AllocatedObject@V?$CategorisedAllocPolicy@$0A@@Ogre@@@Ogre@@QEAA@XZ 
??0?$ControllerFunction@M@Ogre@@QEAA@AEBV01@@Z 
??0?$ControllerFunction@M@Ogre@@QEAA@_N@Z 
??0?$ControllerValue@M@Ogre@@QEAA@AEBV01@@Z 
??0?$ControllerValue@M@Ogre@@QEAA@XZ 
??0?$FactoryObj@VArchive@Ogre@@@Ogre@@QEAA@AEBV01@@Z 
??0?$FactoryObj@VArchive@Ogre@@@Ogre@@QEAA@XZ 
??0?$FactoryObj@VParticleSystemRenderer@Ogre@@@Ogre@@QEAA@AEBV01@@Z 
??0?$FactoryObj@VParticleSystemRenderer@Ogre@@@Ogre@@QEAA@XZ 
??0?$Pool@V?$SharedPtr@VResource@Ogre@@@Ogre@@@Ogre@@QEAA@XZ 
??0?$SharedPtr@VHardwareCounterBuffer@Ogre@@@Ogre@@IEAA@PEAVHardwareCounterBuffer@1@PEAUSharedPtrInfo@1@@Z 
??0?$SharedPtr@VHardwareCounterBuffer@Ogre@@@Ogre@@QEAA@AEBV01@@Z 
??0?$SharedPtr@VHardwareCounterBuffer@Ogre@@@Ogre@@QEAA@XZ 
??0?$SharedPtr@VHardwareIndexBuffer@Ogre@@@Ogre@@IEAA@PEAVHardwareIndexBuffer@1@PEAUSharedPtrInfo@1@@Z 
??0?$SharedPtr@VHardwareIndexBuffer@Ogre@@@Ogre@@QEAA@AEBV01@@Z 
??0?$SharedPtr@VHardwareIndexBuffer@Ogre@@@Ogre@@QEAA@XZ 
??0?$SharedPtr@VHardwarePixelBuffer@Ogre@@@Ogre@@IEAA@PEAVHardwarePixelBuffer@1@PEAUSharedPtrInfo@1@@Z 
??0?$SharedPtr@VHardwarePixelBuffer@Ogre@@@Ogre@@QEAA@AEBV01@@Z 
??0?$SharedPtr@VHardwarePixelBuffer@Ogre@@@Ogre@@QEAA@XZ 
??0?$SharedPtr@VHardwareUniformBuffer@Ogre@@@Ogre@@IEAA@PEAVHardwareUniformBuffer@1@PEAUSharedPtrInfo@1@@Z 
??0?$SharedPtr@VHardwareUniformBuffer@Ogre@@@Ogre@@QEAA@AEBV01@@Z 
??0?$SharedPtr@VHardwareUniformBuffer@Ogre@@@Ogre@@QEAA@XZ 
??0?$SharedPtr@VHardwareVertexBuffer@Ogre@@@Ogre@@IEAA@PEAVHardwareVertexBuffer@1@PEAUSharedPtrInfo@1@@Z 
??0?$SharedPtr@VHardwareVertexBuffer@Ogre@@@Ogre@@QEAA@AEBV01@@Z 
??0?$SharedPtr@VHardwareVertexBuffer@Ogre@@@Ogre@@QEAA@XZ 
??0?$Singleton@VAbsolutePixelCountLodStrategy@Ogre@@@Ogre@@QEAA@XZ 
??0?$Singleton@VArchiveManager@Ogre@@@Ogre@@QEAA@XZ 
??0?$Singleton@VControllerManager@Ogre@@@Ogre@@QEAA@XZ 
??0?$Singleton@VDistanceLodBoxStrategy@Ogre@@@Ogre@@QEAA@XZ 
??0?$Singleton@VDistanceLodSphereStrategy@Ogre@@@Ogre@@QEAA@XZ 
??0?$Singleton@VDynLibManager@Ogre@@@Ogre@@QEAA@XZ 
??0?$Singleton@VExternalTextureSourceManager@Ogre@@@Ogre@@QEAA@XZ 
??0?$Singleton@VGpuProgramManager@Ogre@@@Ogre@@QEAA@XZ 
??0?$Singleton@VHardwareBufferManager@Ogre@@@Ogre@@QEAA@XZ 
??0?$Singleton@VHighLevelGpuProgramManager@Ogre@@@Ogre@@QEAA@XZ 
??0?$Singleton@VLodStrategyManager@Ogre@@@Ogre@@QEAA@XZ 
??0?$Singleton@VLogManager@Ogre@@@Ogre@@QEAA@XZ 
??0?$Singleton@VMaterialManager@Ogre@@@Ogre@@QEAA@XZ 
??0?$Singleton@VMeshManager@Ogre@@@Ogre@@QEAA@XZ 
??0?$Singleton@VOldSkeletonManager@Ogre@@@Ogre@@QEAA@XZ 
??0?$Singleton@VParticleSystemManager@Ogre@@@Ogre@@QEAA@XZ 
??0?$Singleton@VProfiler@Ogre@@@Ogre@@QEAA@XZ 
??0?$Singleton@VRenderSystemCapabilitiesManager@Ogre@@@Ogre@@QEAA@XZ 
??0?$Singleton@VResourceBackgroundQueue@Ogre@@@Ogre@@QEAA@XZ 
??0?$Singleton@VResourceGroupManager@Ogre@@@Ogre@@QEAA@XZ 
??0?$Singleton@VRoot@Ogre@@@Ogre@@QEAA@XZ 
??0?$Singleton@VSceneManagerEnumerator@Ogre@@@Ogre@@QEAA@XZ 
??0?$Singleton@VScreenRatioPixelCountLodStrategy@Ogre@@@Ogre@@QEAA@XZ 
??0?$Singleton@VScriptCompilerManager@Ogre@@@Ogre@@QEAA@XZ 
??0?$Singleton@VShadowTextureManager@Ogre@@@Ogre@@QEAA@XZ 
??0?$Singleton@VSkeletonManager@Ogre@@@Ogre@@QEAA@XZ 
??0?$Singleton@VTextureManager@Ogre@@@Ogre@@QEAA@XZ 
??0Aabb@Ogre@@QEAA@AEBVVector3@1@0@Z 
??0Aabb@Ogre@@QEAA@XZ 
??0AbsolutePixelCountLodStrategy@Ogre@@QEAA@XZ 
??0AbstractNode@Ogre@@QEAA@AEBV01@@Z 
??0AbstractNode@Ogre@@QEAA@PEAV01@@Z 
??0AnimableObject@Ogre@@QEAA@AEBV01@@Z 
??0AnimableObject@Ogre@@QEAA@XZ 
??0AnimableValue@Ogre@@QEAA@AEBV01@@Z 
??0AnimableValue@Ogre@@QEAA@W4ValueType@01@@Z 
??0Animation@Ogre@@QEAA@AEBV01@@Z 
??0Animation@Ogre@@QEAA@AEBV?$basic_string@DU?$char_traits@D@std@@V?$allocator@D@2@@std@@IM@Z 
??0AnimationContainer@Ogre@@QEAA@AEBV01@@Z 
??0AnimationContainer@Ogre@@QEAA@XZ 
??0AnimationControllerFunction@Ogre@@QEAA@AEBV01@@Z 
??0AnimationControllerFunction@Ogre@@QEAA@MM@Z 
??0AnimationNameIDMapper@Ogre@@IEAA@XZ 
??0AnimationNameIDMapper@Ogre@@QEAA@AEBV01@@Z 
??0AnimationState@Ogre@@QEAA@AEBV01@@Z 
??0AnimationState@Ogre@@QEAA@AEBV?$basic_string@DU?$char_traits@D@std@@V?$allocator@D@2@@std@@IPEAVAnimationStateSet@1@MMM_N@Z 
??0AnimationState@Ogre@@QEAA@PEAVAnimationStateSet@1@AEBV01@@Z 
??0AnimationStateControllerValue@Ogre@@QEAA@AEBV01@@Z 
??0AnimationStateControllerValue@Ogre@@QEAA@PEAVAnimationState@1@@Z 
??0AnimationStateSet@Ogre@@QEAA@AEBV01@@Z 
??0AnimationStateSet@Ogre@@QEAA@XZ 
??0AnimationTrack@Ogre@@QEAA@AEBV01@@Z 
??0AnimationTrack@Ogre@@QEAA@PEAVAnimation@1@G@Z 
??0Archive@Ogre@@QEAA@AEBV01@@Z 
??0Archive@Ogre@@QEAA@AEBV?$basic_string@DU?$char_traits@D@std@@V?$allocator@D@2@@std@@0@Z 
??0ArchiveFactory@Ogre@@QEAA@AEBV01@@Z 
??0ArchiveFactory@Ogre@@QEAA@XZ 
??0ArchiveManager@Ogre@@QEAA@XZ 
??0ArrayAabb@Ogre@@QEAA@AEBVArrayVector3@1@0@Z 
??0ArrayMatrix4@Ogre@@QEAA@AEBV01@@Z 
??0ArrayMatrix4@Ogre@@QEAA@XZ 
??0ArrayMatrixAf4x3@Ogre@@QEAA@AEBV01@@Z 
??0ArrayMatrixAf4x3@Ogre@@QEAA@XZ 
??0ArrayMemoryManager@Ogre@@QEAA@AEBV01@@Z 
??0ArrayMemoryManager@Ogre@@QEAA@W4ManagerType@01@PEB_KPEBQ6AXPEAD_K23333@Z3G333PEAVRebaseListener@01@@Z 
??0ArrayQuaternion@Ogre@@QEAA@AEBT__m128@@000@Z 
??0ArrayQuaternion@Ogre@@QEAA@XZ 
??0ArraySphere@Ogre@@QEAA@AEBT__m128@@AEBVArrayVector3@1@@Z 
??0ArraySphere@Ogre@@QEAA@XZ 
??0ArrayVector3@Ogre@@QEAA@T__m128@@00@Z 
??0ArrayVector3@Ogre@@QEAA@XZ 
??0AtomAbstractNode@Ogre@@QEAA@AEBV01@@Z 
??0AtomAbstractNode@Ogre@@QEAA@PEAVAbstractNode@1@@Z 
??0AutoParamDataSource@Ogre@@QEAA@AEBV01@@Z 
??0AutoParamDataSource@Ogre@@QEAA@XZ 
??0AxisAlignedBox@Ogre@@QEAA@AEBV01@@Z 
??0AxisAlignedBox@Ogre@@QEAA@AEBVVector3@1@0@Z 
??0AxisAlignedBox@Ogre@@QEAA@MMMMMM@Z 
??0AxisAlignedBox@Ogre@@QEAA@W4Extent@01@@Z 
??0AxisAlignedBox@Ogre@@QEAA@XZ 
??0AxisAlignedBoxSceneQuery@Ogre@@QEAA@AEBV01@@Z 
??0AxisAlignedBoxSceneQuery@Ogre@@QEAA@PEAVSceneManager@1@@Z 
??0Barrier@Ogre@@QEAA@_K@Z 
??0BaseInstanceBatchVTF@Ogre@@QEAA@AEBV01@@Z 
??0BaseInstanceBatchVTF@Ogre@@QEAA@IPEAVObjectMemoryManager@1@PEAVInstanceManager@1@AEAV?$SharedPtr@VMesh@Ogre@@@1@AEBV?$SharedPtr@VMaterial@Ogre@@@1@_KPEBV?$FastArray@G@1@@Z 
??0Billboard@Ogre@@QEAA@AEBV01@@Z 
??0Billboard@Ogre@@QEAA@AEBVVector3@1@PEAVBillboardSet@1@AEBVColourValue@1@@Z 
??0Billboard@Ogre@@QEAA@XZ 
??0BillboardChain@Ogre@@QEAA@AEBV01@@Z 
??0BillboardChain@Ogre@@QEAA@IPEAVObjectMemoryManager@1@_K1_N22@Z 
??0BillboardChainFactory@Ogre@@QEAA@AEBV01@@Z 
??0BillboardChainFactory@Ogre@@QEAA@XZ 
??0BillboardParticleRenderer@Ogre@@QEAA@AEBV01@@Z 
??0BillboardParticleRenderer@Ogre@@QEAA@IPEAVObjectMemoryManager@1@@Z 
??0BillboardParticleRendererFactory@Ogre@@QEAA@AEBV01@@Z 
??0BillboardParticleRendererFactory@Ogre@@QEAA@XZ 
??0BillboardSet@Ogre@@QEAA@AEBV01@@Z 
??0BillboardSet@Ogre@@QEAA@IPEAVObjectMemoryManager@1@I_NE@Z 
??0BillboardSetFactory@Ogre@@QEAA@AEBV01@@Z 
??0BillboardSetFactory@Ogre@@QEAA@XZ 
??0Bone@Ogre@@QEAA@AEBV01@@Z 
??0Bone@Ogre@@QEAA@XZ 
??0BoneArrayMemoryManager@Ogre@@QEAA@AEBV01@@Z 
??0BoneArrayMemoryManager@Ogre@@QEAA@G_K00PEAVRebaseListener@ArrayMemoryManager@1@@Z 
??0BoneMemoryManager@Ogre@@QEAA@AEBV01@@Z 
??0BoneMemoryManager@Ogre@@QEAA@XZ 
??0BuiltinScriptTranslatorManager@Ogre@@QEAA@AEBV01@@Z 
??0BuiltinScriptTranslatorManager@Ogre@@QEAA@XZ 
??0Camera@Ogre@@QEAA@IPEAVObjectMemoryManager@1@PEAVSceneManager@1@@Z 
??0CmdAdjacency@GpuProgram@Ogre@@QEAA@AEBV012@@Z 
??0CmdAdjacency@GpuProgram@Ogre@@QEAA@XZ 
??0CmdAngle@EmitterCommands@Ogre@@QEAA@AEBV012@@Z 
??0CmdAngle@EmitterCommands@Ogre@@QEAA@XZ 
??0CmdColour@EmitterCommands@Ogre@@QEAA@AEBV012@@Z 
??0CmdColour@EmitterCommands@Ogre@@QEAA@XZ 
??0CmdColourRangeEnd@EmitterCommands@Ogre@@QEAA@AEBV012@@Z 
??0CmdColourRangeEnd@EmitterCommands@Ogre@@QEAA@XZ 
??0CmdColourRangeStart@EmitterCommands@Ogre@@QEAA@AEBV012@@Z 
??0CmdColourRangeStart@EmitterCommands@Ogre@@QEAA@XZ 
??0CmdComputeGroupDims@GpuProgram@Ogre@@QEAA@AEBV012@@Z 
??0CmdComputeGroupDims@GpuProgram@Ogre@@QEAA@XZ 
??0CmdDirPositionRef@EmitterCommands@Ogre@@QEAA@AEBV012@@Z 
??0CmdDirPositionRef@EmitterCommands@Ogre@@QEAA@XZ 
??0CmdDirection@EmitterCommands@Ogre@@QEAA@AEBV012@@Z 
??0CmdDirection@EmitterCommands@Ogre@@QEAA@XZ 
??0CmdDuration@EmitterCommands@Ogre@@QEAA@AEBV012@@Z 
??0CmdDuration@EmitterCommands@Ogre@@QEAA@XZ 
??0CmdEmissionRate@EmitterCommands@Ogre@@QEAA@AEBV012@@Z 
??0CmdEmissionRate@EmitterCommands@Ogre@@QEAA@XZ 
??0CmdEmittedEmitter@EmitterCommands@Ogre@@QEAA@AEBV012@@Z 
??0CmdEmittedEmitter@EmitterCommands@Ogre@@QEAA@XZ 
??0CmdManualNamedConstsFile@GpuProgram@Ogre@@QEAA@AEBV012@@Z 
??0CmdManualNamedConstsFile@GpuProgram@Ogre@@QEAA@XZ 
??0CmdMaxDuration@EmitterCommands@Ogre@@QEAA@AEBV012@@Z 
??0CmdMaxDuration@EmitterCommands@Ogre@@QEAA@XZ 
??0CmdMaxRepeatDelay@EmitterCommands@Ogre@@QEAA@AEBV012@@Z 
??0CmdMaxRepeatDelay@EmitterCommands@Ogre@@QEAA@XZ 
??0CmdMaxTTL@EmitterCommands@Ogre@@QEAA@AEBV012@@Z 
??0CmdMaxTTL@EmitterCommands@Ogre@@QEAA@XZ 
??0CmdMaxVelocity@EmitterCommands@Ogre@@QEAA@AEBV012@@Z 
??0CmdMaxVelocity@EmitterCommands@Ogre@@QEAA@XZ 
??0CmdMinDuration@EmitterCommands@Ogre@@QEAA@AEBV012@@Z 
??0CmdMinDuration@EmitterCommands@Ogre@@QEAA@XZ 
??0CmdMinRepeatDelay@EmitterCommands@Ogre@@QEAA@AEBV012@@Z 
??0CmdMinRepeatDelay@EmitterCommands@Ogre@@QEAA@XZ 
??0CmdMinTTL@EmitterCommands@Ogre@@QEAA@AEBV012@@Z 
??0CmdMinTTL@EmitterCommands@Ogre@@QEAA@XZ 
??0CmdMinVelocity@EmitterCommands@Ogre@@QEAA@AEBV012@@Z 
??0CmdMinVelocity@EmitterCommands@Ogre@@QEAA@XZ 
??0CmdMorph@GpuProgram@Ogre@@QEAA@AEBV012@@Z 
??0CmdMorph@GpuProgram@Ogre@@QEAA@XZ 
??0CmdName@EmitterCommands@Ogre@@QEAA@AEBV012@@Z 
??0CmdName@EmitterCommands@Ogre@@QEAA@XZ 
??0CmdPose@GpuProgram@Ogre@@QEAA@AEBV012@@Z 
??0CmdPose@GpuProgram@Ogre@@QEAA@XZ 
??0CmdPosition@EmitterCommands@Ogre@@QEAA@AEBV012@@Z 
??0CmdPosition@EmitterCommands@Ogre@@QEAA@XZ 
??0CmdRepeatDelay@EmitterCommands@Ogre@@QEAA@AEBV012@@Z 
??0CmdRepeatDelay@EmitterCommands@Ogre@@QEAA@XZ 
??0CmdSkeletal@GpuProgram@Ogre@@QEAA@AEBV012@@Z 
??0CmdSkeletal@GpuProgram@Ogre@@QEAA@XZ 
??0CmdSyntax@GpuProgram@Ogre@@QEAA@AEBV012@@Z 
??0CmdSyntax@GpuProgram@Ogre@@QEAA@XZ 
??0CmdTTL@EmitterCommands@Ogre@@QEAA@AEBV012@@Z 
??0CmdTTL@EmitterCommands@Ogre@@QEAA@XZ 
??0CmdType@GpuProgram@Ogre@@QEAA@AEBV012@@Z 
??0CmdType@GpuProgram@Ogre@@QEAA@XZ 
??0CmdUp@EmitterCommands@Ogre@@QEAA@AEBV012@@Z 
??0CmdUp@EmitterCommands@Ogre@@QEAA@XZ 
??0CmdVTF@GpuProgram@Ogre@@QEAA@AEBV012@@Z 
??0CmdVTF@GpuProgram@Ogre@@QEAA@XZ 
??0CmdVelocity@EmitterCommands@Ogre@@QEAA@AEBV012@@Z 
??0CmdVelocity@EmitterCommands@Ogre@@QEAA@XZ 
??0Codec@Ogre@@QEAA@AEBV01@@Z 
??0Codec@Ogre@@QEAA@XZ 
??0ColourValue@Ogre@@QEAA@MMMM@Z 
??0CompositorManager2@Ogre@@QEAA@AEBV01@@Z 
??0CompositorManager2@Ogre@@QEAA@PEAVRenderSystem@1@@Z 
??0CompositorNode@Ogre@@QEAA@AEBV01@@Z 
??0CompositorNode@Ogre@@QEAA@IUIdString@1@PEBVCompositorNodeDef@1@PEAVCompositorWorkspace@1@PEAVRenderSystem@1@PEBVRenderTarget@1@@Z 
??0CompositorNodeDef@Ogre@@QEAA@AEBV01@@Z 
??0CompositorNodeDef@Ogre@@QEAA@AEBV?$basic_string@DU?$char_traits@D@std@@V?$allocator@D@2@@std@@PEAVCompositorManager2@1@@Z 
??0CompositorNodeTranslator@Ogre@@QEAA@AEBV01@@Z 
??0CompositorNodeTranslator@Ogre@@QEAA@XZ 
??0CompositorPass@Ogre@@QEAA@AEBV01@@Z 
??0CompositorPass@Ogre@@QEAA@PEBVCompositorPassDef@1@AEBUCompositorChannel@1@PEAVCompositorNode@1@@Z 
??0CompositorPassClear@Ogre@@QEAA@AEBV01@@Z 
??0CompositorPassClear@Ogre@@QEAA@PEBVCompositorPassClearDef@1@PEAVSceneManager@1@AEBUCompositorChannel@1@PEAVCompositorNode@1@@Z 
??0CompositorPassClearDef@Ogre@@QEAA@AEBV01@@Z 
??0CompositorPassClearDef@Ogre@@QEAA@I@Z 
??0CompositorPassDef@Ogre@@QEAA@AEBV01@@Z 
??0CompositorPassDef@Ogre@@QEAA@W4CompositorPassType@1@I@Z 
??0CompositorPassProvider@Ogre@@QEAA@AEBV01@@Z 
??0CompositorPassProvider@Ogre@@QEAA@XZ 
??0CompositorPassQuad@Ogre@@QEAA@AEBV01@@Z 
??0CompositorPassQuad@Ogre@@QEAA@PEBVCompositorPassQuadDef@1@PEAVCamera@1@PEAVCompositorNode@1@AEBUCompositorChannel@1@MM@Z 
??0CompositorPassQuadDef@Ogre@@QEAA@AEBV01@@Z 
??0CompositorPassQuadDef@Ogre@@QEAA@PEAVCompositorNodeDef@1@I@Z 
??0CompositorPassScene@Ogre@@QEAA@AEBV01@@Z 
??0CompositorPassScene@Ogre@@QEAA@PEBVCompositorPassSceneDef@1@PEAVCamera@1@AEBUCompositorChannel@1@PEAVCompositorNode@1@@Z 
??0CompositorPassSceneDef@Ogre@@QEAA@AEBV01@@Z 
??0CompositorPassSceneDef@Ogre@@QEAA@I@Z 
??0CompositorPassStencil@Ogre@@QEAA@AEBV01@@Z 
??0CompositorPassStencil@Ogre@@QEAA@PEBVCompositorPassStencilDef@1@AEBUCompositorChannel@1@PEAVCompositorNode@1@PEAVRenderSystem@1@@Z 
??0CompositorPassStencilDef@Ogre@@QEAA@AEBV01@@Z 
??0CompositorPassStencilDef@Ogre@@QEAA@I@Z 
??0CompositorPassTranslator@Ogre@@QEAA@AEBV01@@Z 
??0CompositorPassTranslator@Ogre@@QEAA@XZ 
??0CompositorShadowMapTargetTranslator@Ogre@@QEAA@AEBV01@@Z 
??0CompositorShadowMapTargetTranslator@Ogre@@QEAA@XZ 
??0CompositorShadowNode@Ogre@@QEAA@AEBV01@@Z 
??0CompositorShadowNode@Ogre@@QEAA@IPEBVCompositorShadowNodeDef@1@PEAVCompositorWorkspace@1@PEAVRenderSystem@1@PEBVRenderTarget@1@@Z 
??0CompositorShadowNodeDef@Ogre@@QEAA@AEBV01@@Z 
??0CompositorShadowNodeDef@Ogre@@QEAA@AEBV?$basic_string@DU?$char_traits@D@std@@V?$allocator@D@2@@std@@PEAVCompositorManager2@1@@Z 
??0CompositorShadowNodeTranslator@Ogre@@QEAA@AEBV01@@Z 
??0CompositorShadowNodeTranslator@Ogre@@QEAA@XZ 
??0CompositorTargetDef@Ogre@@QEAA@AEBV01@@Z 
??0CompositorTargetDef@Ogre@@QEAA@UIdString@1@IPEAVCompositorNodeDef@1@@Z 
??0CompositorTargetTranslator@Ogre@@QEAA@AEBV01@@Z 
??0CompositorTargetTranslator@Ogre@@QEAA@XZ 
??0CompositorTextureBaseTranslator@Ogre@@QEAA@AEBV01@@Z 
??0CompositorTextureBaseTranslator@Ogre@@QEAA@XZ 
??0CompositorWorkspace@Ogre@@QEAA@AEBV01@@Z 
??0CompositorWorkspace@Ogre@@QEAA@IPEBVCompositorWorkspaceDef@1@AEBUCompositorChannel@1@PEAVSceneManager@1@PEAVCamera@1@PEAVRenderSystem@1@_N@Z 
??0CompositorWorkspaceDef@Ogre@@QEAA@AEBV01@@Z 
??0CompositorWorkspaceDef@Ogre@@QEAA@UIdString@1@PEAVCompositorManager2@1@@Z 
??0CompositorWorkspaceTranslator@Ogre@@QEAA@AEBV01@@Z 
??0CompositorWorkspaceTranslator@Ogre@@QEAA@XZ 
??0ConfigDialog@Ogre@@QEAA@XZ 
??0ConfigFile@Ogre@@QEAA@AEBV01@@Z 
??0ConfigFile@Ogre@@QEAA@XZ 
??0ControllerManager@Ogre@@QEAA@XZ 
??0ConvexBody@Ogre@@QEAA@AEBV01@@Z 
??0ConvexBody@Ogre@@QEAA@XZ 
??0CreateCompositorScriptCompilerEvent@Ogre@@QEAA@AEBV?$basic_string@DU?$char_traits@D@std@@V?$allocator@D@2@@std@@00@Z 
??0CreateGpuProgramScriptCompilerEvent@Ogre@@QEAA@AEBV?$basic_string@DU?$char_traits@D@std@@V?$allocator@D@2@@std@@0000W4GpuProgramType@1@@Z 
??0CreateGpuSharedParametersScriptCompilerEvent@Ogre@@QEAA@AEBV?$basic_string@DU?$char_traits@D@std@@V?$allocator@D@2@@std@@00@Z 
??0CreateHighLevelGpuProgramScriptCompilerEvent@Ogre@@QEAA@AEBV?$basic_string@DU?$char_traits@D@std@@V?$allocator@D@2@@std@@0000W4GpuProgramType@1@@Z 
??0CreateMaterialScriptCompilerEvent@Ogre@@QEAA@AEBV?$basic_string@DU?$char_traits@D@std@@V?$allocator@D@2@@std@@00@Z 
??0CreateParticleSystemScriptCompilerEvent@Ogre@@QEAA@AEBV?$basic_string@DU?$char_traits@D@std@@V?$allocator@D@2@@std@@00@Z 
??0DDSCodec@Ogre@@QEAA@AEBV01@@Z 
??0DDSCodec@Ogre@@QEAA@XZ 
??0DataStream@Ogre@@QEAA@AEBV01@@Z 
??0DataStream@Ogre@@QEAA@AEBV?$basic_string@DU?$char_traits@D@std@@V?$allocator@D@2@@std@@G@Z 
??0DataStream@Ogre@@QEAA@G@Z 
??0DefaultAxisAlignedBoxSceneQuery@Ogre@@QEAA@AEBV01@@Z 
??0DefaultAxisAlignedBoxSceneQuery@Ogre@@QEAA@PEAVSceneManager@1@@Z 
??0DefaultHardwareBufferManager@Ogre@@QEAA@XZ 
??0DefaultHardwareBufferManagerBase@Ogre@@QEAA@XZ 
??0DefaultHardwareCounterBuffer@Ogre@@QEAA@AEBV01@@Z 
??0DefaultHardwareCounterBuffer@Ogre@@QEAA@PEAVHardwareBufferManagerBase@1@_KW4Usage@HardwareBuffer@1@_NAEBV?$basic_string@DU?$char_traits@D@std@@V?$allocator@D@2@@std@@@Z 
??0DefaultHardwareIndexBuffer@Ogre@@QEAA@AEBV01@@Z 
??0DefaultHardwareIndexBuffer@Ogre@@QEAA@W4IndexType@HardwareIndexBuffer@1@_KW4Usage@HardwareBuffer@1@@Z 
??0DefaultHardwareUniformBuffer@Ogre@@QEAA@AEBV01@@Z 
??0DefaultHardwareUniformBuffer@Ogre@@QEAA@PEAVHardwareBufferManagerBase@1@_KW4Usage@HardwareBuffer@1@_NAEBV?$basic_string@DU?$char_traits@D@std@@V?$allocator@D@2@@std@@@Z 
??0DefaultHardwareVertexBuffer@Ogre@@QEAA@AEBV01@@Z 
??0DefaultHardwareVertexBuffer@Ogre@@QEAA@PEAVHardwareBufferManagerBase@1@_K1W4Usage@HardwareBuffer@1@@Z 
??0DefaultHardwareVertexBuffer@Ogre@@QEAA@_K0W4Usage@HardwareBuffer@1@@Z 
??0DefaultIntersectionSceneQuery@Ogre@@QEAA@AEBV01@@Z 
??0DefaultIntersectionSceneQuery@Ogre@@QEAA@PEAVSceneManager@1@@Z 
??0DefaultPlaneBoundedVolumeListSceneQuery@Ogre@@QEAA@AEBV01@@Z 
??0DefaultPlaneBoundedVolumeListSceneQuery@Ogre@@QEAA@PEAVSceneManager@1@@Z 
??0DefaultRaySceneQuery@Ogre@@QEAA@AEBV01@@Z 
??0DefaultRaySceneQuery@Ogre@@QEAA@PEAVSceneManager@1@@Z 
??0DefaultSceneManager@Ogre@@QEAA@AEBV?$basic_string@DU?$char_traits@D@std@@V?$allocator@D@2@@std@@_KW4InstancingThreadedCullingMethod@1@@Z 
??0DefaultSceneManagerFactory@Ogre@@QEAA@AEBV01@@Z 
??0DefaultSceneManagerFactory@Ogre@@QEAA@XZ 
??0DefaultShadowCameraSetup@Ogre@@QEAA@AEBV01@@Z 
??0DefaultShadowCameraSetup@Ogre@@QEAA@XZ 
??0DefaultSphereSceneQuery@Ogre@@QEAA@AEBV01@@Z 
??0DefaultSphereSceneQuery@Ogre@@QEAA@PEAVSceneManager@1@@Z 
??0DefaultWorkQueue@Ogre@@QEAA@AEBV?$basic_string@DU?$char_traits@D@std@@V?$allocator@D@2@@std@@@Z 
??0DefaultWorkQueueBase@Ogre@@QEAA@AEBV?$basic_string@DU?$char_traits@D@std@@V?$allocator@D@2@@std@@@Z 
??0DeflateStream@Ogre@@QEAA@AEBV01@@Z 
??0DeflateStream@Ogre@@QEAA@AEBV?$SharedPtr@VDataStream@Ogre@@@1@AEBV?$basic_string@DU?$char_traits@D@std@@V?$allocator@D@2@@std@@_K@Z 
??0DeflateStream@Ogre@@QEAA@AEBV?$basic_string@DU?$char_traits@D@std@@V?$allocator@D@2@@std@@AEBV?$SharedPtr@VDataStream@Ogre@@@1@0_K@Z 
??0DepthBuffer@Ogre@@QEAA@AEBV01@@Z 
??0DepthBuffer@Ogre@@QEAA@GGIIIAEBV?$basic_string@DU?$char_traits@D@std@@V?$allocator@D@2@@std@@_N@Z 
??0DistanceLodBoxStrategy@Ogre@@QEAA@XZ 
??0DistanceLodSphereStrategy@Ogre@@QEAA@XZ 
??0DistanceLodStrategyBase@Ogre@@QEAA@AEBV01@@Z 
??0DistanceLodStrategyBase@Ogre@@QEAA@AEBV?$basic_string@DU?$char_traits@D@std@@V?$allocator@D@2@@std@@@Z 
??0DriverVersion@Ogre@@QEAA@XZ 
??0DualQuaternion@Ogre@@QEAA@AEBVMatrix4@1@@Z 
??0DualQuaternion@Ogre@@QEAA@AEBVQuaternion@1@AEBVVector3@1@@Z 
??0DualQuaternion@Ogre@@QEAA@MMMMMMMM@Z 
??0DualQuaternion@Ogre@@QEAA@PEAM@Z 
??0DualQuaternion@Ogre@@QEAA@XZ 
??0DynLib@Ogre@@QEAA@AEBV01@@Z 
??0DynLib@Ogre@@QEAA@AEBV?$basic_string@DU?$char_traits@D@std@@V?$allocator@D@2@@std@@@Z 
??0DynLibManager@Ogre@@QEAA@XZ 
??0EdgeData@Ogre@@QEAA@AEBV01@@Z 
??0EdgeData@Ogre@@QEAA@XZ 
??0EdgeListBuilder@Ogre@@QEAA@AEBV01@@Z 
??0EdgeListBuilder@Ogre@@QEAA@XZ 
??0Element@BillboardChain@Ogre@@QEAA@AEBVVector3@2@MMAEBVColourValue@2@AEBVQuaternion@2@@Z 
??0Element@BillboardChain@Ogre@@QEAA@XZ 
??0EmbeddedZipArchiveFactory@Ogre@@QEAA@AEBV01@@Z 
??0EmbeddedZipArchiveFactory@Ogre@@QEAA@XZ 
??0Entity@Ogre@@IEAA@IPEAVObjectMemoryManager@1@@Z 
??0Entity@Ogre@@IEAA@IPEAVObjectMemoryManager@1@AEBV?$SharedPtr@VMesh@Ogre@@@1@@Z 
??0Entity@Ogre@@QEAA@AEBV01@@Z 
??0EntityFactory@Ogre@@QEAA@AEBV01@@Z 
??0EntityFactory@Ogre@@QEAA@XZ 
??0ErrorDialog@Ogre@@QEAA@AEBV01@@Z 
??0ErrorDialog@Ogre@@QEAA@XZ 
??0Exception@Ogre@@QEAA@AEBV01@@Z 
??0Exception@Ogre@@QEAA@HAEBV?$basic_string@DU?$char_traits@D@std@@V?$allocator@D@2@@std@@0@Z 
??0Exception@Ogre@@QEAA@HAEBV?$basic_string@DU?$char_traits@D@std@@V?$allocator@D@2@@std@@0PEBD1J@Z 
??0ExternalTextureSource@Ogre@@QEAA@AEBV01@@Z 
??0ExternalTextureSource@Ogre@@QEAA@XZ 
??0ExternalTextureSourceManager@Ogre@@QEAA@XZ 
??0FileHandleDataStream@Ogre@@QEAA@AEBV01@@Z 
??0FileHandleDataStream@Ogre@@QEAA@AEBV?$basic_string@DU?$char_traits@D@std@@V?$allocator@D@2@@std@@PEAU_iobuf@@G@Z 
??0FileHandleDataStream@Ogre@@QEAA@PEAU_iobuf@@G@Z 
??0FileNotFoundException@Ogre@@QEAA@AEBV01@@Z 
??0FileNotFoundException@Ogre@@QEAA@HAEBV?$basic_string@DU?$char_traits@D@std@@V?$allocator@D@2@@std@@0PEBDJ@Z 
??0FileStreamDataStream@Ogre@@QEAA@AEBV01@@Z 
??0FileStreamDataStream@Ogre@@QEAA@AEBV?$basic_string@DU?$char_traits@D@std@@V?$allocator@D@2@@std@@PEAV?$basic_fstream@DU?$char_traits@D@std@@@3@_K_N@Z 
??0FileStreamDataStream@Ogre@@QEAA@AEBV?$basic_string@DU?$char_traits@D@std@@V?$allocator@D@2@@std@@PEAV?$basic_fstream@DU?$char_traits@D@std@@@3@_N@Z 
??0FileStreamDataStream@Ogre@@QEAA@AEBV?$basic_string@DU?$char_traits@D@std@@V?$allocator@D@2@@std@@PEAV?$basic_ifstream@DU?$char_traits@D@std@@@3@_K_N@Z 
??0FileStreamDataStream@Ogre@@QEAA@AEBV?$basic_string@DU?$char_traits@D@std@@V?$allocator@D@2@@std@@PEAV?$basic_ifstream@DU?$char_traits@D@std@@@3@_N@Z 
??0FileStreamDataStream@Ogre@@QEAA@PEAV?$basic_fstream@DU?$char_traits@D@std@@@std@@_N@Z 
??0FileStreamDataStream@Ogre@@QEAA@PEAV?$basic_ifstream@DU?$char_traits@D@std@@@std@@_N@Z 
??0FileSystemArchive@Ogre@@QEAA@AEBV?$basic_string@DU?$char_traits@D@std@@V?$allocator@D@2@@std@@0_N@Z 
??0FileSystemArchiveFactory@Ogre@@QEAA@AEBV01@@Z 
??0FileSystemArchiveFactory@Ogre@@QEAA@XZ 
??0FileSystemLayer@Ogre@@QEAA@AEBV01@@Z 
??0FileSystemLayer@Ogre@@QEAA@AEBV?$basic_string@DU?$char_traits@D@std@@V?$allocator@D@2@@std@@@Z 
??0FloatGpuParameterControllerValue@Ogre@@QEAA@AEBV01@@Z 
??0FloatGpuParameterControllerValue@Ogre@@QEAA@V?$SharedPtr@VGpuProgramParameters@Ogre@@@1@_K@Z 
??0FocusedShadowCameraSetup@Ogre@@QEAA@AEBV01@@Z 
??0FocusedShadowCameraSetup@Ogre@@QEAA@XZ 
??0FrameListener@Ogre@@QEAA@AEBV01@@Z 
??0FrameListener@Ogre@@QEAA@XZ 
??0FrameStats@Ogre@@QEAA@XZ 
??0FrameTimeControllerValue@Ogre@@QEAA@AEBV01@@Z 
??0FrameTimeControllerValue@Ogre@@QEAA@XZ 
??0FreeImageCodec@Ogre@@QEAA@AEBV01@@Z 
??0FreeImageCodec@Ogre@@QEAA@AEBV?$basic_string@DU?$char_traits@D@std@@V?$allocator@D@2@@std@@I@Z 
??0Frustum@Ogre@@QEAA@IPEAVObjectMemoryManager@1@@Z 
??0GeometryBucket@StaticGeometry@Ogre@@QEAA@AEBV012@@Z 
??0GeometryBucket@StaticGeometry@Ogre@@QEAA@PEAVMaterialBucket@12@AEBV?$basic_string@DU?$char_traits@D@std@@V?$allocator@D@2@@std@@PEBVVertexData@2@PEBVIndexData@2@@Z 
??0GpuConstantDefinition@Ogre@@QEAA@XZ 
??0GpuLogicalBufferStruct@Ogre@@QEAA@XZ 
??0GpuLogicalIndexUse@Ogre@@QEAA@XZ 
??0GpuLogicalIndexUse@Ogre@@QEAA@_K0G@Z 
??0GpuNamedConstants@Ogre@@QEAA@AEBU01@@Z 
??0GpuNamedConstants@Ogre@@QEAA@XZ 
??0GpuNamedConstantsSerializer@Ogre@@QEAA@AEBV01@@Z 
??0GpuNamedConstantsSerializer@Ogre@@QEAA@XZ 
??0GpuProgram@Ogre@@QEAA@PEAVResourceManager@1@AEBV?$basic_string@DU?$char_traits@D@std@@V?$allocator@D@2@@std@@_K1_NPEAVManualResourceLoader@1@@Z 
??0GpuProgramManager@Ogre@@QEAA@XZ 
??0GpuProgramParameters@Ogre@@QEAA@AEBV01@@Z 
??0GpuProgramParameters@Ogre@@QEAA@XZ 
??0GpuProgramTranslator@Ogre@@QEAA@AEBV01@@Z 
??0GpuProgramTranslator@Ogre@@QEAA@XZ 
??0GpuProgramUsage@Ogre@@QEAA@AEBV01@@Z 
??0GpuProgramUsage@Ogre@@QEAA@AEBV01@PEAVPass@1@@Z 
??0GpuProgramUsage@Ogre@@QEAA@W4GpuProgramType@1@PEAVPass@1@@Z 
??0GpuSharedParameters@Ogre@@QEAA@AEBV01@@Z 
??0GpuSharedParameters@Ogre@@QEAA@AEBV?$basic_string@DU?$char_traits@D@std@@V?$allocator@D@2@@std@@@Z 
??0GpuSharedParametersUsage@Ogre@@QEAA@AEBV01@@Z 
??0GpuSharedParametersUsage@Ogre@@QEAA@V?$SharedPtr@VGpuSharedParameters@Ogre@@@1@PEAVGpuProgramParameters@1@@Z 
??0HardwareBuffer@Ogre@@QEAA@AEBV01@@Z 
??0HardwareBuffer@Ogre@@QEAA@W4Usage@01@_N1@Z 
??0HardwareBufferLicensee@Ogre@@QEAA@AEBV01@@Z 
??0HardwareBufferLicensee@Ogre@@QEAA@XZ 
??0HardwareBufferManager@Ogre@@QEAA@PEAVHardwareBufferManagerBase@1@@Z 
??0HardwareBufferManagerBase@Ogre@@QEAA@XZ 
??0HardwareCounterBuffer@Ogre@@QEAA@AEBV01@@Z 
??0HardwareCounterBuffer@Ogre@@QEAA@PEAVHardwareBufferManagerBase@1@_KW4Usage@HardwareBuffer@1@_NAEBV?$basic_string@DU?$char_traits@D@std@@V?$allocator@D@2@@std@@@Z 
??0HardwareCounterBufferSharedPtr@Ogre@@QEAA@AEBV01@@Z 
??0HardwareCounterBufferSharedPtr@Ogre@@QEAA@PEAVHardwareCounterBuffer@1@@Z 
??0HardwareCounterBufferSharedPtr@Ogre@@QEAA@XZ 
??0HardwareIndexBuffer@Ogre@@QEAA@AEBV01@@Z 
??0HardwareIndexBuffer@Ogre@@QEAA@PEAVHardwareBufferManagerBase@1@W4IndexType@01@_KW4Usage@HardwareBuffer@1@_N4@Z 
??0HardwareIndexBufferSharedPtr@Ogre@@QEAA@AEBV01@@Z 
??0HardwareIndexBufferSharedPtr@Ogre@@QEAA@PEAVHardwareIndexBuffer@1@@Z 
??0HardwareIndexBufferSharedPtr@Ogre@@QEAA@XZ 
??0HardwareOcclusionQuery@Ogre@@QEAA@AEBV01@@Z 
??0HardwareOcclusionQuery@Ogre@@QEAA@XZ 
??0HardwarePixelBuffer@Ogre@@QEAA@AEBV01@@Z 
??0HardwarePixelBuffer@Ogre@@QEAA@IIIW4PixelFormat@1@W4Usage@HardwareBuffer@1@_N2@Z 
??0HardwarePixelBufferSharedPtr@Ogre@@QEAA@AEBV01@@Z 
??0HardwarePixelBufferSharedPtr@Ogre@@QEAA@PEAVHardwarePixelBuffer@1@@Z 
??0HardwarePixelBufferSharedPtr@Ogre@@QEAA@XZ 
??0HardwareUniformBuffer@Ogre@@QEAA@AEBV01@@Z 
??0HardwareUniformBuffer@Ogre@@QEAA@PEAVHardwareBufferManagerBase@1@_KW4Usage@HardwareBuffer@1@_NAEBV?$basic_string@DU?$char_traits@D@std@@V?$allocator@D@2@@std@@@Z 
??0HardwareUniformBufferSharedPtr@Ogre@@QEAA@AEBV01@@Z 
??0HardwareUniformBufferSharedPtr@Ogre@@QEAA@PEAVHardwareUniformBuffer@1@@Z 
??0HardwareUniformBufferSharedPtr@Ogre@@QEAA@XZ 
??0HardwareVertexBuffer@Ogre@@QEAA@AEBV01@@Z 
??0HardwareVertexBuffer@Ogre@@QEAA@PEAVHardwareBufferManagerBase@1@_K1W4Usage@HardwareBuffer@1@_N3@Z 
??0HardwareVertexBufferSharedPtr@Ogre@@QEAA@AEBV01@@Z 
??0HardwareVertexBufferSharedPtr@Ogre@@QEAA@PEAVHardwareVertexBuffer@1@@Z 
??0HardwareVertexBufferSharedPtr@Ogre@@QEAA@XZ 
??0HighLevelGpuProgram@Ogre@@QEAA@PEAVResourceManager@1@AEBV?$basic_string@DU?$char_traits@D@std@@V?$allocator@D@2@@std@@_K1_NPEAVManualResourceLoader@1@@Z 
??0HighLevelGpuProgramFactory@Ogre@@QEAA@AEBV01@@Z 
??0HighLevelGpuProgramFactory@Ogre@@QEAA@XZ 
??0HighLevelGpuProgramManager@Ogre@@QEAA@XZ 
??0Hlms@Ogre@@QEAA@AEBV01@@Z 
??0Hlms@Ogre@@QEAA@PEAVArchive@1@@Z 
??0IOException@Ogre@@QEAA@AEBV01@@Z 
??0IOException@Ogre@@QEAA@HAEBV?$basic_string@DU?$char_traits@D@std@@V?$allocator@D@2@@std@@0PEBDJ@Z 
??0IdObject@Ogre@@QEAA@I@Z 
??0Image@Ogre@@QEAA@AEBV01@@Z 
??0Image@Ogre@@QEAA@XZ 
??0ImageCodec@Ogre@@QEAA@AEBV01@@Z 
??0ImageCodec@Ogre@@QEAA@XZ 
??0ImportAbstractNode@Ogre@@QEAA@AEBV01@@Z 
??0ImportAbstractNode@Ogre@@QEAA@XZ 
??0IndexData@Ogre@@QEAA@XZ 
??0InstanceBatch@Ogre@@QEAA@AEBV01@@Z 
??0InstanceBatch@Ogre@@QEAA@IPEAVObjectMemoryManager@1@PEAVInstanceManager@1@AEAV?$SharedPtr@VMesh@Ogre@@@1@AEBV?$SharedPtr@VMaterial@Ogre@@@1@_KPEBV?$FastArray@G@1@@Z 
??0InstanceBatchHW@Ogre@@QEAA@AEBV01@@Z 
??0InstanceBatchHW@Ogre@@QEAA@IPEAVObjectMemoryManager@1@PEAVInstanceManager@1@AEAV?$SharedPtr@VMesh@Ogre@@@1@AEBV?$SharedPtr@VMaterial@Ogre@@@1@_KPEBV?$FastArray@G@1@@Z 
??0InstanceBatchHW_VTF@Ogre@@QEAA@AEBV01@@Z 
??0InstanceBatchHW_VTF@Ogre@@QEAA@IPEAVObjectMemoryManager@1@PEAVInstanceManager@1@AEAV?$SharedPtr@VMesh@Ogre@@@1@AEBV?$SharedPtr@VMaterial@Ogre@@@1@_KPEBV?$FastArray@G@1@@Z 
??0InstanceBatchShader@Ogre@@QEAA@AEBV01@@Z 
??0InstanceBatchShader@Ogre@@QEAA@IPEAVObjectMemoryManager@1@PEAVInstanceManager@1@AEAV?$SharedPtr@VMesh@Ogre@@@1@AEBV?$SharedPtr@VMaterial@Ogre@@@1@_KPEBV?$FastArray@G@1@@Z 
??0InstanceBatchVTF@Ogre@@QEAA@AEBV01@@Z 
??0InstanceBatchVTF@Ogre@@QEAA@IPEAVObjectMemoryManager@1@PEAVInstanceManager@1@AEAV?$SharedPtr@VMesh@Ogre@@@1@AEBV?$SharedPtr@VMaterial@Ogre@@@1@_KPEBV?$FastArray@G@1@@Z 
??0InstanceManager@Ogre@@QEAA@AEBV01@@Z 
??0InstanceManager@Ogre@@QEAA@UIdString@1@PEAVSceneManager@1@AEBV?$basic_string@DU?$char_traits@D@std@@V?$allocator@D@2@@std@@2W4InstancingTechnique@01@G_KG_N@Z 
??0InstancedEntity@Ogre@@QEAA@AEBV01@@Z 
??0InstancedEntity@Ogre@@QEAA@IPEAVObjectMemoryManager@1@PEAVInstanceBatch@1@IPEAV01@@Z 
??0InterlockedCompareExchange64Wrapper@Ogre@@QEAA@XZ 
??0InternalErrorException@Ogre@@QEAA@AEBV01@@Z 
??0InternalErrorException@Ogre@@QEAA@HAEBV?$basic_string@DU?$char_traits@D@std@@V?$allocator@D@2@@std@@0PEBDJ@Z 
??0IntersectionSceneQuery@Ogre@@QEAA@AEBV01@@Z 
??0IntersectionSceneQuery@Ogre@@QEAA@PEAVSceneManager@1@@Z 
??0IntersectionSceneQueryListener@Ogre@@QEAA@AEBV01@@Z 
??0IntersectionSceneQueryListener@Ogre@@QEAA@XZ 
??0IntersectionSceneQueryResult@Ogre@@QEAA@AEBU01@@Z 
??0IntersectionSceneQueryResult@Ogre@@QEAA@XZ 
??0InvalidCallException@Ogre@@QEAA@AEBV01@@Z 
??0InvalidCallException@Ogre@@QEAA@HAEBV?$basic_string@DU?$char_traits@D@std@@V?$allocator@D@2@@std@@0PEBDJ@Z 
??0InvalidParametersException@Ogre@@QEAA@AEBV01@@Z 
??0InvalidParametersException@Ogre@@QEAA@HAEBV?$basic_string@DU?$char_traits@D@std@@V?$allocator@D@2@@std@@0PEBDJ@Z 
??0InvalidStateException@Ogre@@QEAA@AEBV01@@Z 
??0InvalidStateException@Ogre@@QEAA@HAEBV?$basic_string@DU?$char_traits@D@std@@V?$allocator@D@2@@std@@0PEBDJ@Z 
??0ItemIdentityException@Ogre@@QEAA@AEBV01@@Z 
??0ItemIdentityException@Ogre@@QEAA@HAEBV?$basic_string@DU?$char_traits@D@std@@V?$allocator@D@2@@std@@0PEBDJ@Z 
??0KeyFrame@Ogre@@QEAA@AEBV01@@Z 
??0KeyFrame@Ogre@@QEAA@PEBVAnimationTrack@1@M@Z 
??0KfTransform@Ogre@@QEAA@XZ 
??0KfTransformArrayMemoryManager@Ogre@@QEAA@AEBV01@@Z 
??0KfTransformArrayMemoryManager@Ogre@@QEAA@G_K00PEAVRebaseListener@ArrayMemoryManager@1@@Z 
??0LODBucket@StaticGeometry@Ogre@@QEAA@AEBV012@@Z 
??0LODBucket@StaticGeometry@Ogre@@QEAA@PEAVRegion@12@GM@Z 
??0LayerBlendModeEx@Ogre@@QEAA@XZ 
??0Light@Ogre@@QEAA@AEBV01@@Z 
??0Light@Ogre@@QEAA@IPEAVObjectMemoryManager@1@@Z 
??0LightFactory@Ogre@@QEAA@AEBV01@@Z 
??0LightFactory@Ogre@@QEAA@XZ 
??0LightInfo@SceneManager@Ogre@@QEAA@XZ 
??0LightweightMutex@Ogre@@QEAA@XZ 
??0LinearControllerFunction@Ogre@@QEAA@AEBV01@@Z 
??0LinearControllerFunction@Ogre@@QEAA@AEBV?$vector@MV?$allocator@M@std@@@std@@0M_N@Z 
??0Listener@AnimationTrack@Ogre@@QEAA@AEBV012@@Z 
??0Listener@AnimationTrack@Ogre@@QEAA@XZ 
??0Listener@Camera@Ogre@@QEAA@AEBV012@@Z 
??0Listener@Camera@Ogre@@QEAA@XZ 
??0Listener@MovableObject@Ogre@@QEAA@AEBV012@@Z 
??0Listener@MovableObject@Ogre@@QEAA@XZ 
??0Listener@Node@Ogre@@QEAA@AEBV012@@Z 
??0Listener@Node@Ogre@@QEAA@XZ 
??0Listener@OldNode@Ogre@@QEAA@AEBV012@@Z 
??0Listener@OldNode@Ogre@@QEAA@XZ 
??0Listener@RenderSystem@Ogre@@QEAA@AEBV012@@Z 
??0Listener@RenderSystem@Ogre@@QEAA@XZ 
??0Listener@ResourceBackgroundQueue@Ogre@@QEAA@AEBV012@@Z 
??0Listener@ResourceBackgroundQueue@Ogre@@QEAA@XZ 
??0LodListener@Ogre@@QEAA@AEBV01@@Z 
??0LodListener@Ogre@@QEAA@XZ 
??0LodStrategy@Ogre@@QEAA@AEBV01@@Z 
??0LodStrategy@Ogre@@QEAA@AEBV?$basic_string@DU?$char_traits@D@std@@V?$allocator@D@2@@std@@@Z 
??0LodStrategyManager@Ogre@@QEAA@XZ 
??0Log@Ogre@@QEAA@AEBV?$basic_string@DU?$char_traits@D@std@@V?$allocator@D@2@@std@@_N1@Z 
??0LogManager@Ogre@@QEAA@XZ 
??0ManualObject@Ogre@@QEAA@AEBV01@@Z 
??0ManualObject@Ogre@@QEAA@IPEAVObjectMemoryManager@1@@Z 
??0ManualObjectFactory@Ogre@@QEAA@AEBV01@@Z 
??0ManualObjectFactory@Ogre@@QEAA@XZ 
??0ManualObjectSection@ManualObject@Ogre@@QEAA@AEBV012@@Z 
??0ManualObjectSection@ManualObject@Ogre@@QEAA@PEAV12@AEBV?$basic_string@DU?$char_traits@D@std@@V?$allocator@D@2@@std@@W4OperationType@RenderOperation@2@1@Z 
??0ManualResourceLoader@Ogre@@QEAA@AEBV01@@Z 
??0ManualResourceLoader@Ogre@@QEAA@XZ 
??0Material@Ogre@@QEAA@PEAVResourceManager@1@AEBV?$basic_string@DU?$char_traits@D@std@@V?$allocator@D@2@@std@@_K1_NPEAVManualResourceLoader@1@@Z 
??0MaterialBucket@StaticGeometry@Ogre@@QEAA@AEBV012@@Z 
??0MaterialBucket@StaticGeometry@Ogre@@QEAA@PEAVLODBucket@12@AEBV?$basic_string@DU?$char_traits@D@std@@V?$allocator@D@2@@std@@@Z 
??0MaterialManager@Ogre@@QEAA@XZ 
??0MaterialSerializer@Ogre@@QEAA@AEBV01@@Z 
??0MaterialSerializer@Ogre@@QEAA@XZ 
??0MaterialTranslator@Ogre@@QEAA@AEBV01@@Z 
??0MaterialTranslator@Ogre@@QEAA@XZ 
??0Math@Ogre@@QEAA@I@Z 
??0Matrix3@Ogre@@QEAA@AEBV01@@Z 
??0Matrix3@Ogre@@QEAA@MMMMMMMMM@Z 
??0Matrix3@Ogre@@QEAA@QEAY02$$CBM@Z 
??0Matrix3@Ogre@@QEAA@XZ 
??0Matrix4@Ogre@@QEAA@AEBVMatrix3@1@@Z 
??0Matrix4@Ogre@@QEAA@AEBVQuaternion@1@@Z 
??0Matrix4@Ogre@@QEAA@MMMMMMMMMMMMMMMM@Z 
??0Matrix4@Ogre@@QEAA@XZ 
??0MemoryDataStream@Ogre@@QEAA@AEAV?$SharedPtr@VDataStream@Ogre@@@1@_N1@Z 
??0MemoryDataStream@Ogre@@QEAA@AEAVDataStream@1@_N1@Z 
??0MemoryDataStream@Ogre@@QEAA@AEBV01@@Z 
??0MemoryDataStream@Ogre@@QEAA@AEBV?$basic_string@DU?$char_traits@D@std@@V?$allocator@D@2@@std@@AEAVDataStream@1@_N2@Z 
??0MemoryDataStream@Ogre@@QEAA@AEBV?$basic_string@DU?$char_traits@D@std@@V?$allocator@D@2@@std@@AEBV?$SharedPtr@VDataStream@Ogre@@@1@_N2@Z 
??0MemoryDataStream@Ogre@@QEAA@AEBV?$basic_string@DU?$char_traits@D@std@@V?$allocator@D@2@@std@@PEAX_K_N3@Z 
??0MemoryDataStream@Ogre@@QEAA@AEBV?$basic_string@DU?$char_traits@D@std@@V?$allocator@D@2@@std@@_K_N2@Z 
??0MemoryDataStream@Ogre@@QEAA@PEAX_K_N2@Z 
??0MemoryDataStream@Ogre@@QEAA@_K_N1@Z 
??0Mesh@Ogre@@QEAA@PEAVResourceManager@1@AEBV?$basic_string@DU?$char_traits@D@std@@V?$allocator@D@2@@std@@_K1_NPEAVManualResourceLoader@1@@Z 
??0MeshManager@Ogre@@QEAA@XZ 
??0MeshSerializer@Ogre@@QEAA@AEBV01@@Z 
??0MeshSerializer@Ogre@@QEAA@XZ 
??0MovableObject@Ogre@@QEAA@AEBV01@@Z 
??0MovableObject@Ogre@@QEAA@IPEAVObjectMemoryManager@1@E@Z 
??0MovableObject@Ogre@@QEAA@PEAUObjectData@1@@Z 
??0MovableObjectFactory@Ogre@@QEAA@AEBV01@@Z 
??0MovableObjectFactory@Ogre@@QEAA@XZ 
??0MovablePlane@Ogre@@QEAA@AEBV01@@Z 
??0MovablePlane@Ogre@@QEAA@IPEAVObjectMemoryManager@1@@Z 
??0MovablePlane@Ogre@@QEAA@IPEAVObjectMemoryManager@1@AEBVPlane@1@@Z 
??0MovablePlane@Ogre@@QEAA@IPEAVObjectMemoryManager@1@AEBVVector3@1@11@Z 
??0MovablePlane@Ogre@@QEAA@IPEAVObjectMemoryManager@1@AEBVVector3@1@1@Z 
??0MovablePlane@Ogre@@QEAA@IPEAVObjectMemoryManager@1@AEBVVector3@1@M@Z 
??0MultiRenderTarget@Ogre@@QEAA@AEBV01@@Z 
??0MultiRenderTarget@Ogre@@QEAA@AEBV?$basic_string@DU?$char_traits@D@std@@V?$allocator@D@2@@std@@@Z 
??0NameGenerator@Ogre@@QEAA@AEBV01@@Z 
??0NameGenerator@Ogre@@QEAA@AEBV?$basic_string@DU?$char_traits@D@std@@V?$allocator@D@2@@std@@@Z 
??0NedPoolingPolicy@Ogre@@AEAA@XZ 
??0Node@Ogre@@QEAA@AEBUTransform@1@@Z 
??0Node@Ogre@@QEAA@AEBV01@@Z 
??0Node@Ogre@@QEAA@IPEAVNodeMemoryManager@1@PEAV01@@Z 
??0NodeAnimationTrack@Ogre@@QEAA@AEBV01@@Z 
??0NodeAnimationTrack@Ogre@@QEAA@PEAVAnimation@1@G@Z 
??0NodeAnimationTrack@Ogre@@QEAA@PEAVAnimation@1@GPEAVNode@1@@Z 
??0NodeArrayMemoryManager@Ogre@@QEAA@AEBV01@@Z 
??0NodeArrayMemoryManager@Ogre@@QEAA@G_KPEAVNode@1@00PEAVRebaseListener@ArrayMemoryManager@1@@Z 
??0NullEntity@Ogre@@QEAA@AEBV01@@Z 
??0NullEntity@Ogre@@QEAA@XZ 
??0NumericAnimationTrack@Ogre@@QEAA@AEBV01@@Z 
??0NumericAnimationTrack@Ogre@@QEAA@PEAVAnimation@1@G@Z 
??0NumericAnimationTrack@Ogre@@QEAA@PEAVAnimation@1@GAEAV?$SharedPtr@VAnimableValue@Ogre@@@1@@Z 
??0NumericKeyFrame@Ogre@@QEAA@AEBV01@@Z 
??0NumericKeyFrame@Ogre@@QEAA@PEBVAnimationTrack@1@M@Z 
??0ObjectAbstractNode@Ogre@@QEAA@AEBV01@@Z 
??0ObjectAbstractNode@Ogre@@QEAA@PEAVAbstractNode@1@@Z 
??0ObjectDataArrayMemoryManager@Ogre@@QEAA@AEBV01@@Z 
??0ObjectDataArrayMemoryManager@Ogre@@QEAA@G_KPEAVNode@1@PEAVMovableObject@1@00PEAVRebaseListener@ArrayMemoryManager@1@@Z 
??0ObjectMemoryManager@Ogre@@QEAA@AEBV01@@Z 
??0ObjectMemoryManager@Ogre@@QEAA@XZ 
??0OldBone@Ogre@@QEAA@AEBV01@@Z 
??0OldBone@Ogre@@QEAA@AEBV?$basic_string@DU?$char_traits@D@std@@V?$allocator@D@2@@std@@GPEAVSkeleton@1@@Z 
??0OldBone@Ogre@@QEAA@GPEAVSkeleton@1@@Z 
??0OldNode@Ogre@@QEAA@AEBV01@@Z 
??0OldNode@Ogre@@QEAA@AEBV?$basic_string@DU?$char_traits@D@std@@V?$allocator@D@2@@std@@@Z 
??0OldNode@Ogre@@QEAA@XZ 
??0OldNodeAnimationTrack@Ogre@@QEAA@AEBV01@@Z 
??0OldNodeAnimationTrack@Ogre@@QEAA@PEAVAnimation@1@G@Z 
??0OldNodeAnimationTrack@Ogre@@QEAA@PEAVAnimation@1@GPEAVOldNode@1@@Z 
??0OldSkeletonInstance@Ogre@@QEAA@AEBV?$SharedPtr@VSkeleton@Ogre@@@1@@Z 
??0OldSkeletonManager@Ogre@@QEAA@XZ 
??0OptimisedUtil@Ogre@@QEAA@XZ 
??0PSSMShadowCameraSetup@Ogre@@QEAA@AEBV01@@Z 
??0PSSMShadowCameraSetup@Ogre@@QEAA@XZ 
??0ParamCommand@Ogre@@QEAA@AEBV01@@Z 
??0ParamCommand@Ogre@@QEAA@XZ 
??0ParamDictionary@Ogre@@QEAA@AEBV01@@Z 
??0ParamDictionary@Ogre@@QEAA@XZ 
??0ParameterDef@Ogre@@QEAA@AEBV01@@Z 
??0ParameterDef@Ogre@@QEAA@AEBV?$basic_string@DU?$char_traits@D@std@@V?$allocator@D@2@@std@@0W4ParameterType@1@@Z 
??0Particle@Ogre@@QEAA@XZ 
??0ParticleAffector@Ogre@@QEAA@AEBV01@@Z 
??0ParticleAffector@Ogre@@QEAA@PEAVParticleSystem@1@@Z 
??0ParticleAffectorFactory@Ogre@@QEAA@AEBV01@@Z 
??0ParticleAffectorFactory@Ogre@@QEAA@XZ 
??0ParticleAffectorTranslator@Ogre@@QEAA@AEBV01@@Z 
??0ParticleAffectorTranslator@Ogre@@QEAA@XZ 
??0ParticleEmitter@Ogre@@QEAA@AEBV01@@Z 
??0ParticleEmitter@Ogre@@QEAA@PEAVParticleSystem@1@@Z 
??0ParticleEmitterFactory@Ogre@@QEAA@AEBV01@@Z 
??0ParticleEmitterFactory@Ogre@@QEAA@XZ 
??0ParticleEmitterTranslator@Ogre@@QEAA@AEBV01@@Z 
??0ParticleEmitterTranslator@Ogre@@QEAA@XZ 
??0ParticleIterator@Ogre@@IEAA@V?$_List_iterator@V?$_List_val@PEAVParticle@Ogre@@V?$STLAllocator@PEAVParticle@Ogre@@V?$CategorisedAllocPolicy@$0A@@2@@2@@std@@@std@@0@Z 
??0ParticleSystem@Ogre@@QEAA@AEBV01@@Z 
??0ParticleSystem@Ogre@@QEAA@IPEAVObjectMemoryManager@1@AEBV?$basic_string@DU?$char_traits@D@std@@V?$allocator@D@2@@std@@@Z 
??0ParticleSystemFactory@Ogre@@QEAA@AEBV01@@Z 
??0ParticleSystemFactory@Ogre@@QEAA@XZ 
??0ParticleSystemManager@Ogre@@QEAA@XZ 
??0ParticleSystemRenderer@Ogre@@QEAA@AEBV01@@Z 
??0ParticleSystemRenderer@Ogre@@QEAA@XZ 
??0ParticleSystemRendererFactory@Ogre@@QEAA@AEBV01@@Z 
??0ParticleSystemRendererFactory@Ogre@@QEAA@XZ 
??0ParticleSystemTranslator@Ogre@@QEAA@AEBV01@@Z 
??0ParticleSystemTranslator@Ogre@@QEAA@XZ 
??0ParticleVisualData@Ogre@@QEAA@AEBV01@@Z 
??0ParticleVisualData@Ogre@@QEAA@XZ 
??0Pass@Ogre@@QEAA@PEAVTechnique@1@G@Z 
??0Pass@Ogre@@QEAA@PEAVTechnique@1@GAEBV01@@Z 
??0PassTranslator@Ogre@@QEAA@AEBV01@@Z 
??0PassTranslator@Ogre@@QEAA@XZ 
??0PassthroughControllerFunction@Ogre@@QEAA@AEBV01@@Z 
??0PassthroughControllerFunction@Ogre@@QEAA@_N@Z 
??0PatchMesh@Ogre@@QEAA@PEAVResourceManager@1@AEBV?$basic_string@DU?$char_traits@D@std@@V?$allocator@D@2@@std@@_K1@Z 
??0PatchSurface@Ogre@@QEAA@AEBV01@@Z 
??0PatchSurface@Ogre@@QEAA@XZ 
??0PixelBox@Ogre@@QEAA@AEBUBox@1@W4PixelFormat@1@PEAX@Z 
??0PixelBox@Ogre@@QEAA@IIIW4PixelFormat@1@PEAX@Z 
??0PixelBox@Ogre@@QEAA@XZ 
??0PixelCountLodStrategyBase@Ogre@@QEAA@AEBV01@@Z 
??0PixelCountLodStrategyBase@Ogre@@QEAA@AEBV?$basic_string@DU?$char_traits@D@std@@V?$allocator@D@2@@std@@@Z 
??0Plane@Ogre@@QEAA@AEBV01@@Z 
??0Plane@Ogre@@QEAA@AEBVVector3@1@00@Z 
??0Plane@Ogre@@QEAA@AEBVVector3@1@0@Z 
??0Plane@Ogre@@QEAA@AEBVVector3@1@M@Z 
??0Plane@Ogre@@QEAA@MMMM@Z 
??0Plane@Ogre@@QEAA@XZ 
??0PlaneBoundedVolume@Ogre@@QEAA@AEBV01@@Z 
??0PlaneBoundedVolume@Ogre@@QEAA@W4Side@Plane@1@@Z 
??0PlaneBoundedVolume@Ogre@@QEAA@XZ 
??0PlaneBoundedVolumeListSceneQuery@Ogre@@QEAA@AEBV01@@Z 
??0PlaneBoundedVolumeListSceneQuery@Ogre@@QEAA@PEAVSceneManager@1@@Z 
??0PlaneOptimalShadowCameraSetup@Ogre@@AEAA@XZ 
??0PlaneOptimalShadowCameraSetup@Ogre@@QEAA@AEBV01@@Z 
??0PlaneOptimalShadowCameraSetup@Ogre@@QEAA@PEAVMovablePlane@1@@Z 
??0Plugin@Ogre@@QEAA@AEBV01@@Z 
??0Plugin@Ogre@@QEAA@XZ 
??0Polygon@Ogre@@QEAA@AEBV01@@Z 
??0Polygon@Ogre@@QEAA@XZ 
??0Pose@Ogre@@QEAA@AEBV01@@Z 
??0Pose@Ogre@@QEAA@GAEBV?$basic_string@DU?$char_traits@D@std@@V?$allocator@D@2@@std@@@Z 
??0PreApplyTextureAliasesScriptCompilerEvent@Ogre@@QEAA@PEAVMaterial@1@PEAV?$map@V?$basic_string@DU?$char_traits@D@std@@V?$allocator@D@2@@std@@V12@U?$less@V?$basic_string@DU?$char_traits@D@std@@V?$allocator@D@2@@std@@@2@V?$STLAllocator@U?$pair@$$CBV?$basic_string@DU?$char_traits@D@std@@V?$allocator@D@2@@std@@V12@@std@@V?$CategorisedAllocPolicy@$0A@@Ogre@@@Ogre@@@std@@@Z 
??0ProcessNameExclusionScriptCompilerEvent@Ogre@@QEAA@AEBV?$basic_string@DU?$char_traits@D@std@@V?$allocator@D@2@@std@@PEAVAbstractNode@1@@Z 
??0ProcessResourceNameScriptCompilerEvent@Ogre@@QEAA@W4ResourceType@01@AEBV?$basic_string@DU?$char_traits@D@std@@V?$allocator@D@2@@std@@@Z 
??0Profile@Ogre@@QEAA@AEBV01@@Z 
??0Profile@Ogre@@QEAA@AEBV?$basic_string@DU?$char_traits@D@std@@V?$allocator@D@2@@std@@I@Z 
??0ProfileSessionListener@Ogre@@QEAA@AEBV01@@Z 
??0ProfileSessionListener@Ogre@@QEAA@XZ 
??0Profiler@Ogre@@QEAA@XZ 
??0PropertyAbstractNode@Ogre@@QEAA@AEBV01@@Z 
??0PropertyAbstractNode@Ogre@@QEAA@PEAVAbstractNode@1@@Z 
??0Quaternion@Ogre@@QEAA@AEBVMatrix3@1@@Z 
??0Quaternion@Ogre@@QEAA@AEBVRadian@1@AEBVVector3@1@@Z 
??0Quaternion@Ogre@@QEAA@AEBVVector3@1@00@Z 
??0Quaternion@Ogre@@QEAA@MMMM@Z 
??0Quaternion@Ogre@@QEAA@PEAM@Z 
??0Quaternion@Ogre@@QEAA@PEBVVector3@1@@Z 
??0Quaternion@Ogre@@QEAA@XZ 
??0QueuedRenderableCollection@Ogre@@QEAA@AEBV01@@Z 
??0QueuedRenderableCollection@Ogre@@QEAA@XZ 
??0QueuedRenderableVisitor@Ogre@@QEAA@AEBV01@@Z 
??0QueuedRenderableVisitor@Ogre@@QEAA@XZ 
??0Ray@Ogre@@QEAA@AEBVVector3@1@0@Z 
??0Ray@Ogre@@QEAA@XZ 
??0RaySceneQuery@Ogre@@QEAA@AEBV01@@Z 
??0RaySceneQuery@Ogre@@QEAA@PEAVSceneManager@1@@Z 
??0RaySceneQueryListener@Ogre@@QEAA@AEBV01@@Z 
??0RaySceneQueryListener@Ogre@@QEAA@XZ 
??0Rectangle2D@Ogre@@QEAA@AEBV01@@Z 
??0Rectangle2D@Ogre@@QEAA@_N@Z 
??0Region@StaticGeometry@Ogre@@QEAA@AEBV012@@Z 
??0Region@StaticGeometry@Ogre@@QEAA@IPEAVObjectMemoryManager@2@PEAV12@PEAVSceneManager@2@IAEBVVector3@2@@Z 
??0RegionSceneQuery@Ogre@@QEAA@AEBV01@@Z 
??0RegionSceneQuery@Ogre@@QEAA@PEAVSceneManager@1@@Z 
??0RenderObjectListener@Ogre@@QEAA@AEBV01@@Z 
??0RenderObjectListener@Ogre@@QEAA@XZ 
??0RenderPriorityGroup@Ogre@@QEAA@AEBV01@@Z 
??0RenderPriorityGroup@Ogre@@QEAA@PEAVRenderQueueGroup@1@@Z 
??0RenderQueue@Ogre@@QEAA@AEBV01@@Z 
??0RenderQueue@Ogre@@QEAA@XZ 
??0RenderQueueGroup@Ogre@@QEAA@AEBV01@@Z 
??0RenderQueueGroup@Ogre@@QEAA@PEAVRenderQueue@1@@Z 
??0RenderQueueInvocation@Ogre@@QEAA@AEBV01@@Z 
??0RenderQueueInvocation@Ogre@@QEAA@EAEBV?$basic_string@DU?$char_traits@D@std@@V?$allocator@D@2@@std@@@Z 
??0RenderQueueInvocationSequence@Ogre@@QEAA@AEBV01@@Z 
??0RenderQueueInvocationSequence@Ogre@@QEAA@AEBV?$basic_string@DU?$char_traits@D@std@@V?$allocator@D@2@@std@@@Z 
??0RenderQueueListener@Ogre@@QEAA@AEBV01@@Z 
??0RenderQueueListener@Ogre@@QEAA@XZ 
??0RenderSystem@Ogre@@QEAA@AEBV01@@Z 
??0RenderSystem@Ogre@@QEAA@XZ 
??0RenderSystemCapabilities@Ogre@@QEAA@AEBV01@@Z 
??0RenderSystemCapabilities@Ogre@@QEAA@XZ 
??0RenderSystemCapabilitiesManager@Ogre@@QEAA@XZ 
??0RenderSystemCapabilitiesSerializer@Ogre@@QEAA@AEBV01@@Z 
??0RenderSystemCapabilitiesSerializer@Ogre@@QEAA@XZ 
??0RenderTarget@Ogre@@QEAA@AEBV01@@Z 
??0RenderTarget@Ogre@@QEAA@XZ 
??0RenderTargetListener@Ogre@@QEAA@AEBV01@@Z 
??0RenderTargetListener@Ogre@@QEAA@XZ 
??0RenderTexture@Ogre@@QEAA@AEBV01@@Z 
??0RenderTexture@Ogre@@QEAA@PEAVHardwarePixelBuffer@1@I@Z 
??0RenderToVertexBuffer@Ogre@@QEAA@AEBV01@@Z 
??0RenderToVertexBuffer@Ogre@@QEAA@XZ 
??0RenderWindow@Ogre@@QEAA@AEBV01@@Z 
??0RenderWindow@Ogre@@QEAA@XZ 
??0Renderable@Ogre@@QEAA@AEBV01@@Z 
??0Renderable@Ogre@@QEAA@XZ 
??0RenderableListener@RenderQueue@Ogre@@QEAA@AEBV012@@Z 
??0RenderableListener@RenderQueue@Ogre@@QEAA@XZ 
??0RenderingAPIException@Ogre@@QEAA@AEBV01@@Z 
??0RenderingAPIException@Ogre@@QEAA@HAEBV?$basic_string@DU?$char_traits@D@std@@V?$allocator@D@2@@std@@0PEBDJ@Z 
??0Request@WorkQueue@Ogre@@QEAA@AEBV012@@Z 
??0Request@WorkQueue@Ogre@@QEAA@GGAEBVAny@2@E_K@Z 
??0RequestHandler@WorkQueue@Ogre@@QEAA@AEBV012@@Z 
??0RequestHandler@WorkQueue@Ogre@@QEAA@XZ 
??0RequestHandlerHolder@DefaultWorkQueueBase@Ogre@@QEAA@PEAVRequestHandler@WorkQueue@2@@Z 
??0Resource@Ogre@@IEAA@XZ 
??0Resource@Ogre@@QEAA@PEAVResourceManager@1@AEBV?$basic_string@DU?$char_traits@D@std@@V?$allocator@D@2@@std@@_K1_NPEAVManualResourceLoader@1@@Z 
??0ResourceBackgroundQueue@Ogre@@QEAA@XZ 
??0ResourceGroupListener@Ogre@@QEAA@AEBV01@@Z 
??0ResourceGroupListener@Ogre@@QEAA@XZ 
??0ResourceGroupManager@Ogre@@QEAA@XZ 
??0ResourceManager@Ogre@@QEAA@XZ 
??0ResourcePool@ResourceManager@Ogre@@QEAA@AEBV?$basic_string@DU?$char_traits@D@std@@V?$allocator@D@2@@std@@@Z 
??0Response@WorkQueue@Ogre@@QEAA@AEBU012@@Z 
??0Response@WorkQueue@Ogre@@QEAA@PEBVRequest@12@_NAEBVAny@2@AEBV?$basic_string@DU?$char_traits@D@std@@V?$allocator@D@2@@std@@@Z 
??0ResponseHandler@WorkQueue@Ogre@@QEAA@AEBV012@@Z 
??0ResponseHandler@WorkQueue@Ogre@@QEAA@XZ 
??0RibbonTrail@Ogre@@QEAA@AEBV01@@Z 
??0RibbonTrail@Ogre@@QEAA@IPEAVObjectMemoryManager@1@_K1_N2@Z 
??0RibbonTrailFactory@Ogre@@QEAA@AEBV01@@Z 
??0RibbonTrailFactory@Ogre@@QEAA@XZ 
??0Root@Ogre@@QEAA@AEBV?$basic_string@DU?$char_traits@D@std@@V?$allocator@D@2@@std@@00@Z 
??0RotationalSpline@Ogre@@QEAA@AEBV01@@Z 
??0RotationalSpline@Ogre@@QEAA@XZ 
??0RuntimeAssertionException@Ogre@@QEAA@AEBV01@@Z 
??0RuntimeAssertionException@Ogre@@QEAA@HAEBV?$basic_string@DU?$char_traits@D@std@@V?$allocator@D@2@@std@@0PEBDJ@Z 
??0ScaleControllerFunction@Ogre@@QEAA@AEBV01@@Z 
??0ScaleControllerFunction@Ogre@@QEAA@M_N@Z 
??0SceneManager@Ogre@@QEAA@AEBV?$basic_string@DU?$char_traits@D@std@@V?$allocator@D@2@@std@@_KW4InstancingThreadedCullingMethod@1@@Z 
??0SceneManagerEnumerator@Ogre@@QEAA@XZ 
??0SceneManagerFactory@Ogre@@QEAA@AEBV01@@Z 
??0SceneManagerFactory@Ogre@@QEAA@XZ 
??0SceneMgrQueuedRenderableVisitor@SceneManager@Ogre@@QEAA@AEBV012@@Z 
??0SceneMgrQueuedRenderableVisitor@SceneManager@Ogre@@QEAA@XZ 
??0SceneNode@Ogre@@QEAA@AEBUTransform@1@@Z 
??0SceneNode@Ogre@@QEAA@AEBV01@@Z 
??0SceneNode@Ogre@@QEAA@IPEAVSceneManager@1@PEAVNodeMemoryManager@1@PEAV01@@Z 
??0SceneQuery@Ogre@@QEAA@AEBV01@@Z 
??0SceneQuery@Ogre@@QEAA@PEAVSceneManager@1@@Z 
??0SceneQueryListener@Ogre@@QEAA@AEBV01@@Z 
??0SceneQueryListener@Ogre@@QEAA@XZ 
??0SceneQueryResult@Ogre@@QEAA@AEBU01@@Z 
??0SceneQueryResult@Ogre@@QEAA@XZ 
??0ScreenRatioPixelCountLodStrategy@Ogre@@QEAA@XZ 
??0ScriptCompiler@Ogre@@QEAA@AEBV01@@Z 
??0ScriptCompiler@Ogre@@QEAA@XZ 
??0ScriptCompilerListener@Ogre@@QEAA@AEBV01@@Z 
??0ScriptCompilerListener@Ogre@@QEAA@XZ 
??0ScriptCompilerManager@Ogre@@QEAA@XZ 
??0ScriptLexer@Ogre@@QEAA@AEBV01@@Z 
??0ScriptLexer@Ogre@@QEAA@XZ 
??0ScriptLoader@Ogre@@QEAA@AEBV01@@Z 
??0ScriptLoader@Ogre@@QEAA@XZ 
??0ScriptParser@Ogre@@QEAA@AEBV01@@Z 
??0ScriptParser@Ogre@@QEAA@XZ 
??0ScriptTranslator@Ogre@@QEAA@AEBV01@@Z 
??0ScriptTranslator@Ogre@@QEAA@XZ 
??0Serializer@Ogre@@QEAA@AEBV01@@Z 
??0Serializer@Ogre@@QEAA@XZ 
??0ShadowCameraSetup@Ogre@@QEAA@AEBV01@@Z 
??0ShadowCameraSetup@Ogre@@QEAA@XZ 
??0ShadowTextureManager@Ogre@@QEAA@XZ 
??0ShadowVolumeExtrudeProgram@Ogre@@QEAA@XZ 
??0SharedParamsTranslator@Ogre@@QEAA@AEBV01@@Z 
??0SharedParamsTranslator@Ogre@@QEAA@XZ 
??0SimpleMatrixAf4x3@Ogre@@QEAA@T__m128@@00@Z 
??0SimpleMatrixAf4x3@Ogre@@QEAA@XZ 
??0SimpleRenderable@Ogre@@QEAA@AEBV01@@Z 
??0SimpleRenderable@Ogre@@QEAA@IPEAVObjectMemoryManager@1@@Z 
??0SimpleSpline@Ogre@@QEAA@AEBV01@@Z 
??0SimpleSpline@Ogre@@QEAA@XZ 
??0Skeleton@Ogre@@IEAA@XZ 
??0Skeleton@Ogre@@QEAA@PEAVResourceManager@1@AEBV?$basic_string@DU?$char_traits@D@std@@V?$allocator@D@2@@std@@_K1_NPEAVManualResourceLoader@1@@Z 
??0SkeletonAnimation@Ogre@@QEAA@AEBV01@@Z 
??0SkeletonAnimation@Ogre@@QEAA@PEBVSkeletonAnimationDef@1@PEBV?$FastArray@_K@1@PEAVSkeletonInstance@1@@Z 
??0SkeletonAnimationDef@Ogre@@QEAA@AEBV01@@Z 
??0SkeletonAnimationDef@Ogre@@QEAA@XZ 
??0SkeletonDef@Ogre@@QEAA@AEBV01@@Z 
??0SkeletonDef@Ogre@@QEAA@PEBVSkeleton@1@M@Z 
??0SkeletonInstance@Ogre@@QEAA@AEBV01@@Z 
??0SkeletonInstance@Ogre@@QEAA@PEBVSkeletonDef@1@PEAVBoneMemoryManager@1@@Z 
??0SkeletonManager@Ogre@@QEAA@XZ 
??0SkeletonSerializer@Ogre@@QEAA@AEBV01@@Z 
??0SkeletonSerializer@Ogre@@QEAA@XZ 
??0SkeletonTrack@Ogre@@QEAA@AEBV01@@Z 
??0SkeletonTrack@Ogre@@QEAA@IPEAVKfTransformArrayMemoryManager@1@@Z 
??0Sphere@Ogre@@QEAA@AEBVVector3@1@M@Z 
??0Sphere@Ogre@@QEAA@XZ 
??0SphereSceneQuery@Ogre@@QEAA@AEBV01@@Z 
??0SphereSceneQuery@Ogre@@QEAA@PEAVSceneManager@1@@Z 
??0StaticGeometry@Ogre@@QEAA@AEBV01@@Z 
??0StaticGeometry@Ogre@@QEAA@PEAVSceneManager@1@AEBV?$basic_string@DU?$char_traits@D@std@@V?$allocator@D@2@@std@@@Z 
??0StreamSerialiser@Ogre@@QEAA@AEBV01@@Z 
??0StreamSerialiser@Ogre@@QEAA@AEBV?$SharedPtr@VDataStream@Ogre@@@1@W4Endian@01@_NW4RealStorageFormat@01@@Z 
??0StringInterface@Ogre@@QEAA@AEBV01@@Z 
??0StringInterface@Ogre@@QEAA@XZ 
??0SubEntity@Ogre@@IEAA@PEAVEntity@1@PEAVSubMesh@1@@Z 
??0SubEntity@Ogre@@QEAA@AEBV01@@Z 
??0SubMesh@Ogre@@QEAA@AEBV01@@Z 
??0SubMesh@Ogre@@QEAA@XZ 
??0TagPoint@Ogre@@QEAA@AEBV01@@Z 
??0TagPoint@Ogre@@QEAA@PEAVSkeleton@1@@Z 
??0TangentSpaceCalc@Ogre@@QEAA@AEBV01@@Z 
??0TangentSpaceCalc@Ogre@@QEAA@XZ 
??0Technique@Ogre@@QEAA@AEBV01@@Z 
??0Technique@Ogre@@QEAA@PEAVMaterial@1@@Z 
??0Technique@Ogre@@QEAA@PEAVMaterial@1@AEBV01@@Z 
??0TechniqueTranslator@Ogre@@QEAA@AEBV01@@Z 
??0TechniqueTranslator@Ogre@@QEAA@XZ 
??0TempBlendedBufferInfo@Ogre@@QEAA@AEBV01@@Z 
??0TempBlendedBufferInfo@Ogre@@QEAA@XZ 
??0TexCoordModifierControllerValue@Ogre@@QEAA@AEBV01@@Z 
??0TexCoordModifierControllerValue@Ogre@@QEAA@PEAVTextureUnitState@1@_N1111@Z 
??0Texture@Ogre@@QEAA@PEAVResourceManager@1@AEBV?$basic_string@DU?$char_traits@D@std@@V?$allocator@D@2@@std@@_K1_NPEAVManualResourceLoader@1@@Z 
??0TextureDefinition@TextureDefinitionBase@Ogre@@QEAA@AEBV012@@Z 
??0TextureDefinition@TextureDefinitionBase@Ogre@@QEAA@UIdString@2@@Z 
??0TextureDefinitionBase@Ogre@@QEAA@AEBV01@@Z 
??0TextureDefinitionBase@Ogre@@QEAA@W4TextureSource@01@@Z 
??0TextureFrameControllerValue@Ogre@@QEAA@AEBV01@@Z 
??0TextureFrameControllerValue@Ogre@@QEAA@PEAVTextureUnitState@1@@Z 
??0TextureManager@Ogre@@QEAA@XZ 
??0TextureSourceTranslator@Ogre@@QEAA@AEBV01@@Z 
??0TextureSourceTranslator@Ogre@@QEAA@XZ 
??0TextureUnitState@Ogre@@QEAA@AEBV01@@Z 
??0TextureUnitState@Ogre@@QEAA@PEAVPass@1@@Z 
??0TextureUnitState@Ogre@@QEAA@PEAVPass@1@AEBV01@@Z 
??0TextureUnitState@Ogre@@QEAA@PEAVPass@1@AEBV?$basic_string@DU?$char_traits@D@std@@V?$allocator@D@2@@std@@I@Z 
??0TextureUnitTranslator@Ogre@@QEAA@AEBV01@@Z 
??0TextureUnitTranslator@Ogre@@QEAA@XZ 
??0ThreadHandle@Ogre@@QEAA@_KPEAX@Z 
??0TimeIndex@Ogre@@QEAA@M@Z 
??0TimeIndex@Ogre@@QEAA@MI@Z 
??0Timer@Ogre@@QEAA@XZ 
??0TransformKeyFrame@Ogre@@QEAA@AEBV01@@Z 
??0TransformKeyFrame@Ogre@@QEAA@PEBVAnimationTrack@1@M@Z 
??0UTFString@Ogre@@QEAA@AEBV01@@Z 
??0UTFString@Ogre@@QEAA@AEBV01@_K1@Z 
??0UTFString@Ogre@@QEAA@AEBV?$basic_string@DU?$char_traits@D@std@@V?$allocator@D@2@@std@@@Z 
??0UTFString@Ogre@@QEAA@AEBV?$basic_string@_WU?$char_traits@_W@std@@V?$allocator@_W@2@@std@@@Z 
??0UTFString@Ogre@@QEAA@PEBD@Z 
??0UTFString@Ogre@@QEAA@PEBD_K@Z 
??0UTFString@Ogre@@QEAA@PEBG@Z 
??0UTFString@Ogre@@QEAA@PEBG_K@Z 
??0UTFString@Ogre@@QEAA@PEB_W@Z 
??0UTFString@Ogre@@QEAA@PEB_W_K@Z 
??0UTFString@Ogre@@QEAA@XZ 
??0UTFString@Ogre@@QEAA@_KAEBG@Z 
??0UnifiedHighLevelGpuProgram@Ogre@@QEAA@PEAVResourceManager@1@AEBV?$basic_string@DU?$char_traits@D@std@@V?$allocator@D@2@@std@@_K1_NPEAVManualResourceLoader@1@@Z 
??0UniformScalableTask@Ogre@@QEAA@AEBV01@@Z 
??0UniformScalableTask@Ogre@@QEAA@XZ 
??0UnimplementedException@Ogre@@QEAA@AEBV01@@Z 
??0UnimplementedException@Ogre@@QEAA@HAEBV?$basic_string@DU?$char_traits@D@std@@V?$allocator@D@2@@std@@0PEBDJ@Z 
??0UserObjectBindings@Ogre@@QEAA@AEBV01@@Z 
??0UserObjectBindings@Ogre@@QEAA@XZ 
??0VariableAccessAbstractNode@Ogre@@QEAA@AEBV01@@Z 
??0VariableAccessAbstractNode@Ogre@@QEAA@PEAVAbstractNode@1@@Z 
??0Vector2@Ogre@@QEAA@M@Z 
??0Vector2@Ogre@@QEAA@MM@Z 
??0Vector2@Ogre@@QEAA@QEAM@Z 
??0Vector2@Ogre@@QEAA@QEBH@Z 
??0Vector2@Ogre@@QEAA@QEBM@Z 
??0Vector2@Ogre@@QEAA@XZ 
??0Vector3@Ogre@@QEAA@M@Z 
??0Vector3@Ogre@@QEAA@MMM@Z 
??0Vector3@Ogre@@QEAA@QEAM@Z 
??0Vector3@Ogre@@QEAA@QEBH@Z 
??0Vector3@Ogre@@QEAA@QEBM@Z 
??0Vector3@Ogre@@QEAA@XZ 
??0Vector4@Ogre@@QEAA@AEBVVector3@1@@Z 
??0Vector4@Ogre@@QEAA@M@Z 
??0Vector4@Ogre@@QEAA@MMMM@Z 
??0Vector4@Ogre@@QEAA@QEAM@Z 
??0Vector4@Ogre@@QEAA@QEBH@Z 
??0Vector4@Ogre@@QEAA@QEBM@Z 
??0Vector4@Ogre@@QEAA@XZ 
??0VertexAnimationTrack@Ogre@@QEAA@AEBV01@@Z 
??0VertexAnimationTrack@Ogre@@QEAA@PEAVAnimation@1@GW4VertexAnimationType@1@@Z 
??0VertexAnimationTrack@Ogre@@QEAA@PEAVAnimation@1@GW4VertexAnimationType@1@PEAVVertexData@1@W4TargetMode@01@@Z 
??0VertexBufferBinding@Ogre@@QEAA@AEBV01@@Z 
??0VertexBufferBinding@Ogre@@QEAA@XZ 
??0VertexCacheProfiler@Ogre@@QEAA@I@Z 
??0VertexData@Ogre@@QEAA@PEAVHardwareBufferManagerBase@1@@Z 
??0VertexData@Ogre@@QEAA@PEAVVertexDeclaration@1@PEAVVertexBufferBinding@1@@Z 
??0VertexDeclaration@Ogre@@QEAA@AEBV01@@Z 
??0VertexDeclaration@Ogre@@QEAA@XZ 
??0VertexElement@Ogre@@QEAA@G_KW4VertexElementType@1@W4VertexElementSemantic@1@G@Z 
??0VertexElement@Ogre@@QEAA@XZ 
??0VertexMorphKeyFrame@Ogre@@QEAA@AEBV01@@Z 
??0VertexMorphKeyFrame@Ogre@@QEAA@PEBVAnimationTrack@1@M@Z 
??0VertexPoseKeyFrame@Ogre@@QEAA@AEBV01@@Z 
??0VertexPoseKeyFrame@Ogre@@QEAA@PEBVAnimationTrack@1@M@Z 
??0Viewport@Ogre@@QEAA@AEBV01@@Z 
??0Viewport@Ogre@@QEAA@PEAVRenderTarget@1@MMMM@Z 
??0WaveformControllerFunction@Ogre@@QEAA@AEBV01@@Z 
??0WaveformControllerFunction@Ogre@@QEAA@W4WaveformType@1@MMMM_NM@Z 
??0WindowEventListener@Ogre@@QEAA@AEBV01@@Z 
??0WindowEventListener@Ogre@@QEAA@XZ 
??0WireBoundingBox@Ogre@@QEAA@AEBV01@@Z 
??0WireBoundingBox@Ogre@@QEAA@IPEAVObjectMemoryManager@1@@Z 
??0WorkQueue@Ogre@@QEAA@XZ 
??0WorkerFunc@DefaultWorkQueueBase@Ogre@@QEAA@PEAV12@@Z 
??0ZipArchive@Ogre@@QEAA@AEBV?$basic_string@DU?$char_traits@D@std@@V?$allocator@D@2@@std@@0PEAT_zzip_plugin_io@@@Z 
??0_Mutex@std@@QEAA@W4_Uninitialized@1@@Z 
??0_base_iterator@UTFString@Ogre@@IEAA@XZ 
??0_const_fwd_iterator@UTFString@Ogre@@QEAA@AEBV012@@Z 
??0_const_fwd_iterator@UTFString@Ogre@@QEAA@AEBV_fwd_iterator@12@@Z 
??0_const_fwd_iterator@UTFString@Ogre@@QEAA@XZ 
??0_const_rev_iterator@UTFString@Ogre@@QEAA@AEBV012@@Z 
??0_const_rev_iterator@UTFString@Ogre@@QEAA@AEBV_rev_iterator@12@@Z 
??0_const_rev_iterator@UTFString@Ogre@@QEAA@XZ 
??0_fwd_iterator@UTFString@Ogre@@QEAA@AEBV012@@Z 
??0_fwd_iterator@UTFString@Ogre@@QEAA@XZ 
??0_rev_iterator@UTFString@Ogre@@QEAA@AEBV012@@Z 
??0_rev_iterator@UTFString@Ogre@@QEAA@XZ 
??0invalid_data@UTFString@Ogre@@QEAA@AEBV012@@Z 
??0invalid_data@UTFString@Ogre@@QEAA@AEBV?$basic_string@DU?$char_traits@D@std@@V?$allocator@D@2@@std@@@Z 
??1?$AllocatedObject@V?$CategorisedAlignAllocPolicy@$02$0A@@Ogre@@@Ogre@@QEAA@XZ 
??1?$AllocatedObject@V?$CategorisedAllocPolicy@$00@Ogre@@@Ogre@@QEAA@XZ 
??1?$AllocatedObject@V?$CategorisedAllocPolicy@$01@Ogre@@@Ogre@@QEAA@XZ 
??1?$AllocatedObject@V?$CategorisedAllocPolicy@$02@Ogre@@@Ogre@@QEAA@XZ 
??1?$AllocatedObject@V?$CategorisedAllocPolicy@$03@Ogre@@@Ogre@@QEAA@XZ 
??1?$AllocatedObject@V?$CategorisedAllocPolicy@$04@Ogre@@@Ogre@@QEAA@XZ 
??1?$AllocatedObject@V?$CategorisedAllocPolicy@$05@Ogre@@@Ogre@@QEAA@XZ 
??1?$AllocatedObject@V?$CategorisedAllocPolicy@$06@Ogre@@@Ogre@@QEAA@XZ 
??1?$AllocatedObject@V?$CategorisedAllocPolicy@$0A@@Ogre@@@Ogre@@QEAA@XZ 
??1?$ControllerFunction@M@Ogre@@UEAA@XZ 
??1?$ControllerValue@M@Ogre@@UEAA@XZ 
??1?$FactoryObj@VArchive@Ogre@@@Ogre@@UEAA@XZ 
??1?$FactoryObj@VParticleSystemRenderer@Ogre@@@Ogre@@UEAA@XZ 
??1?$Pool@V?$SharedPtr@VResource@Ogre@@@Ogre@@@Ogre@@UEAA@XZ 
??1?$SharedPtr@VHardwareCounterBuffer@Ogre@@@Ogre@@QEAA@XZ 
??1?$SharedPtr@VHardwareIndexBuffer@Ogre@@@Ogre@@QEAA@XZ 
??1?$SharedPtr@VHardwarePixelBuffer@Ogre@@@Ogre@@QEAA@XZ 
??1?$SharedPtr@VHardwareUniformBuffer@Ogre@@@Ogre@@QEAA@XZ 
??1?$SharedPtr@VHardwareVertexBuffer@Ogre@@@Ogre@@QEAA@XZ 
??1?$Singleton@VAbsolutePixelCountLodStrategy@Ogre@@@Ogre@@QEAA@XZ 
??1?$Singleton@VArchiveManager@Ogre@@@Ogre@@QEAA@XZ 
??1?$Singleton@VControllerManager@Ogre@@@Ogre@@QEAA@XZ 
??1?$Singleton@VDistanceLodBoxStrategy@Ogre@@@Ogre@@QEAA@XZ 
??1?$Singleton@VDistanceLodSphereStrategy@Ogre@@@Ogre@@QEAA@XZ 
??1?$Singleton@VDynLibManager@Ogre@@@Ogre@@QEAA@XZ 
??1?$Singleton@VExternalTextureSourceManager@Ogre@@@Ogre@@QEAA@XZ 
??1?$Singleton@VGpuProgramManager@Ogre@@@Ogre@@QEAA@XZ 
??1?$Singleton@VHardwareBufferManager@Ogre@@@Ogre@@QEAA@XZ 
??1?$Singleton@VHighLevelGpuProgramManager@Ogre@@@Ogre@@QEAA@XZ 
??1?$Singleton@VLodStrategyManager@Ogre@@@Ogre@@QEAA@XZ 
??1?$Singleton@VLogManager@Ogre@@@Ogre@@QEAA@XZ 
??1?$Singleton@VMaterialManager@Ogre@@@Ogre@@QEAA@XZ 
??1?$Singleton@VMeshManager@Ogre@@@Ogre@@QEAA@XZ 
??1?$Singleton@VOldSkeletonManager@Ogre@@@Ogre@@QEAA@XZ 
??1?$Singleton@VParticleSystemManager@Ogre@@@Ogre@@QEAA@XZ 
??1?$Singleton@VProfiler@Ogre@@@Ogre@@QEAA@XZ 
??1?$Singleton@VRenderSystemCapabilitiesManager@Ogre@@@Ogre@@QEAA@XZ 
??1?$Singleton@VResourceBackgroundQueue@Ogre@@@Ogre@@QEAA@XZ 
??1?$Singleton@VResourceGroupManager@Ogre@@@Ogre@@QEAA@XZ 
??1?$Singleton@VRoot@Ogre@@@Ogre@@QEAA@XZ 
??1?$Singleton@VSceneManagerEnumerator@Ogre@@@Ogre@@QEAA@XZ 
??1?$Singleton@VScreenRatioPixelCountLodStrategy@Ogre@@@Ogre@@QEAA@XZ 
??1?$Singleton@VScriptCompilerManager@Ogre@@@Ogre@@QEAA@XZ 
??1?$Singleton@VShadowTextureManager@Ogre@@@Ogre@@QEAA@XZ 
??1?$Singleton@VSkeletonManager@Ogre@@@Ogre@@QEAA@XZ 
??1?$Singleton@VTextureManager@Ogre@@@Ogre@@QEAA@XZ 
??1AbsolutePixelCountLodStrategy@Ogre@@UEAA@XZ 
??1AbstractNode@Ogre@@UEAA@XZ 
??1AnimableObject@Ogre@@UEAA@XZ 
??1AnimableValue@Ogre@@UEAA@XZ 
??1Animation@Ogre@@UEAA@XZ 
??1AnimationContainer@Ogre@@UEAA@XZ 
??1AnimationControllerFunction@Ogre@@UEAA@XZ 
??1AnimationNameIDMapper@Ogre@@QEAA@XZ 
??1AnimationState@Ogre@@UEAA@XZ 
??1AnimationStateControllerValue@Ogre@@UEAA@XZ 
??1AnimationStateSet@Ogre@@QEAA@XZ 
??1AnimationTrack@Ogre@@UEAA@XZ 
??1Archive@Ogre@@UEAA@XZ 
??1ArchiveFactory@Ogre@@UEAA@XZ 
??1ArchiveManager@Ogre@@UEAA@XZ 
??1ArrayMemoryManager@Ogre@@QEAA@XZ 
??1AtomAbstractNode@Ogre@@UEAA@XZ 
??1AutoParamDataSource@Ogre@@UEAA@XZ 
??1AxisAlignedBox@Ogre@@QEAA@XZ 
??1AxisAlignedBoxSceneQuery@Ogre@@UEAA@XZ 
??1Barrier@Ogre@@QEAA@XZ 
??1BaseInstanceBatchVTF@Ogre@@UEAA@XZ 
??1Billboard@Ogre@@QEAA@XZ 
??1BillboardChain@Ogre@@UEAA@XZ 
??1BillboardChainFactory@Ogre@@UEAA@XZ 
??1BillboardParticleRenderer@Ogre@@UEAA@XZ 
??1BillboardParticleRendererFactory@Ogre@@UEAA@XZ 
??1BillboardSet@Ogre@@UEAA@XZ 
??1BillboardSetFactory@Ogre@@UEAA@XZ 
??1Bone@Ogre@@UEAA@XZ 
??1BoneArrayMemoryManager@Ogre@@QEAA@XZ 
??1BoneMemoryManager@Ogre@@UEAA@XZ 
??1BuiltinScriptTranslatorManager@Ogre@@UEAA@XZ 
??1Camera@Ogre@@UEAA@XZ 
??1CmdAdjacency@GpuProgram@Ogre@@UEAA@XZ 
??1CmdAngle@EmitterCommands@Ogre@@UEAA@XZ 
??1CmdColour@EmitterCommands@Ogre@@UEAA@XZ 
??1CmdColourRangeEnd@EmitterCommands@Ogre@@UEAA@XZ 
??1CmdColourRangeStart@EmitterCommands@Ogre@@UEAA@XZ 
??1CmdComputeGroupDims@GpuProgram@Ogre@@UEAA@XZ 
??1CmdDirPositionRef@EmitterCommands@Ogre@@UEAA@XZ 
??1CmdDirection@EmitterCommands@Ogre@@UEAA@XZ 
??1CmdDuration@EmitterCommands@Ogre@@UEAA@XZ 
??1CmdEmissionRate@EmitterCommands@Ogre@@UEAA@XZ 
??1CmdEmittedEmitter@EmitterCommands@Ogre@@UEAA@XZ 
??1CmdManualNamedConstsFile@GpuProgram@Ogre@@UEAA@XZ 
??1CmdMaxDuration@EmitterCommands@Ogre@@UEAA@XZ 
??1CmdMaxRepeatDelay@EmitterCommands@Ogre@@UEAA@XZ 
??1CmdMaxTTL@EmitterCommands@Ogre@@UEAA@XZ 
??1CmdMaxVelocity@EmitterCommands@Ogre@@UEAA@XZ 
??1CmdMinDuration@EmitterCommands@Ogre@@UEAA@XZ 
??1CmdMinRepeatDelay@EmitterCommands@Ogre@@UEAA@XZ 
??1CmdMinTTL@EmitterCommands@Ogre@@UEAA@XZ 
??1CmdMinVelocity@EmitterCommands@Ogre@@UEAA@XZ 
??1CmdMorph@GpuProgram@Ogre@@UEAA@XZ 
??1CmdName@EmitterCommands@Ogre@@UEAA@XZ 
??1CmdPose@GpuProgram@Ogre@@UEAA@XZ 
??1CmdPosition@EmitterCommands@Ogre@@UEAA@XZ 
??1CmdRepeatDelay@EmitterCommands@Ogre@@UEAA@XZ 
??1CmdSkeletal@GpuProgram@Ogre@@UEAA@XZ 
??1CmdSyntax@GpuProgram@Ogre@@UEAA@XZ 
??1CmdTTL@EmitterCommands@Ogre@@UEAA@XZ 
??1CmdType@GpuProgram@Ogre@@UEAA@XZ 
??1CmdUp@EmitterCommands@Ogre@@UEAA@XZ 
??1CmdVTF@GpuProgram@Ogre@@UEAA@XZ 
??1CmdVelocity@EmitterCommands@Ogre@@UEAA@XZ 
??1Codec@Ogre@@UEAA@XZ 
??1CompositorManager2@Ogre@@QEAA@XZ 
??1CompositorNode@Ogre@@UEAA@XZ 
??1CompositorNodeDef@Ogre@@UEAA@XZ 
??1CompositorNodeTranslator@Ogre@@UEAA@XZ 
??1CompositorPass@Ogre@@UEAA@XZ 
??1CompositorPassClear@Ogre@@UEAA@XZ 
??1CompositorPassClearDef@Ogre@@UEAA@XZ 
??1CompositorPassDef@Ogre@@UEAA@XZ 
??1CompositorPassProvider@Ogre@@QEAA@XZ 
??1CompositorPassQuad@Ogre@@UEAA@XZ 
??1CompositorPassQuadDef@Ogre@@UEAA@XZ 
??1CompositorPassScene@Ogre@@UEAA@XZ 
??1CompositorPassSceneDef@Ogre@@UEAA@XZ 
??1CompositorPassStencil@Ogre@@UEAA@XZ 
??1CompositorPassStencilDef@Ogre@@UEAA@XZ 
??1CompositorPassTranslator@Ogre@@UEAA@XZ 
??1CompositorShadowMapTargetTranslator@Ogre@@UEAA@XZ 
??1CompositorShadowNode@Ogre@@UEAA@XZ 
??1CompositorShadowNodeDef@Ogre@@UEAA@XZ 
??1CompositorShadowNodeTranslator@Ogre@@UEAA@XZ 
??1CompositorTargetDef@Ogre@@QEAA@XZ 
??1CompositorTargetTranslator@Ogre@@UEAA@XZ 
??1CompositorTextureBaseTranslator@Ogre@@UEAA@XZ 
??1CompositorWorkspace@Ogre@@UEAA@XZ 
??1CompositorWorkspaceDef@Ogre@@UEAA@XZ 
??1CompositorWorkspaceTranslator@Ogre@@UEAA@XZ 
??1ConfigDialog@Ogre@@QEAA@XZ 
??1ConfigFile@Ogre@@UEAA@XZ 
??1ControllerManager@Ogre@@QEAA@XZ 
??1ConvexBody@Ogre@@QEAA@XZ 
??1CreateCompositorScriptCompilerEvent@Ogre@@UEAA@XZ 
??1CreateGpuProgramScriptCompilerEvent@Ogre@@UEAA@XZ 
??1CreateGpuSharedParametersScriptCompilerEvent@Ogre@@UEAA@XZ 
??1CreateHighLevelGpuProgramScriptCompilerEvent@Ogre@@UEAA@XZ 
??1CreateMaterialScriptCompilerEvent@Ogre@@UEAA@XZ 
??1CreateParticleSystemScriptCompilerEvent@Ogre@@UEAA@XZ 
??1DDSCodec@Ogre@@UEAA@XZ 
??1DataStream@Ogre@@UEAA@XZ 
??1DefaultAxisAlignedBoxSceneQuery@Ogre@@UEAA@XZ 
??1DefaultHardwareBufferManager@Ogre@@UEAA@XZ 
??1DefaultHardwareBufferManagerBase@Ogre@@UEAA@XZ 
??1DefaultHardwareCounterBuffer@Ogre@@UEAA@XZ 
??1DefaultHardwareIndexBuffer@Ogre@@UEAA@XZ 
??1DefaultHardwareUniformBuffer@Ogre@@UEAA@XZ 
??1DefaultHardwareVertexBuffer@Ogre@@UEAA@XZ 
??1DefaultIntersectionSceneQuery@Ogre@@UEAA@XZ 
??1DefaultPlaneBoundedVolumeListSceneQuery@Ogre@@UEAA@XZ 
??1DefaultRaySceneQuery@Ogre@@UEAA@XZ 
??1DefaultSceneManager@Ogre@@UEAA@XZ 
??1DefaultSceneManagerFactory@Ogre@@UEAA@XZ 
??1DefaultShadowCameraSetup@Ogre@@UEAA@XZ 
??1DefaultSphereSceneQuery@Ogre@@UEAA@XZ 
??1DefaultWorkQueue@Ogre@@UEAA@XZ 
??1DefaultWorkQueueBase@Ogre@@UEAA@XZ 
??1DeflateStream@Ogre@@UEAA@XZ 
??1DepthBuffer@Ogre@@UEAA@XZ 
??1DistanceLodBoxStrategy@Ogre@@UEAA@XZ 
??1DistanceLodSphereStrategy@Ogre@@UEAA@XZ 
??1DistanceLodStrategyBase@Ogre@@UEAA@XZ 
??1DynLib@Ogre@@QEAA@XZ 
??1DynLibManager@Ogre@@UEAA@XZ 
??1EdgeData@Ogre@@QEAA@XZ 
??1EdgeListBuilder@Ogre@@UEAA@XZ 
??1EmbeddedZipArchiveFactory@Ogre@@UEAA@XZ 
??1Entity@Ogre@@UEAA@XZ 
??1EntityFactory@Ogre@@UEAA@XZ 
??1ErrorDialog@Ogre@@QEAA@XZ 
??1Exception@Ogre@@UEAA@XZ 
??1ExternalTextureSource@Ogre@@UEAA@XZ 
??1ExternalTextureSourceManager@Ogre@@QEAA@XZ 
??1FileHandleDataStream@Ogre@@UEAA@XZ 
??1FileNotFoundException@Ogre@@UEAA@XZ 
??1FileStreamDataStream@Ogre@@UEAA@XZ 
??1FileSystemArchive@Ogre@@UEAA@XZ 
??1FileSystemArchiveFactory@Ogre@@UEAA@XZ 
??1FileSystemLayer@Ogre@@QEAA@XZ 
??1FloatGpuParameterControllerValue@Ogre@@UEAA@XZ 
??1FocusedShadowCameraSetup@Ogre@@UEAA@XZ 
??1FrameListener@Ogre@@UEAA@XZ 
??1FrameStats@Ogre@@QEAA@XZ 
??1FrameTimeControllerValue@Ogre@@UEAA@XZ 
??1FreeImageCodec@Ogre@@UEAA@XZ 
??1Frustum@Ogre@@UEAA@XZ 
??1GeometryBucket@StaticGeometry@Ogre@@UEAA@XZ 
??1GpuLogicalBufferStruct@Ogre@@QEAA@XZ 
??1GpuNamedConstants@Ogre@@QEAA@XZ 
??1GpuNamedConstantsSerializer@Ogre@@UEAA@XZ 
??1GpuProgram@Ogre@@UEAA@XZ 
??1GpuProgramManager@Ogre@@UEAA@XZ 
??1GpuProgramParameters@Ogre@@QEAA@XZ 
??1GpuProgramTranslator@Ogre@@UEAA@XZ 
??1GpuProgramUsage@Ogre@@UEAA@XZ 
??1GpuSharedParameters@Ogre@@UEAA@XZ 
??1GpuSharedParametersUsage@Ogre@@QEAA@XZ 
??1HardwareBuffer@Ogre@@UEAA@XZ 
??1HardwareBufferLicensee@Ogre@@UEAA@XZ 
??1HardwareBufferManager@Ogre@@UEAA@XZ 
??1HardwareBufferManagerBase@Ogre@@UEAA@XZ 
??1HardwareCounterBuffer@Ogre@@UEAA@XZ 
??1HardwareCounterBufferSharedPtr@Ogre@@QEAA@XZ 
??1HardwareIndexBuffer@Ogre@@UEAA@XZ 
??1HardwareIndexBufferSharedPtr@Ogre@@QEAA@XZ 
??1HardwareOcclusionQuery@Ogre@@UEAA@XZ 
??1HardwarePixelBuffer@Ogre@@UEAA@XZ 
??1HardwarePixelBufferSharedPtr@Ogre@@QEAA@XZ 
??1HardwareUniformBuffer@Ogre@@UEAA@XZ 
??1HardwareUniformBufferSharedPtr@Ogre@@QEAA@XZ 
??1HardwareVertexBuffer@Ogre@@UEAA@XZ 
??1HardwareVertexBufferSharedPtr@Ogre@@QEAA@XZ 
??1HighLevelGpuProgram@Ogre@@UEAA@XZ 
??1HighLevelGpuProgramFactory@Ogre@@UEAA@XZ 
??1HighLevelGpuProgramManager@Ogre@@UEAA@XZ 
??1Hlms@Ogre@@UEAA@XZ 
??1IOException@Ogre@@UEAA@XZ 
??1Image@Ogre@@UEAA@XZ 
??1ImageCodec@Ogre@@UEAA@XZ 
??1ImportAbstractNode@Ogre@@UEAA@XZ 
??1IndexData@Ogre@@QEAA@XZ 
??1InstanceBatch@Ogre@@UEAA@XZ 
??1InstanceBatchHW@Ogre@@UEAA@XZ 
??1InstanceBatchHW_VTF@Ogre@@UEAA@XZ 
??1InstanceBatchShader@Ogre@@UEAA@XZ 
??1InstanceBatchVTF@Ogre@@UEAA@XZ 
??1InstanceManager@Ogre@@UEAA@XZ 
??1InstancedEntity@Ogre@@UEAA@XZ 
??1InternalErrorException@Ogre@@UEAA@XZ 
??1IntersectionSceneQuery@Ogre@@UEAA@XZ 
??1IntersectionSceneQueryListener@Ogre@@UEAA@XZ 
??1IntersectionSceneQueryResult@Ogre@@QEAA@XZ 
??1InvalidCallException@Ogre@@UEAA@XZ 
??1InvalidParametersException@Ogre@@UEAA@XZ 
??1InvalidStateException@Ogre@@UEAA@XZ 
??1ItemIdentityException@Ogre@@UEAA@XZ 
??1KeyFrame@Ogre@@UEAA@XZ 
??1KfTransformArrayMemoryManager@Ogre@@UEAA@XZ 
??1LODBucket@StaticGeometry@Ogre@@UEAA@XZ 
??1Light@Ogre@@UEAA@XZ 
??1LightFactory@Ogre@@UEAA@XZ 
??1LightweightMutex@Ogre@@QEAA@XZ 
??1LinearControllerFunction@Ogre@@UEAA@XZ 
??1Listener@AnimationTrack@Ogre@@UEAA@XZ 
??1Listener@Camera@Ogre@@UEAA@XZ 
??1Listener@MovableObject@Ogre@@UEAA@XZ 
??1Listener@Node@Ogre@@UEAA@XZ 
??1Listener@OldNode@Ogre@@UEAA@XZ 
??1Listener@RenderSystem@Ogre@@UEAA@XZ 
??1Listener@ResourceBackgroundQueue@Ogre@@UEAA@XZ 
??1LodListener@Ogre@@UEAA@XZ 
??1LodStrategy@Ogre@@UEAA@XZ 
??1LodStrategyManager@Ogre@@QEAA@XZ 
??1Log@Ogre@@QEAA@XZ 
??1LogManager@Ogre@@QEAA@XZ 
??1ManualObject@Ogre@@UEAA@XZ 
??1ManualObjectFactory@Ogre@@UEAA@XZ 
??1ManualObjectSection@ManualObject@Ogre@@UEAA@XZ 
??1ManualResourceLoader@Ogre@@UEAA@XZ 
??1Material@Ogre@@UEAA@XZ 
??1MaterialBucket@StaticGeometry@Ogre@@UEAA@XZ 
??1MaterialManager@Ogre@@UEAA@XZ 
??1MaterialSerializer@Ogre@@UEAA@XZ 
??1MaterialTranslator@Ogre@@UEAA@XZ 
??1Math@Ogre@@QEAA@XZ 
??1MemoryDataStream@Ogre@@UEAA@XZ 
??1Mesh@Ogre@@UEAA@XZ 
??1MeshManager@Ogre@@UEAA@XZ 
??1MeshSerializer@Ogre@@UEAA@XZ 
??1MovableObject@Ogre@@UEAA@XZ 
??1MovableObjectFactory@Ogre@@UEAA@XZ 
??1MovablePlane@Ogre@@UEAA@XZ 
??1MultiRenderTarget@Ogre@@UEAA@XZ 
??1NameGenerator@Ogre@@QEAA@XZ 
??1Node@Ogre@@UEAA@XZ 
??1NodeAnimationTrack@Ogre@@UEAA@XZ 
??1NodeArrayMemoryManager@Ogre@@QEAA@XZ 
??1NullEntity@Ogre@@UEAA@XZ 
??1NumericAnimationTrack@Ogre@@UEAA@XZ 
??1NumericKeyFrame@Ogre@@UEAA@XZ 
??1ObjectAbstractNode@Ogre@@UEAA@XZ 
??1ObjectDataArrayMemoryManager@Ogre@@QEAA@XZ 
??1ObjectMemoryManager@Ogre@@UEAA@XZ 
??1OldBone@Ogre@@UEAA@XZ 
??1OldNode@Ogre@@UEAA@XZ 
??1OldNodeAnimationTrack@Ogre@@UEAA@XZ 
??1OldSkeletonInstance@Ogre@@UEAA@XZ 
??1OldSkeletonManager@Ogre@@UEAA@XZ 
??1OptimisedUtil@Ogre@@UEAA@XZ 
??1PSSMShadowCameraSetup@Ogre@@UEAA@XZ 
??1ParamCommand@Ogre@@UEAA@XZ 
??1ParamDictionary@Ogre@@QEAA@XZ 
??1ParameterDef@Ogre@@QEAA@XZ 
??1Particle@Ogre@@QEAA@XZ 
??1ParticleAffector@Ogre@@UEAA@XZ 
??1ParticleAffectorFactory@Ogre@@UEAA@XZ 
??1ParticleAffectorTranslator@Ogre@@UEAA@XZ 
??1ParticleEmitter@Ogre@@UEAA@XZ 
??1ParticleEmitterFactory@Ogre@@UEAA@XZ 
??1ParticleEmitterTranslator@Ogre@@UEAA@XZ 
??1ParticleSystem@Ogre@@UEAA@XZ 
??1ParticleSystemFactory@Ogre@@UEAA@XZ 
??1ParticleSystemManager@Ogre@@UEAA@XZ 
??1ParticleSystemRenderer@Ogre@@UEAA@XZ 
??1ParticleSystemRendererFactory@Ogre@@UEAA@XZ 
??1ParticleSystemTranslator@Ogre@@UEAA@XZ 
??1ParticleVisualData@Ogre@@UEAA@XZ 
??1Pass@Ogre@@UEAA@XZ 
??1PassTranslator@Ogre@@UEAA@XZ 
??1PassthroughControllerFunction@Ogre@@UEAA@XZ 
??1PatchMesh@Ogre@@UEAA@XZ 
??1PatchSurface@Ogre@@QEAA@XZ 
??1PixelBox@Ogre@@QEAA@XZ 
??1PixelCountLodStrategyBase@Ogre@@UEAA@XZ 
??1PlaneBoundedVolume@Ogre@@QEAA@XZ 
??1PlaneBoundedVolumeListSceneQuery@Ogre@@UEAA@XZ 
??1PlaneOptimalShadowCameraSetup@Ogre@@UEAA@XZ 
??1Plugin@Ogre@@UEAA@XZ 
??1Polygon@Ogre@@QEAA@XZ 
??1Pose@Ogre@@UEAA@XZ 
??1PreApplyTextureAliasesScriptCompilerEvent@Ogre@@UEAA@XZ 
??1ProcessNameExclusionScriptCompilerEvent@Ogre@@UEAA@XZ 
??1ProcessResourceNameScriptCompilerEvent@Ogre@@UEAA@XZ 
??1Profile@Ogre@@QEAA@XZ 
??1ProfileSessionListener@Ogre@@UEAA@XZ 
??1Profiler@Ogre@@QEAA@XZ 
??1PropertyAbstractNode@Ogre@@UEAA@XZ 
??1QueuedRenderableCollection@Ogre@@QEAA@XZ 
??1QueuedRenderableVisitor@Ogre@@UEAA@XZ 
??1RaySceneQuery@Ogre@@UEAA@XZ 
??1RaySceneQueryListener@Ogre@@UEAA@XZ 
??1Rectangle2D@Ogre@@UEAA@XZ 
??1Region@StaticGeometry@Ogre@@UEAA@XZ 
??1RegionSceneQuery@Ogre@@UEAA@XZ 
??1RenderObjectListener@Ogre@@UEAA@XZ 
??1RenderPriorityGroup@Ogre@@QEAA@XZ 
??1RenderQueue@Ogre@@UEAA@XZ 
??1RenderQueueGroup@Ogre@@QEAA@XZ 
??1RenderQueueInvocation@Ogre@@UEAA@XZ 
??1RenderQueueInvocationSequence@Ogre@@UEAA@XZ 
??1RenderQueueListener@Ogre@@UEAA@XZ 
??1RenderSystem@Ogre@@UEAA@XZ 
??1RenderSystemCapabilities@Ogre@@UEAA@XZ 
??1RenderSystemCapabilitiesManager@Ogre@@UEAA@XZ 
??1RenderSystemCapabilitiesSerializer@Ogre@@UEAA@XZ 
??1RenderTarget@Ogre@@UEAA@XZ 
??1RenderTargetListener@Ogre@@UEAA@XZ 
??1RenderTexture@Ogre@@UEAA@XZ 
??1RenderToVertexBuffer@Ogre@@UEAA@XZ 
??1RenderWindow@Ogre@@UEAA@XZ 
??1Renderable@Ogre@@UEAA@XZ 
??1RenderableListener@RenderQueue@Ogre@@UEAA@XZ 
??1RenderingAPIException@Ogre@@UEAA@XZ 
??1Request@WorkQueue@Ogre@@QEAA@XZ 
??1RequestHandler@WorkQueue@Ogre@@UEAA@XZ 
??1RequestHandlerHolder@DefaultWorkQueueBase@Ogre@@QEAA@XZ 
??1Resource@Ogre@@UEAA@XZ 
??1ResourceBackgroundQueue@Ogre@@UEAA@XZ 
??1ResourceGroupListener@Ogre@@UEAA@XZ 
??1ResourceGroupManager@Ogre@@UEAA@XZ 
??1ResourceManager@Ogre@@UEAA@XZ 
??1ResourcePool@ResourceManager@Ogre@@UEAA@XZ 
??1Response@WorkQueue@Ogre@@QEAA@XZ 
??1ResponseHandler@WorkQueue@Ogre@@UEAA@XZ 
??1RibbonTrail@Ogre@@UEAA@XZ 
??1RibbonTrailFactory@Ogre@@UEAA@XZ 
??1Root@Ogre@@QEAA@XZ 
??1RotationalSpline@Ogre@@QEAA@XZ 
??1RuntimeAssertionException@Ogre@@UEAA@XZ 
??1ScaleControllerFunction@Ogre@@UEAA@XZ 
??1SceneManager@Ogre@@UEAA@XZ 
??1SceneManagerEnumerator@Ogre@@QEAA@XZ 
??1SceneManagerFactory@Ogre@@UEAA@XZ 
??1SceneMgrQueuedRenderableVisitor@SceneManager@Ogre@@UEAA@XZ 
??1SceneNode@Ogre@@UEAA@XZ 
??1SceneQuery@Ogre@@UEAA@XZ 
??1SceneQueryListener@Ogre@@UEAA@XZ 
??1SceneQueryResult@Ogre@@QEAA@XZ 
??1ScreenRatioPixelCountLodStrategy@Ogre@@UEAA@XZ 
??1ScriptCompiler@Ogre@@UEAA@XZ 
??1ScriptCompilerListener@Ogre@@UEAA@XZ 
??1ScriptCompilerManager@Ogre@@UEAA@XZ 
??1ScriptLexer@Ogre@@UEAA@XZ 
??1ScriptLoader@Ogre@@UEAA@XZ 
??1ScriptParser@Ogre@@UEAA@XZ 
??1ScriptTranslator@Ogre@@MEAA@XZ 
??1Serializer@Ogre@@UEAA@XZ 
??1ShadowCameraSetup@Ogre@@UEAA@XZ 
??1ShadowTextureManager@Ogre@@UEAA@XZ 
??1ShadowVolumeExtrudeProgram@Ogre@@QEAA@XZ 
??1SharedParamsTranslator@Ogre@@UEAA@XZ 
??1SimpleRenderable@Ogre@@UEAA@XZ 
??1SimpleSpline@Ogre@@QEAA@XZ 
??1Skeleton@Ogre@@UEAA@XZ 
??1SkeletonAnimation@Ogre@@QEAA@XZ 
??1SkeletonAnimationDef@Ogre@@QEAA@XZ 
??1SkeletonDef@Ogre@@QEAA@XZ 
??1SkeletonInstance@Ogre@@QEAA@XZ 
??1SkeletonManager@Ogre@@QEAA@XZ 
??1SkeletonSerializer@Ogre@@UEAA@XZ 
??1SkeletonTrack@Ogre@@QEAA@XZ 
??1SphereSceneQuery@Ogre@@UEAA@XZ 
??1StaticGeometry@Ogre@@UEAA@XZ 
??1StreamSerialiser@Ogre@@UEAA@XZ 
??1StringInterface@Ogre@@UEAA@XZ 
??1SubEntity@Ogre@@UEAA@XZ 
??1SubMesh@Ogre@@QEAA@XZ 
??1TagPoint@Ogre@@UEAA@XZ 
??1TangentSpaceCalc@Ogre@@UEAA@XZ 
??1Technique@Ogre@@QEAA@XZ 
??1TechniqueTranslator@Ogre@@UEAA@XZ 
??1TempBlendedBufferInfo@Ogre@@UEAA@XZ 
??1TexCoordModifierControllerValue@Ogre@@UEAA@XZ 
??1Texture@Ogre@@UEAA@XZ 
??1TextureDefinition@TextureDefinitionBase@Ogre@@QEAA@XZ 
??1TextureDefinitionBase@Ogre@@QEAA@XZ 
??1TextureFrameControllerValue@Ogre@@UEAA@XZ 
??1TextureManager@Ogre@@UEAA@XZ 
??1TextureSourceTranslator@Ogre@@UEAA@XZ 
??1TextureUnitState@Ogre@@QEAA@XZ 
??1TextureUnitTranslator@Ogre@@UEAA@XZ 
??1ThreadHandle@Ogre@@QEAA@XZ 
??1Timer@Ogre@@QEAA@XZ 
??1TransformKeyFrame@Ogre@@UEAA@XZ 
??1UTFString@Ogre@@QEAA@XZ 
??1UnifiedHighLevelGpuProgram@Ogre@@UEAA@XZ 
??1UnimplementedException@Ogre@@UEAA@XZ 
??1UserObjectBindings@Ogre@@UEAA@XZ 
??1VariableAccessAbstractNode@Ogre@@UEAA@XZ 
??1VertexAnimationTrack@Ogre@@UEAA@XZ 
??1VertexBufferBinding@Ogre@@UEAA@XZ 
??1VertexCacheProfiler@Ogre@@QEAA@XZ 
??1VertexData@Ogre@@QEAA@XZ 
??1VertexDeclaration@Ogre@@UEAA@XZ 
??1VertexElement@Ogre@@QEAA@XZ 
??1VertexMorphKeyFrame@Ogre@@UEAA@XZ 
??1VertexPoseKeyFrame@Ogre@@UEAA@XZ 
??1Viewport@Ogre@@UEAA@XZ 
??1WaveformControllerFunction@Ogre@@UEAA@XZ 
??1WindowEventListener@Ogre@@UEAA@XZ 
??1WireBoundingBox@Ogre@@UEAA@XZ 
??1WorkQueue@Ogre@@UEAA@XZ 
??1ZipArchive@Ogre@@UEAA@XZ 
??1invalid_data@UTFString@Ogre@@UEAA@XZ 
??2?$AllocatedObject@V?$CategorisedAlignAllocPolicy@$02$0A@@Ogre@@@Ogre@@SAPEAX_K@Z 
??2?$AllocatedObject@V?$CategorisedAllocPolicy@$00@Ogre@@@Ogre@@SAPEAX_K@Z 
??2?$AllocatedObject@V?$CategorisedAllocPolicy@$00@Ogre@@@Ogre@@SAPEAX_KPEAX@Z 
??2?$AllocatedObject@V?$CategorisedAllocPolicy@$00@Ogre@@@Ogre@@SAPEAX_KPEBDH1@Z 
??2?$AllocatedObject@V?$CategorisedAllocPolicy@$01@Ogre@@@Ogre@@SAPEAX_K@Z 
??2?$AllocatedObject@V?$CategorisedAllocPolicy@$01@Ogre@@@Ogre@@SAPEAX_KPEAX@Z 
??2?$AllocatedObject@V?$CategorisedAllocPolicy@$01@Ogre@@@Ogre@@SAPEAX_KPEBDH1@Z 
??2?$AllocatedObject@V?$CategorisedAllocPolicy@$02@Ogre@@@Ogre@@SAPEAX_K@Z 
??2?$AllocatedObject@V?$CategorisedAllocPolicy@$02@Ogre@@@Ogre@@SAPEAX_KPEAX@Z 
??2?$AllocatedObject@V?$CategorisedAllocPolicy@$02@Ogre@@@Ogre@@SAPEAX_KPEBDH1@Z 
??2?$AllocatedObject@V?$CategorisedAllocPolicy@$03@Ogre@@@Ogre@@SAPEAX_K@Z 
??2?$AllocatedObject@V?$CategorisedAllocPolicy@$03@Ogre@@@Ogre@@SAPEAX_KPEAX@Z 
??2?$AllocatedObject@V?$CategorisedAllocPolicy@$03@Ogre@@@Ogre@@SAPEAX_KPEBDH1@Z 
??2?$AllocatedObject@V?$CategorisedAllocPolicy@$04@Ogre@@@Ogre@@SAPEAX_K@Z 
??2?$AllocatedObject@V?$CategorisedAllocPolicy@$04@Ogre@@@Ogre@@SAPEAX_KPEAX@Z 
??2?$AllocatedObject@V?$CategorisedAllocPolicy@$04@Ogre@@@Ogre@@SAPEAX_KPEBDH1@Z 
??2?$AllocatedObject@V?$CategorisedAllocPolicy@$05@Ogre@@@Ogre@@SAPEAX_K@Z 
??2?$AllocatedObject@V?$CategorisedAllocPolicy@$05@Ogre@@@Ogre@@SAPEAX_KPEAX@Z 
??2?$AllocatedObject@V?$CategorisedAllocPolicy@$05@Ogre@@@Ogre@@SAPEAX_KPEBDH1@Z 
??2?$AllocatedObject@V?$CategorisedAllocPolicy@$06@Ogre@@@Ogre@@SAPEAX_K@Z 
??2?$AllocatedObject@V?$CategorisedAllocPolicy@$06@Ogre@@@Ogre@@SAPEAX_KPEAX@Z 
??2?$AllocatedObject@V?$CategorisedAllocPolicy@$06@Ogre@@@Ogre@@SAPEAX_KPEBDH1@Z 
??2?$AllocatedObject@V?$CategorisedAllocPolicy@$0A@@Ogre@@@Ogre@@SAPEAX_K@Z 
??2?$AllocatedObject@V?$CategorisedAllocPolicy@$0A@@Ogre@@@Ogre@@SAPEAX_KPEAX@Z 
??2?$AllocatedObject@V?$CategorisedAllocPolicy@$0A@@Ogre@@@Ogre@@SAPEAX_KPEBDH1@Z 
??3?$AllocatedObject@V?$CategorisedAlignAllocPolicy@$02$0A@@Ogre@@@Ogre@@SAXPEAX@Z 
??3?$AllocatedObject@V?$CategorisedAllocPolicy@$00@Ogre@@@Ogre@@SAXPEAX0@Z 
??3?$AllocatedObject@V?$CategorisedAllocPolicy@$00@Ogre@@@Ogre@@SAXPEAX@Z 
??3?$AllocatedObject@V?$CategorisedAllocPolicy@$00@Ogre@@@Ogre@@SAXPEAXPEBDH1@Z 
??3?$AllocatedObject@V?$CategorisedAllocPolicy@$01@Ogre@@@Ogre@@SAXPEAX0@Z 
??3?$AllocatedObject@V?$CategorisedAllocPolicy@$01@Ogre@@@Ogre@@SAXPEAX@Z 
??3?$AllocatedObject@V?$CategorisedAllocPolicy@$01@Ogre@@@Ogre@@SAXPEAXPEBDH1@Z 
??3?$AllocatedObject@V?$CategorisedAllocPolicy@$02@Ogre@@@Ogre@@SAXPEAX0@Z 
??3?$AllocatedObject@V?$CategorisedAllocPolicy@$02@Ogre@@@Ogre@@SAXPEAX@Z 
??3?$AllocatedObject@V?$CategorisedAllocPolicy@$02@Ogre@@@Ogre@@SAXPEAXPEBDH1@Z 
??3?$AllocatedObject@V?$CategorisedAllocPolicy@$03@Ogre@@@Ogre@@SAXPEAX0@Z 
??3?$AllocatedObject@V?$CategorisedAllocPolicy@$03@Ogre@@@Ogre@@SAXPEAX@Z 
??3?$AllocatedObject@V?$CategorisedAllocPolicy@$03@Ogre@@@Ogre@@SAXPEAXPEBDH1@Z 
??3?$AllocatedObject@V?$CategorisedAllocPolicy@$04@Ogre@@@Ogre@@SAXPEAX0@Z 
??3?$AllocatedObject@V?$CategorisedAllocPolicy@$04@Ogre@@@Ogre@@SAXPEAX@Z 
??3?$AllocatedObject@V?$CategorisedAllocPolicy@$04@Ogre@@@Ogre@@SAXPEAXPEBDH1@Z 
??3?$AllocatedObject@V?$CategorisedAllocPolicy@$05@Ogre@@@Ogre@@SAXPEAX0@Z 
??3?$AllocatedObject@V?$CategorisedAllocPolicy@$05@Ogre@@@Ogre@@SAXPEAX@Z 
??3?$AllocatedObject@V?$CategorisedAllocPolicy@$05@Ogre@@@Ogre@@SAXPEAXPEBDH1@Z 
??3?$AllocatedObject@V?$CategorisedAllocPolicy@$06@Ogre@@@Ogre@@SAXPEAX0@Z 
??3?$AllocatedObject@V?$CategorisedAllocPolicy@$06@Ogre@@@Ogre@@SAXPEAX@Z 
??3?$AllocatedObject@V?$CategorisedAllocPolicy@$06@Ogre@@@Ogre@@SAXPEAXPEBDH1@Z 
??3?$AllocatedObject@V?$CategorisedAllocPolicy@$0A@@Ogre@@@Ogre@@SAXPEAX0@Z 
??3?$AllocatedObject@V?$CategorisedAllocPolicy@$0A@@Ogre@@@Ogre@@SAXPEAX@Z 
??3?$AllocatedObject@V?$CategorisedAllocPolicy@$0A@@Ogre@@@Ogre@@SAXPEAXPEBDH1@Z 
??4?$AllocatedObject@V?$CategorisedAlignAllocPolicy@$02$0A@@Ogre@@@Ogre@@QEAAAEAV01@AEBV01@@Z 
??4?$AllocatedObject@V?$CategorisedAllocPolicy@$00@Ogre@@@Ogre@@QEAAAEAV01@AEBV01@@Z 
??4?$AllocatedObject@V?$CategorisedAllocPolicy@$01@Ogre@@@Ogre@@QEAAAEAV01@AEBV01@@Z 
??4?$AllocatedObject@V?$CategorisedAllocPolicy@$02@Ogre@@@Ogre@@QEAAAEAV01@AEBV01@@Z 
??4?$AllocatedObject@V?$CategorisedAllocPolicy@$03@Ogre@@@Ogre@@QEAAAEAV01@AEBV01@@Z 
??4?$AllocatedObject@V?$CategorisedAllocPolicy@$04@Ogre@@@Ogre@@QEAAAEAV01@AEBV01@@Z 
??4?$AllocatedObject@V?$CategorisedAllocPolicy@$05@Ogre@@@Ogre@@QEAAAEAV01@AEBV01@@Z 
??4?$AllocatedObject@V?$CategorisedAllocPolicy@$06@Ogre@@@Ogre@@QEAAAEAV01@AEBV01@@Z 
??4?$AllocatedObject@V?$CategorisedAllocPolicy@$0A@@Ogre@@@Ogre@@QEAAAEAV01@AEBV01@@Z 
??4?$ControllerFunction@M@Ogre@@QEAAAEAV01@AEBV01@@Z 
??4?$ControllerValue@M@Ogre@@QEAAAEAV01@AEBV01@@Z 
??4?$FactoryObj@VArchive@Ogre@@@Ogre@@QEAAAEAV01@AEBV01@@Z 
??4?$FactoryObj@VParticleSystemRenderer@Ogre@@@Ogre@@QEAAAEAV01@AEBV01@@Z 
??4?$SharedPtr@VHardwareCounterBuffer@Ogre@@@Ogre@@QEAAAEAV01@AEBV01@@Z 
??4?$SharedPtr@VHardwareIndexBuffer@Ogre@@@Ogre@@QEAAAEAV01@AEBV01@@Z 
??4?$SharedPtr@VHardwarePixelBuffer@Ogre@@@Ogre@@QEAAAEAV01@AEBV01@@Z 
??4?$SharedPtr@VHardwareUniformBuffer@Ogre@@@Ogre@@QEAAAEAV01@AEBV01@@Z 
??4?$SharedPtr@VHardwareVertexBuffer@Ogre@@@Ogre@@QEAAAEAV01@AEBV01@@Z 
??4?$iterator@Urandom_access_iterator_tag@std@@G_JPEAGAEAG@std@@QEAAAEAU01@AEBU01@@Z 
??4Aabb@Ogre@@QEAAAEAU01@AEBU01@@Z 
??4AbstractNode@Ogre@@QEAAAEAV01@AEBV01@@Z 
??4AlignedMemory@Ogre@@QEAAAEAV01@AEBV01@@Z 
??4AnimableObject@Ogre@@QEAAAEAV01@AEBV01@@Z 
??4AnimableValue@Ogre@@QEAAAEAV01@AEBV01@@Z 
??4Animation@Ogre@@QEAAAEAV01@AEBV01@@Z 
??4AnimationContainer@Ogre@@QEAAAEAV01@AEBV01@@Z 
??4AnimationControllerFunction@Ogre@@QEAAAEAV01@AEBV01@@Z 
??4AnimationNameIDMapper@Ogre@@QEAAAEAV01@AEBV01@@Z 
??4AnimationState@Ogre@@QEAAAEAV01@AEBV01@@Z 
??4AnimationStateControllerValue@Ogre@@QEAAAEAV01@AEBV01@@Z 
??4AnimationTrack@Ogre@@QEAAAEAV01@AEBV01@@Z 
??4Archive@Ogre@@QEAAAEAV01@AEBV01@@Z 
??4ArchiveFactory@Ogre@@QEAAAEAV01@AEBV01@@Z 
??4ArrayAabb@Ogre@@QEAAAEAV01@AEBV01@@Z 
??4ArrayMatrix4@Ogre@@QEAAAEAV01@AEBV01@@Z 
??4ArrayMatrixAf4x3@Ogre@@QEAAAEAV01@AEBV01@@Z 
??4ArrayMemoryManager@Ogre@@QEAAAEAV01@AEBV01@@Z 
??4ArrayQuaternion@Ogre@@QEAAAEAV01@AEBV01@@Z 
??4ArraySphere@Ogre@@QEAAAEAV01@AEBV01@@Z 
??4ArrayVector3@Ogre@@QEAAAEAV01@AEBV01@@Z 
??4ArrayVector3@Ogre@@QEAAAEAV01@M@Z 
??4AtomAbstractNode@Ogre@@QEAAAEAV01@AEBV01@@Z 
??4AxisAlignedBox@Ogre@@QEAAAEAV01@AEBV01@@Z 
??4AxisAlignedBoxSceneQuery@Ogre@@QEAAAEAV01@AEBV01@@Z 
??4Barrier@Ogre@@QEAAAEAV01@AEBV01@@Z 
??4Billboard@Ogre@@QEAAAEAV01@AEBV01@@Z 
??4BillboardChainFactory@Ogre@@QEAAAEAV01@AEBV01@@Z 
??4BillboardParticleRenderer@Ogre@@QEAAAEAV01@AEBV01@@Z 
??4BillboardParticleRendererFactory@Ogre@@QEAAAEAV01@AEBV01@@Z 
??4BillboardSetFactory@Ogre@@QEAAAEAV01@AEBV01@@Z 
??4Bone@Ogre@@QEAAAEAV01@AEBV01@@Z 
??4BoneArrayMemoryManager@Ogre@@QEAAAEAV01@AEBV01@@Z 
??4BoneMemoryManager@Ogre@@QEAAAEAV01@AEBV01@@Z 
??4BuiltinScriptTranslatorManager@Ogre@@QEAAAEAV01@AEBV01@@Z 
??4CmdAdjacency@GpuProgram@Ogre@@QEAAAEAV012@AEBV012@@Z 
??4CmdAngle@EmitterCommands@Ogre@@QEAAAEAV012@AEBV012@@Z 
??4CmdColour@EmitterCommands@Ogre@@QEAAAEAV012@AEBV012@@Z 
??4CmdColourRangeEnd@EmitterCommands@Ogre@@QEAAAEAV012@AEBV012@@Z 
??4CmdColourRangeStart@EmitterCommands@Ogre@@QEAAAEAV012@AEBV012@@Z 
??4CmdComputeGroupDims@GpuProgram@Ogre@@QEAAAEAV012@AEBV012@@Z 
??4CmdDirPositionRef@EmitterCommands@Ogre@@QEAAAEAV012@AEBV012@@Z 
??4CmdDirection@EmitterCommands@Ogre@@QEAAAEAV012@AEBV012@@Z 
??4CmdDuration@EmitterCommands@Ogre@@QEAAAEAV012@AEBV012@@Z 
??4CmdEmissionRate@EmitterCommands@Ogre@@QEAAAEAV012@AEBV012@@Z 
??4CmdEmittedEmitter@EmitterCommands@Ogre@@QEAAAEAV012@AEBV012@@Z 
??4CmdManualNamedConstsFile@GpuProgram@Ogre@@QEAAAEAV012@AEBV012@@Z 
??4CmdMaxDuration@EmitterCommands@Ogre@@QEAAAEAV012@AEBV012@@Z 
??4CmdMaxRepeatDelay@EmitterCommands@Ogre@@QEAAAEAV012@AEBV012@@Z 
??4CmdMaxTTL@EmitterCommands@Ogre@@QEAAAEAV012@AEBV012@@Z 
??4CmdMaxVelocity@EmitterCommands@Ogre@@QEAAAEAV012@AEBV012@@Z 
??4CmdMinDuration@EmitterCommands@Ogre@@QEAAAEAV012@AEBV012@@Z 
??4CmdMinRepeatDelay@EmitterCommands@Ogre@@QEAAAEAV012@AEBV012@@Z 
??4CmdMinTTL@EmitterCommands@Ogre@@QEAAAEAV012@AEBV012@@Z 
??4CmdMinVelocity@EmitterCommands@Ogre@@QEAAAEAV012@AEBV012@@Z 
??4CmdMorph@GpuProgram@Ogre@@QEAAAEAV012@AEBV012@@Z 
??4CmdName@EmitterCommands@Ogre@@QEAAAEAV012@AEBV012@@Z 
??4CmdPose@GpuProgram@Ogre@@QEAAAEAV012@AEBV012@@Z 
??4CmdPosition@EmitterCommands@Ogre@@QEAAAEAV012@AEBV012@@Z 
??4CmdRepeatDelay@EmitterCommands@Ogre@@QEAAAEAV012@AEBV012@@Z 
??4CmdSkeletal@GpuProgram@Ogre@@QEAAAEAV012@AEBV012@@Z 
??4CmdSyntax@GpuProgram@Ogre@@QEAAAEAV012@AEBV012@@Z 
??4CmdTTL@EmitterCommands@Ogre@@QEAAAEAV012@AEBV012@@Z 
??4CmdType@GpuProgram@Ogre@@QEAAAEAV012@AEBV012@@Z 
??4CmdUp@EmitterCommands@Ogre@@QEAAAEAV012@AEBV012@@Z 
??4CmdVTF@GpuProgram@Ogre@@QEAAAEAV012@AEBV012@@Z 
??4CmdVelocity@EmitterCommands@Ogre@@QEAAAEAV012@AEBV012@@Z 
??4Codec@Ogre@@QEAAAEAV01@AEBV01@@Z 
??4ColourValue@Ogre@@QEAAAEAV01@AEBV01@@Z 
??4CompositorManager2@Ogre@@QEAAAEAV01@AEBV01@@Z 
??4CompositorNode@Ogre@@QEAAAEAV01@AEBV01@@Z 
??4CompositorNodeDef@Ogre@@QEAAAEAV01@AEBV01@@Z 
??4CompositorNodeTranslator@Ogre@@QEAAAEAV01@AEBV01@@Z 
??4CompositorPass@Ogre@@QEAAAEAV01@AEBV01@@Z 
??4CompositorPassClear@Ogre@@QEAAAEAV01@AEBV01@@Z 
??4CompositorPassClearDef@Ogre@@QEAAAEAV01@AEBV01@@Z 
??4CompositorPassDef@Ogre@@QEAAAEAV01@AEBV01@@Z 
??4CompositorPassProvider@Ogre@@QEAAAEAV01@AEBV01@@Z 
??4CompositorPassQuad@Ogre@@QEAAAEAV01@AEBV01@@Z 
??4CompositorPassQuadDef@Ogre@@QEAAAEAV01@AEBV01@@Z 
??4CompositorPassScene@Ogre@@QEAAAEAV01@AEBV01@@Z 
??4CompositorPassSceneDef@Ogre@@QEAAAEAV01@AEBV01@@Z 
??4CompositorPassStencil@Ogre@@QEAAAEAV01@AEBV01@@Z 
??4CompositorPassStencilDef@Ogre@@QEAAAEAV01@AEBV01@@Z 
??4CompositorPassTranslator@Ogre@@QEAAAEAV01@AEBV01@@Z 
??4CompositorShadowMapTargetTranslator@Ogre@@QEAAAEAV01@AEBV01@@Z 
??4CompositorShadowNode@Ogre@@QEAAAEAV01@AEBV01@@Z 
??4CompositorShadowNodeDef@Ogre@@QEAAAEAV01@AEBV01@@Z 
??4CompositorShadowNodeTranslator@Ogre@@QEAAAEAV01@AEBV01@@Z 
??4CompositorTargetDef@Ogre@@QEAAAEAV01@AEBV01@@Z 
??4CompositorTargetTranslator@Ogre@@QEAAAEAV01@AEBV01@@Z 
??4CompositorTextureBaseTranslator@Ogre@@QEAAAEAV01@AEBV01@@Z 
??4CompositorWorkspace@Ogre@@QEAAAEAV01@AEBV01@@Z 
??4CompositorWorkspaceDef@Ogre@@QEAAAEAV01@AEBV01@@Z 
??4CompositorWorkspaceTranslator@Ogre@@QEAAAEAV01@AEBV01@@Z 
??4ConfigDialog@Ogre@@QEAAAEAV01@AEBV01@@Z 
??4ConfigFile@Ogre@@QEAAAEAV01@AEBV01@@Z 
??4ConvexBody@Ogre@@QEAAAEAV01@AEBV01@@Z 
??4DDSCodec@Ogre@@QEAAAEAV01@AEBV01@@Z 
??4DataStream@Ogre@@QEAAAEAV01@AEBV01@@Z 
??4DefaultAxisAlignedBoxSceneQuery@Ogre@@QEAAAEAV01@AEBV01@@Z 
??4DefaultHardwareCounterBuffer@Ogre@@QEAAAEAV01@AEBV01@@Z 
??4DefaultHardwareIndexBuffer@Ogre@@QEAAAEAV01@AEBV01@@Z 
??4DefaultHardwareUniformBuffer@Ogre@@QEAAAEAV01@AEBV01@@Z 
??4DefaultHardwareVertexBuffer@Ogre@@QEAAAEAV01@AEBV01@@Z 
??4DefaultIntersectionSceneQuery@Ogre@@QEAAAEAV01@AEBV01@@Z 
??4DefaultPlaneBoundedVolumeListSceneQuery@Ogre@@QEAAAEAV01@AEBV01@@Z 
??4DefaultRaySceneQuery@Ogre@@QEAAAEAV01@AEBV01@@Z 
??4DefaultSceneManagerFactory@Ogre@@QEAAAEAV01@AEBV01@@Z 
??4DefaultShadowCameraSetup@Ogre@@QEAAAEAV01@AEBV01@@Z 
??4DefaultSphereSceneQuery@Ogre@@QEAAAEAV01@AEBV01@@Z 
??4DeflateStream@Ogre@@QEAAAEAV01@AEBV01@@Z 
??4DepthBuffer@Ogre@@QEAAAEAV01@AEBV01@@Z 
??4DistanceLodStrategyBase@Ogre@@QEAAAEAV01@AEBV01@@Z 
??4DriverVersion@Ogre@@QEAAAEAU01@AEBU01@@Z 
??4DualQuaternion@Ogre@@QEAAAEAV01@AEBV01@@Z 
??4DynLib@Ogre@@QEAAAEAV01@AEBV01@@Z 
??4EdgeData@Ogre@@QEAAAEAV01@AEBV01@@Z 
??4EdgeListBuilder@Ogre@@QEAAAEAV01@AEBV01@@Z 
??4Element@BillboardChain@Ogre@@QEAAAEAV012@AEBV012@@Z 
??4EmbeddedZipArchiveFactory@Ogre@@QEAAAEAV01@AEBV01@@Z 
??4EntityFactory@Ogre@@QEAAAEAV01@AEBV01@@Z 
??4ErrorDialog@Ogre@@QEAAAEAV01@AEBV01@@Z 
??4Exception@Ogre@@QEAAAEAV01@AEBV01@@Z 
??4ExternalTextureSource@Ogre@@QEAAAEAV01@AEBV01@@Z 
??4FileHandleDataStream@Ogre@@QEAAAEAV01@AEBV01@@Z 
??4FileNotFoundException@Ogre@@QEAAAEAV01@AEBV01@@Z 
??4FileStreamDataStream@Ogre@@QEAAAEAV01@AEBV01@@Z 
??4FileSystemArchiveFactory@Ogre@@QEAAAEAV01@AEBV01@@Z 
??4FileSystemLayer@Ogre@@QEAAAEAV01@AEBV01@@Z 
??4FloatGpuParameterControllerValue@Ogre@@QEAAAEAV01@AEBV01@@Z 
??4FocusedShadowCameraSetup@Ogre@@QEAAAEAV01@AEBV01@@Z 
??4FrameListener@Ogre@@QEAAAEAV01@AEBV01@@Z 
??4FrameStats@Ogre@@QEAAAEAV01@AEBV01@@Z 
??4FrameTimeControllerValue@Ogre@@QEAAAEAV01@AEBV01@@Z 
??4FreeImageCodec@Ogre@@QEAAAEAV01@AEBV01@@Z 
??4GeometryBucket@StaticGeometry@Ogre@@QEAAAEAV012@AEBV012@@Z 
??4GpuConstantDefinition@Ogre@@QEAAAEAU01@AEBU01@@Z 
??4GpuLogicalIndexUse@Ogre@@QEAAAEAU01@AEBU01@@Z 
??4GpuNamedConstants@Ogre@@QEAAAEAU01@AEBU01@@Z 
??4GpuNamedConstantsSerializer@Ogre@@QEAAAEAV01@AEBV01@@Z 
??4GpuProgramParameters@Ogre@@QEAAAEAV01@AEBV01@@Z 
??4GpuProgramTranslator@Ogre@@QEAAAEAV01@AEBV01@@Z 
??4GpuProgramUsage@Ogre@@QEAAAEAV01@AEBV01@@Z 
??4GpuSharedParameters@Ogre@@QEAAAEAV01@AEBV01@@Z 
??4GpuSharedParametersUsage@Ogre@@QEAAAEAV01@AEBV01@@Z 
??4HardwareBuffer@Ogre@@QEAAAEAV01@AEBV01@@Z 
??4HardwareBufferLicensee@Ogre@@QEAAAEAV01@AEBV01@@Z 
??4HardwareCounterBuffer@Ogre@@QEAAAEAV01@AEBV01@@Z 
??4HardwareCounterBufferSharedPtr@Ogre@@QEAAAEAV01@AEBV01@@Z 
??4HardwareIndexBuffer@Ogre@@QEAAAEAV01@AEBV01@@Z 
??4HardwareIndexBufferSharedPtr@Ogre@@QEAAAEAV01@AEBV01@@Z 
??4HardwareOcclusionQuery@Ogre@@QEAAAEAV01@AEBV01@@Z 
??4HardwarePixelBuffer@Ogre@@QEAAAEAV01@AEBV01@@Z 
??4HardwarePixelBufferSharedPtr@Ogre@@QEAAAEAV01@AEBV01@@Z 
??4HardwareUniformBuffer@Ogre@@QEAAAEAV01@AEBV01@@Z 
??4HardwareUniformBufferSharedPtr@Ogre@@QEAAAEAV01@AEBV01@@Z 
??4HardwareVertexBuffer@Ogre@@QEAAAEAV01@AEBV01@@Z 
??4HardwareVertexBufferSharedPtr@Ogre@@QEAAAEAV01@AEBV01@@Z 
??4HighLevelGpuProgramFactory@Ogre@@QEAAAEAV01@AEBV01@@Z 
??4Hlms@Ogre@@QEAAAEAV01@AEBV01@@Z 
??4IOException@Ogre@@QEAAAEAV01@AEBV01@@Z 
??4Id@Ogre@@QEAAAEAV01@AEBV01@@Z 
??4IdObject@Ogre@@QEAAAEAV01@AEBV01@@Z 
??4Image@Ogre@@QEAAAEAV01@AEBV01@@Z 
??4ImageCodec@Ogre@@QEAAAEAV01@AEBV01@@Z 
??4ImportAbstractNode@Ogre@@QEAAAEAV01@AEBV01@@Z 
??4InterlockedCompareExchange64Wrapper@Ogre@@QEAAAEAU01@AEBU01@@Z 
??4InternalErrorException@Ogre@@QEAAAEAV01@AEBV01@@Z 
??4IntersectionSceneQuery@Ogre@@QEAAAEAV01@AEBV01@@Z 
??4IntersectionSceneQueryListener@Ogre@@QEAAAEAV01@AEBV01@@Z 
??4IntersectionSceneQueryResult@Ogre@@QEAAAEAU01@AEBU01@@Z 
??4InvalidCallException@Ogre@@QEAAAEAV01@AEBV01@@Z 
??4InvalidParametersException@Ogre@@QEAAAEAV01@AEBV01@@Z 
??4InvalidStateException@Ogre@@QEAAAEAV01@AEBV01@@Z 
??4ItemIdentityException@Ogre@@QEAAAEAV01@AEBV01@@Z 
??4KeyFrame@Ogre@@QEAAAEAV01@AEBV01@@Z 
??4KfTransform@Ogre@@QEAAAEAU01@AEBU01@@Z 
??4KfTransformArrayMemoryManager@Ogre@@QEAAAEAV01@AEBV01@@Z 
??4LODBucket@StaticGeometry@Ogre@@QEAAAEAV012@AEBV012@@Z 
??4LayerBlendModeEx@Ogre@@QEAAAEAV01@AEBV01@@Z 
??4LightFactory@Ogre@@QEAAAEAV01@AEBV01@@Z 
??4LightInfo@SceneManager@Ogre@@QEAAAEAU012@AEBU012@@Z 
??4LightweightMutex@Ogre@@QEAAAEAV01@AEBV01@@Z 
??4LinearControllerFunction@Ogre@@QEAAAEAV01@AEBV01@@Z 
??4Listener@AnimationTrack@Ogre@@QEAAAEAV012@AEBV012@@Z 
??4Listener@Camera@Ogre@@QEAAAEAV012@AEBV012@@Z 
??4Listener@MovableObject@Ogre@@QEAAAEAV012@AEBV012@@Z 
??4Listener@Node@Ogre@@QEAAAEAV012@AEBV012@@Z 
??4Listener@OldNode@Ogre@@QEAAAEAV012@AEBV012@@Z 
??4Listener@RenderSystem@Ogre@@QEAAAEAV012@AEBV012@@Z 
??4Listener@ResourceBackgroundQueue@Ogre@@QEAAAEAV012@AEBV012@@Z 
??4LodListener@Ogre@@QEAAAEAV01@AEBV01@@Z 
??4LodStrategy@Ogre@@QEAAAEAV01@AEBV01@@Z 
??4ManualObjectFactory@Ogre@@QEAAAEAV01@AEBV01@@Z 
??4ManualObjectSection@ManualObject@Ogre@@QEAAAEAV012@AEBV012@@Z 
??4ManualResourceLoader@Ogre@@QEAAAEAV01@AEBV01@@Z 
??4Material@Ogre@@QEAAAEAV01@AEBV01@@Z 
??4MaterialBucket@StaticGeometry@Ogre@@QEAAAEAV012@AEBV012@@Z 
??4MaterialSerializer@Ogre@@QEAAAEAV01@AEBV01@@Z 
??4MaterialTranslator@Ogre@@QEAAAEAV01@AEBV01@@Z 
??4Math@Ogre@@QEAAAEAV01@AEBV01@@Z 
??4MathlibSSE2@Ogre@@QEAAAEAV01@AEBV01@@Z 
??4Matrix3@Ogre@@QEAAAEAV01@AEBV01@@Z 
??4Matrix4@Ogre@@QEAAAEAV01@AEBV01@@Z 
??4Matrix4@Ogre@@QEAAXAEBVMatrix3@1@@Z 
??4MemoryDataStream@Ogre@@QEAAAEAV01@AEBV01@@Z 
??4MeshSerializer@Ogre@@QEAAAEAV01@AEBV01@@Z 
??4MovableObjectFactory@Ogre@@QEAAAEAV01@AEBV01@@Z 
??4MultiRenderTarget@Ogre@@QEAAAEAV01@AEBV01@@Z 
??4NedPoolingImpl@Ogre@@QEAAAEAV01@AEBV01@@Z 
??4NedPoolingPolicy@Ogre@@QEAAAEAV01@AEBV01@@Z 
??4Node@Ogre@@QEAAAEAV01@AEBV01@@Z 
??4NodeAnimationTrack@Ogre@@QEAAAEAV01@AEBV01@@Z 
??4NodeArrayMemoryManager@Ogre@@QEAAAEAV01@AEBV01@@Z 
??4NumericAnimationTrack@Ogre@@QEAAAEAV01@AEBV01@@Z 
??4NumericKeyFrame@Ogre@@QEAAAEAV01@AEBV01@@Z 
??4NumericSolver@Ogre@@QEAAAEAV01@AEBV01@@Z 
??4ObjectAbstractNode@Ogre@@QEAAAEAV01@AEBV01@@Z 
??4ObjectDataArrayMemoryManager@Ogre@@QEAAAEAV01@AEBV01@@Z 
??4ObjectMemoryManager@Ogre@@QEAAAEAV01@AEBV01@@Z 
??4OldBone@Ogre@@QEAAAEAV01@AEBV01@@Z 
??4OldNode@Ogre@@QEAAAEAV01@AEBV01@@Z 
??4OldNodeAnimationTrack@Ogre@@QEAAAEAV01@AEBV01@@Z 
??4PSSMShadowCameraSetup@Ogre@@QEAAAEAV01@AEBV01@@Z 
??4ParamCommand@Ogre@@QEAAAEAV01@AEBV01@@Z 
??4ParamDictionary@Ogre@@QEAAAEAV01@AEBV01@@Z 
??4ParameterDef@Ogre@@QEAAAEAV01@AEBV01@@Z 
??4Particle@Ogre@@QEAAAEAV01@AEBV01@@Z 
??4ParticleAffector@Ogre@@QEAAAEAV01@AEBV01@@Z 
??4ParticleAffectorFactory@Ogre@@QEAAAEAV01@AEBV01@@Z 
??4ParticleAffectorTranslator@Ogre@@QEAAAEAV01@AEBV01@@Z 
??4ParticleEmitter@Ogre@@QEAAAEAV01@AEBV01@@Z 
??4ParticleEmitterFactory@Ogre@@QEAAAEAV01@AEBV01@@Z 
??4ParticleEmitterTranslator@Ogre@@QEAAAEAV01@AEBV01@@Z 
??4ParticleIterator@Ogre@@QEAAAEAV01@AEBV01@@Z 
??4ParticleSystem@Ogre@@QEAAAEAV01@AEBV01@@Z 
??4ParticleSystemFactory@Ogre@@QEAAAEAV01@AEBV01@@Z 
??4ParticleSystemRenderer@Ogre@@QEAAAEAV01@AEBV01@@Z 
??4ParticleSystemRendererFactory@Ogre@@QEAAAEAV01@AEBV01@@Z 
??4ParticleSystemTranslator@Ogre@@QEAAAEAV01@AEBV01@@Z 
??4ParticleVisualData@Ogre@@QEAAAEAV01@AEBV01@@Z 
??4Pass@Ogre@@QEAAAEAV01@AEBV01@@Z 
??4PassTranslator@Ogre@@QEAAAEAV01@AEBV01@@Z 
??4PassthroughControllerFunction@Ogre@@QEAAAEAV01@AEBV01@@Z 
??4PatchSurface@Ogre@@QEAAAEAV01@AEBV01@@Z 
??4PixelBox@Ogre@@QEAAAEAV01@AEBV01@@Z 
??4PixelCountLodStrategyBase@Ogre@@QEAAAEAV01@AEBV01@@Z 
??4PixelUtil@Ogre@@QEAAAEAV01@AEBV01@@Z 
??4Plane@Ogre@@QEAAAEAV01@AEBV01@@Z 
??4PlaneBoundedVolume@Ogre@@QEAAAEAV01@AEBV01@@Z 
??4PlaneBoundedVolumeListSceneQuery@Ogre@@QEAAAEAV01@AEBV01@@Z 
??4PlaneOptimalShadowCameraSetup@Ogre@@QEAAAEAV01@AEBV01@@Z 
??4PlatformInformation@Ogre@@QEAAAEAV01@AEBV01@@Z 
??4Plugin@Ogre@@QEAAAEAV01@AEBV01@@Z 
??4Polygon@Ogre@@QEAAAEAV01@AEBV01@@Z 
??4Pose@Ogre@@QEAAAEAV01@AEBV01@@Z 
??4PrefabFactory@Ogre@@QEAAAEAV01@AEBV01@@Z 
??4Profile@Ogre@@QEAAAEAV01@AEBV01@@Z 
??4ProfileSessionListener@Ogre@@QEAAAEAV01@AEBV01@@Z 
??4PropertyAbstractNode@Ogre@@QEAAAEAV01@AEBV01@@Z 
??4Quaternion@Ogre@@QEAAAEAV01@AEBV01@@Z 
??4QueuedRenderableCollection@Ogre@@QEAAAEAV01@AEBV01@@Z 
??4QueuedRenderableVisitor@Ogre@@QEAAAEAV01@AEBV01@@Z 
??4Ray@Ogre@@QEAAAEAV01@AEBV01@@Z 
??4RaySceneQuery@Ogre@@QEAAAEAV01@AEBV01@@Z 
??4RaySceneQueryListener@Ogre@@QEAAAEAV01@AEBV01@@Z 
??4RaySceneQueryResultEntry@Ogre@@QEAAAEAU01@AEBU01@@Z 
??4Rectangle2D@Ogre@@QEAAAEAV01@AEBV01@@Z 
??4RegionSceneQuery@Ogre@@QEAAAEAV01@AEBV01@@Z 
??4RenderObjectListener@Ogre@@QEAAAEAV01@AEBV01@@Z 
??4RenderPriorityGroup@Ogre@@QEAAAEAV01@AEBV01@@Z 
??4RenderQueue@Ogre@@QEAAAEAV01@AEBV01@@Z 
??4RenderQueueGroup@Ogre@@QEAAAEAV01@AEBV01@@Z 
??4RenderQueueInvocation@Ogre@@QEAAAEAV01@AEBV01@@Z 
??4RenderQueueInvocationSequence@Ogre@@QEAAAEAV01@AEBV01@@Z 
??4RenderQueueListener@Ogre@@QEAAAEAV01@AEBV01@@Z 
??4RenderSystem@Ogre@@QEAAAEAV01@AEBV01@@Z 
??4RenderSystemCapabilities@Ogre@@QEAAAEAV01@AEBV01@@Z 
??4RenderSystemCapabilitiesSerializer@Ogre@@QEAAAEAV01@AEBV01@@Z 
??4RenderTarget@Ogre@@QEAAAEAV01@AEBV01@@Z 
??4RenderTargetListener@Ogre@@QEAAAEAV01@AEBV01@@Z 
??4RenderTexture@Ogre@@QEAAAEAV01@AEBV01@@Z 
??4RenderToVertexBuffer@Ogre@@QEAAAEAV01@AEBV01@@Z 
??4RenderWindow@Ogre@@QEAAAEAV01@AEBV01@@Z 
??4Renderable@Ogre@@QEAAAEAV01@AEBV01@@Z 
??4RenderableListener@RenderQueue@Ogre@@QEAAAEAV012@AEBV012@@Z 
??4RenderingAPIException@Ogre@@QEAAAEAV01@AEBV01@@Z 
??4Request@WorkQueue@Ogre@@QEAAAEAV012@AEBV012@@Z 
??4RequestHandler@WorkQueue@Ogre@@QEAAAEAV012@AEBV012@@Z 
??4ResourceGroupListener@Ogre@@QEAAAEAV01@AEBV01@@Z 
??4Response@WorkQueue@Ogre@@QEAAAEAU012@AEBU012@@Z 
??4ResponseHandler@WorkQueue@Ogre@@QEAAAEAV012@AEBV012@@Z 
??4RibbonTrailFactory@Ogre@@QEAAAEAV01@AEBV01@@Z 
??4RotationalSpline@Ogre@@QEAAAEAV01@AEBV01@@Z 
??4RuntimeAssertionException@Ogre@@QEAAAEAV01@AEBV01@@Z 
??4ScaleControllerFunction@Ogre@@QEAAAEAV01@AEBV01@@Z 
??4SceneManagerFactory@Ogre@@QEAAAEAV01@AEBV01@@Z 
??4SceneMgrQueuedRenderableVisitor@SceneManager@Ogre@@QEAAAEAV012@AEBV012@@Z 
??4SceneNode@Ogre@@QEAAAEAV01@AEBV01@@Z 
??4SceneQuery@Ogre@@QEAAAEAV01@AEBV01@@Z 
??4SceneQueryListener@Ogre@@QEAAAEAV01@AEBV01@@Z 
??4SceneQueryResult@Ogre@@QEAAAEAU01@AEBU01@@Z 
??4ScriptCompiler@Ogre@@QEAAAEAV01@AEBV01@@Z 
??4ScriptCompilerListener@Ogre@@QEAAAEAV01@AEBV01@@Z 
??4ScriptLexer@Ogre@@QEAAAEAV01@AEBV01@@Z 
??4ScriptLoader@Ogre@@QEAAAEAV01@AEBV01@@Z 
??4ScriptParser@Ogre@@QEAAAEAV01@AEBV01@@Z 
??4ScriptTranslator@Ogre@@QEAAAEAV01@AEBV01@@Z 
??4Serializer@Ogre@@QEAAAEAV01@AEBV01@@Z 
??4ShadowCameraSetup@Ogre@@QEAAAEAV01@AEBV01@@Z 
??4ShadowVolumeExtrudeProgram@Ogre@@QEAAAEAV01@AEBV01@@Z 
??4SharedParamsTranslator@Ogre@@QEAAAEAV01@AEBV01@@Z 
??4SimpleMatrix4@Ogre@@QEAAAEAV01@AEBV01@@Z 
??4SimpleMatrixAf4x3@Ogre@@QEAAAEAV01@AEBV01@@Z 
??4SimpleSpline@Ogre@@QEAAAEAV01@AEBV01@@Z 
??4SkeletonAnimation@Ogre@@QEAAAEAV01@AEBV01@@Z 
??4SkeletonAnimationDef@Ogre@@QEAAAEAV01@AEBV01@@Z 
??4SkeletonDef@Ogre@@QEAAAEAV01@AEBV01@@Z 
??4SkeletonInstance@Ogre@@QEAAAEAV01@AEBV01@@Z 
??4SkeletonSerializer@Ogre@@QEAAAEAV01@AEBV01@@Z 
??4SkeletonTrack@Ogre@@QEAAAEAV01@AEBV01@@Z 
??4Sphere@Ogre@@QEAAAEAV01@AEBV01@@Z 
??4SphereSceneQuery@Ogre@@QEAAAEAV01@AEBV01@@Z 
??4StaticGeometry@Ogre@@QEAAAEAV01@AEBV01@@Z 
??4StreamSerialiser@Ogre@@QEAAAEAV01@AEBV01@@Z 
??4StringConverter@Ogre@@QEAAAEAV01@AEBV01@@Z 
??4StringInterface@Ogre@@QEAAAEAV01@AEBV01@@Z 
??4StringUtil@Ogre@@QEAAAEAV01@AEBV01@@Z 
??4SubEntity@Ogre@@QEAAAEAV01@AEBV01@@Z 
??4SubMesh@Ogre@@QEAAAEAV01@AEBV01@@Z 
??4TagPoint@Ogre@@QEAAAEAV01@AEBV01@@Z 
??4TangentSpaceCalc@Ogre@@QEAAAEAV01@AEBV01@@Z 
??4Technique@Ogre@@QEAAAEAV01@AEBV01@@Z 
??4TechniqueTranslator@Ogre@@QEAAAEAV01@AEBV01@@Z 
??4TempBlendedBufferInfo@Ogre@@QEAAAEAV01@AEBV01@@Z 
??4TexCoordModifierControllerValue@Ogre@@QEAAAEAV01@AEBV01@@Z 
??4TextureDefinition@TextureDefinitionBase@Ogre@@QEAAAEAV012@AEBV012@@Z 
??4TextureDefinitionBase@Ogre@@QEAAAEAV01@AEBV01@@Z 
??4TextureFrameControllerValue@Ogre@@QEAAAEAV01@AEBV01@@Z 
??4TextureSourceTranslator@Ogre@@QEAAAEAV01@AEBV01@@Z 
??4TextureUnitState@Ogre@@QEAAAEAV01@AEBV01@@Z 
??4TextureUnitTranslator@Ogre@@QEAAAEAV01@AEBV01@@Z 
??4ThreadHandle@Ogre@@QEAAAEAV01@AEBV01@@Z 
??4Threads@Ogre@@QEAAAEAV01@AEBV01@@Z 
??4TimeIndex@Ogre@@QEAAAEAV01@AEBV01@@Z 
??4Timer@Ogre@@QEAAAEAV01@AEBV01@@Z 
??4TransformKeyFrame@Ogre@@QEAAAEAV01@AEBV01@@Z 
??4UTFString@Ogre@@QEAAAEAV01@AEBV01@@Z 
??4UTFString@Ogre@@QEAAAEAV01@D@Z 
??4UTFString@Ogre@@QEAAAEAV01@G@Z 
??4UTFString@Ogre@@QEAAAEAV01@I@Z 
??4UTFString@Ogre@@QEAAAEAV01@_W@Z 
??4UniformScalableTask@Ogre@@QEAAAEAV01@AEBV01@@Z 
??4UnimplementedException@Ogre@@QEAAAEAV01@AEBV01@@Z 
??4UserObjectBindings@Ogre@@QEAAAEAV01@AEBV01@@Z 
??4VariableAccessAbstractNode@Ogre@@QEAAAEAV01@AEBV01@@Z 
??4Vector2@Ogre@@QEAAAEAV01@AEBV01@@Z 
??4Vector2@Ogre@@QEAAAEAV01@M@Z 
??4Vector3@Ogre@@QEAAAEAV01@AEBV01@@Z 
??4Vector3@Ogre@@QEAAAEAV01@M@Z 
??4Vector4@Ogre@@QEAAAEAV01@AEBV01@@Z 
??4Vector4@Ogre@@QEAAAEAV01@AEBVVector3@1@@Z 
??4Vector4@Ogre@@QEAAAEAV01@M@Z 
??4VertexAnimationTrack@Ogre@@QEAAAEAV01@AEBV01@@Z 
??4VertexBufferBinding@Ogre@@QEAAAEAV01@AEBV01@@Z 
??4VertexCacheProfiler@Ogre@@QEAAAEAV01@AEBV01@@Z 
??4VertexDeclaration@Ogre@@QEAAAEAV01@AEBV01@@Z 
??4VertexElement@Ogre@@QEAAAEAV01@AEBV01@@Z 
??4VertexMorphKeyFrame@Ogre@@QEAAAEAV01@AEBV01@@Z 
??4VertexPoseKeyFrame@Ogre@@QEAAAEAV01@AEBV01@@Z 
??4Viewport@Ogre@@QEAAAEAV01@AEBV01@@Z 
??4WaveformControllerFunction@Ogre@@QEAAAEAV01@AEBV01@@Z 
??4WindowEventListener@Ogre@@QEAAAEAV01@AEBV01@@Z 
??4WindowEventUtilities@Ogre@@QEAAAEAV01@AEBV01@@Z 
??4WorkerFunc@DefaultWorkQueueBase@Ogre@@QEAAAEAU012@AEBU012@@Z 
??4_Init_locks@std@@QEAAAEAV01@AEBV01@@Z 
??4_base_iterator@UTFString@Ogre@@QEAAAEAV012@AEBV012@@Z 
??4_const_fwd_iterator@UTFString@Ogre@@QEAAAEAV012@AEBV012@@Z 
??4_const_rev_iterator@UTFString@Ogre@@QEAAAEAV012@AEBV012@@Z 
??4_fwd_iterator@UTFString@Ogre@@QEAAAEAV012@AEBV012@@Z 
??4_rev_iterator@UTFString@Ogre@@QEAAAEAV012@AEBV012@@Z 
??4invalid_data@UTFString@Ogre@@QEAAAEAV012@AEBV012@@Z 
??6Ogre@@YAAEAV?$basic_ostream@DU?$char_traits@D@std@@@std@@AEAV12@AEBUResourceRequest@ResourceBackgroundQueue@0@@Z 
??6Ogre@@YAAEAV?$basic_ostream@DU?$char_traits@D@std@@@std@@AEAV12@AEBUResourceResponse@ResourceBackgroundQueue@0@@Z 
??6Ogre@@YAAEAV?$basic_ostream@DU?$char_traits@D@std@@@std@@AEAV12@AEBVAxisAlignedBox@0@@Z 
??6Ogre@@YAAEAV?$basic_ostream@DU?$char_traits@D@std@@@std@@AEAV12@AEBVCamera@0@@Z 
??6Ogre@@YAAEAV?$basic_ostream@DU?$char_traits@D@std@@@std@@AEAV12@AEBVColourValue@0@@Z 
??6Ogre@@YAAEAV?$basic_ostream@DU?$char_traits@D@std@@@std@@AEAV12@AEBVConvexBody@0@@Z 
??6Ogre@@YAAEAV?$basic_ostream@DU?$char_traits@D@std@@@std@@AEAV12@AEBVDegree@0@@Z 
??6Ogre@@YAAEAV?$basic_ostream@DU?$char_traits@D@std@@@std@@AEAV12@AEBVDualQuaternion@0@@Z 
??6Ogre@@YAAEAV?$basic_ostream@DU?$char_traits@D@std@@@std@@AEAV12@AEBVMatrix3@0@@Z 
??6Ogre@@YAAEAV?$basic_ostream@DU?$char_traits@D@std@@@std@@AEAV12@AEBVMatrix4@0@@Z 
??6Ogre@@YAAEAV?$basic_ostream@DU?$char_traits@D@std@@@std@@AEAV12@AEBVPlane@0@@Z 
??6Ogre@@YAAEAV?$basic_ostream@DU?$char_traits@D@std@@@std@@AEAV12@AEBVPolygon@0@@Z 
??6Ogre@@YAAEAV?$basic_ostream@DU?$char_traits@D@std@@@std@@AEAV12@AEBVQuaternion@0@@Z 
??6Ogre@@YAAEAV?$basic_ostream@DU?$char_traits@D@std@@@std@@AEAV12@AEBVRadian@0@@Z 
??6Ogre@@YAAEAV?$basic_ostream@DU?$char_traits@D@std@@@std@@AEAV12@AEBVVector2@0@@Z 
??6Ogre@@YAAEAV?$basic_ostream@DU?$char_traits@D@std@@@std@@AEAV12@AEBVVector3@0@@Z 
??6Ogre@@YAAEAV?$basic_ostream@DU?$char_traits@D@std@@@std@@AEAV12@AEBVVector4@0@@Z 
??8AnimationState@Ogre@@QEBA_NAEBV01@@Z 
??8AxisAlignedBox@Ogre@@QEBA_NAEBV01@@Z 
??8ColourValue@Ogre@@QEBA_NAEBV01@@Z 
??8ConvexBody@Ogre@@QEBA_NAEBV01@@Z 
??8DualQuaternion@Ogre@@QEBA_NAEBV01@@Z 
??8LayerBlendModeEx@Ogre@@QEBA_NAEBV01@@Z 
??8LightInfo@SceneManager@Ogre@@QEBA_NAEBU012@@Z 
??8Matrix3@Ogre@@QEBA_NAEBV01@@Z 
??8Matrix4@Ogre@@QEBA_NAEBV01@@Z 
??8Ogre@@YA_NAEBUShadowTextureConfig@0@0@Z 
??8Plane@Ogre@@QEBA_NAEBV01@@Z 
??8Polygon@Ogre@@QEBA_NAEBV01@@Z 
??8Quaternion@Ogre@@QEBA_NAEBV01@@Z 
??8UTFString@Ogre@@QEBA_NAEBV01@@Z 
??8Vector2@Ogre@@QEBA_NAEBV01@@Z 
??8Vector3@Ogre@@QEBA_NAEBV01@@Z 
??8Vector4@Ogre@@QEBA_NAEBV01@@Z 
??8VertexDeclaration@Ogre@@QEBA_NAEBV01@@Z 
??8VertexElement@Ogre@@QEBA_NAEBV01@@Z 
??9AnimationState@Ogre@@QEBA_NAEBV01@@Z 
??9AxisAlignedBox@Ogre@@QEBA_NAEBV01@@Z 
??9ColourValue@Ogre@@QEBA_NAEBV01@@Z 
??9ConvexBody@Ogre@@QEBA_NAEBV01@@Z 
??9DualQuaternion@Ogre@@QEBA_NAEBV01@@Z 
??9LayerBlendModeEx@Ogre@@QEBA_NAEBV01@@Z 
??9LightInfo@SceneManager@Ogre@@QEBA_NAEBU012@@Z 
??9Matrix3@Ogre@@QEBA_NAEBV01@@Z 
??9Matrix4@Ogre@@QEBA_NAEBV01@@Z 
??9Ogre@@YA_NAEBUShadowTextureConfig@0@0@Z 
??9Plane@Ogre@@QEBA_NAEBV01@@Z 
??9Polygon@Ogre@@QEBA_NAEBV01@@Z 
??9Quaternion@Ogre@@QEBA_NAEBV01@@Z 
??9UTFString@Ogre@@QEBA_NAEBV01@@Z 
??9Vector2@Ogre@@QEBA_NAEBV01@@Z 
??9Vector3@Ogre@@QEBA_NAEBV01@@Z 
??9Vector4@Ogre@@QEBA_NAEBV01@@Z 
??9VertexDeclaration@Ogre@@QEBA_NAEBV01@@Z 
??AColourValue@Ogre@@QEAAAEAM_K@Z 
??AColourValue@Ogre@@QEBAM_K@Z 
??ADualQuaternion@Ogre@@QEAAAEAM_K@Z 
??ADualQuaternion@Ogre@@QEBAM_K@Z 
??AMatrix3@Ogre@@QEAAPEAM_K@Z 
??AMatrix3@Ogre@@QEBAPEBM_K@Z 
??AMatrix4@Ogre@@QEAAPEAM_K@Z 
??AMatrix4@Ogre@@QEBAPEBM_K@Z 
??AQuaternion@Ogre@@QEAAAEAM_K@Z 
??AQuaternion@Ogre@@QEBAM_K@Z 
??AUTFString@Ogre@@QEAAAEAG_K@Z 
??AUTFString@Ogre@@QEBAAEBG_K@Z 
??AVector2@Ogre@@QEAAAEAM_K@Z 
??AVector2@Ogre@@QEBAM_K@Z 
??AVector3@Ogre@@QEAAAEAM_K@Z 
??AVector3@Ogre@@QEBAM_K@Z 
??AVector4@Ogre@@QEAAAEAM_K@Z 
??AVector4@Ogre@@QEBAM_K@Z 
??A_const_fwd_iterator@UTFString@Ogre@@QEBAAEBG_J@Z 
??A_const_rev_iterator@UTFString@Ogre@@QEBAAEBG_J@Z 
??A_fwd_iterator@UTFString@Ogre@@QEBAAEAG_J@Z 
??A_rev_iterator@UTFString@Ogre@@QEBAAEAG_J@Z 
??BUTFString@Ogre@@QEBA?AV?$basic_string@DU?$char_traits@D@std@@V?$allocator@D@2@@std@@XZ 
??BUTFString@Ogre@@QEBA?AV?$basic_string@_WU?$char_traits@_W@std@@V?$allocator@_W@2@@std@@XZ 
??C?$SharedPtr@VHardwareCounterBuffer@Ogre@@@Ogre@@QEBAPEAVHardwareCounterBuffer@1@XZ 
??C?$SharedPtr@VHardwareIndexBuffer@Ogre@@@Ogre@@QEBAPEAVHardwareIndexBuffer@1@XZ 
??C?$SharedPtr@VHardwarePixelBuffer@Ogre@@@Ogre@@QEBAPEAVHardwarePixelBuffer@1@XZ 
??C?$SharedPtr@VHardwareUniformBuffer@Ogre@@@Ogre@@QEBAPEAVHardwareUniformBuffer@1@XZ 
??C?$SharedPtr@VHardwareVertexBuffer@Ogre@@@Ogre@@QEBAPEAVHardwareVertexBuffer@1@XZ 
??D?$SharedPtr@VHardwareCounterBuffer@Ogre@@@Ogre@@QEBAAEAVHardwareCounterBuffer@1@XZ 
??D?$SharedPtr@VHardwareIndexBuffer@Ogre@@@Ogre@@QEBAAEAVHardwareIndexBuffer@1@XZ 
??D?$SharedPtr@VHardwarePixelBuffer@Ogre@@@Ogre@@QEBAAEAVHardwarePixelBuffer@1@XZ 
??D?$SharedPtr@VHardwareUniformBuffer@Ogre@@@Ogre@@QEBAAEAVHardwareUniformBuffer@1@XZ 
??D?$SharedPtr@VHardwareVertexBuffer@Ogre@@@Ogre@@QEBAAEAVHardwareVertexBuffer@1@XZ 
??DArrayMatrix4@Ogre@@QEBA?AVArrayVector3@1@AEBV21@@Z 
??DArrayMatrixAf4x3@Ogre@@QEBA?AVArrayVector3@1@AEBV21@@Z 
??DArrayQuaternion@Ogre@@QEBA?AVArrayVector3@1@AEBV21@@Z 
??DColourValue@Ogre@@QEBA?AV01@AEBV01@@Z 
??DColourValue@Ogre@@QEBA?AV01@M@Z 
??DMatrix3@Ogre@@QEBA?AV01@AEBV01@@Z 
??DMatrix3@Ogre@@QEBA?AV01@M@Z 
??DMatrix3@Ogre@@QEBA?AVVector3@1@AEBV21@@Z 
??DMatrix4@Ogre@@QEBA?AV01@AEBV01@@Z 
??DMatrix4@Ogre@@QEBA?AV01@M@Z 
??DMatrix4@Ogre@@QEBA?AVPlane@1@AEBV21@@Z 
??DMatrix4@Ogre@@QEBA?AVVector3@1@AEBV21@@Z 
??DMatrix4@Ogre@@QEBA?AVVector4@1@AEBV21@@Z 
??DOgre@@YA?AVMatrix3@0@MAEBV10@@Z 
??DOgre@@YA?AVQuaternion@0@MAEBV10@@Z 
??DOgre@@YA?AVVector3@0@AEBV10@AEBVMatrix3@0@@Z 
??DQuaternion@Ogre@@QEBA?AV01@AEBV01@@Z 
??DQuaternion@Ogre@@QEBA?AV01@M@Z 
??DQuaternion@Ogre@@QEBA?AVVector3@1@AEBV21@@Z 
??DRay@Ogre@@QEBA?AVVector3@1@M@Z 
??DVector2@Ogre@@QEBA?AV01@AEBV01@@Z 
??DVector2@Ogre@@QEBA?AV01@M@Z 
??DVector3@Ogre@@QEBA?AV01@AEBV01@@Z 
??DVector3@Ogre@@QEBA?AV01@M@Z 
??DVector4@Ogre@@QEBA?AV01@AEBV01@@Z 
??DVector4@Ogre@@QEBA?AV01@M@Z 
??D_const_fwd_iterator@UTFString@Ogre@@QEBAAEBGXZ 
??D_const_rev_iterator@UTFString@Ogre@@QEBAAEBGXZ 
??D_fwd_iterator@UTFString@Ogre@@QEBAAEAGXZ 
??D_rev_iterator@UTFString@Ogre@@QEBAAEAGXZ 
??E_const_fwd_iterator@UTFString@Ogre@@QEAA?AV012@H@Z 
??E_const_fwd_iterator@UTFString@Ogre@@QEAAAEAV012@XZ 
??E_const_rev_iterator@UTFString@Ogre@@QEAA?AV012@H@Z 
??E_const_rev_iterator@UTFString@Ogre@@QEAAAEAV012@XZ 
??E_fwd_iterator@UTFString@Ogre@@QEAA?AV012@H@Z 
??E_fwd_iterator@UTFString@Ogre@@QEAAAEAV012@XZ 
??E_rev_iterator@UTFString@Ogre@@QEAA?AV012@H@Z 
??E_rev_iterator@UTFString@Ogre@@QEAAAEAV012@XZ 
??F_const_fwd_iterator@UTFString@Ogre@@QEAA?AV012@H@Z 
??F_const_fwd_iterator@UTFString@Ogre@@QEAAAEAV012@XZ 
??F_const_rev_iterator@UTFString@Ogre@@QEAA?AV012@H@Z 
??F_const_rev_iterator@UTFString@Ogre@@QEAAAEAV012@XZ 
??F_fwd_iterator@UTFString@Ogre@@QEAA?AV012@H@Z 
??F_fwd_iterator@UTFString@Ogre@@QEAAAEAV012@XZ 
??F_rev_iterator@UTFString@Ogre@@QEAA?AV012@H@Z 
??F_rev_iterator@UTFString@Ogre@@QEAAAEAV012@XZ 
??GArrayVector3@Ogre@@QEBA?AV01@XZ 
??GColourValue@Ogre@@QEBA?AV01@AEBV01@@Z 
??GMatrix3@Ogre@@QEBA?AV01@AEBV01@@Z 
??GMatrix3@Ogre@@QEBA?AV01@XZ 
??GMatrix4@Ogre@@QEBA?AV01@AEBV01@@Z 
??GQuaternion@Ogre@@QEBA?AV01@AEBV01@@Z 
??GQuaternion@Ogre@@QEBA?AV01@XZ 
??GVector2@Ogre@@QEBA?AV01@AEBV01@@Z 
??GVector2@Ogre@@QEBA?AV01@XZ 
??GVector3@Ogre@@QEBA?AV01@AEBV01@@Z 
??GVector3@Ogre@@QEBA?AV01@XZ 
??GVector4@Ogre@@QEBA?AV01@AEBV01@@Z 
??GVector4@Ogre@@QEBA?AV01@XZ 
??G_const_fwd_iterator@UTFString@Ogre@@QEAA?AV012@_J@Z 
??G_const_rev_iterator@UTFString@Ogre@@QEAA?AV012@_J@Z 
??G_fwd_iterator@UTFString@Ogre@@QEAA?AV012@_J@Z 
??G_rev_iterator@UTFString@Ogre@@QEAA?AV012@_J@Z 
??HArrayVector3@Ogre@@QEBAAEBV01@XZ 
??HColourValue@Ogre@@QEBA?AV01@AEBV01@@Z 
??HMatrix3@Ogre@@QEBA?AV01@AEBV01@@Z 
??HMatrix4@Ogre@@QEBA?AV01@AEBV01@@Z 
??HQuaternion@Ogre@@QEBA?AV01@AEBV01@@Z 
??HVector2@Ogre@@QEBA?AV01@AEBV01@@Z 
??HVector2@Ogre@@QEBAAEBV01@XZ 
??HVector3@Ogre@@QEBA?AV01@AEBV01@@Z 
??HVector3@Ogre@@QEBAAEBV01@XZ 
??HVector4@Ogre@@QEBA?AV01@AEBV01@@Z 
??HVector4@Ogre@@QEBAAEBV01@XZ 
??H_const_fwd_iterator@UTFString@Ogre@@QEAA?AV012@_J@Z 
??H_const_rev_iterator@UTFString@Ogre@@QEAA?AV012@_J@Z 
??H_fwd_iterator@UTFString@Ogre@@QEAA?AV012@_J@Z 
??H_rev_iterator@UTFString@Ogre@@QEAA?AV012@_J@Z 
??KColourValue@Ogre@@QEBA?AV01@AEBV01@@Z 
??KColourValue@Ogre@@QEBA?AV01@M@Z 
??KVector2@Ogre@@QEBA?AV01@AEBV01@@Z 
??KVector2@Ogre@@QEBA?AV01@M@Z 
??KVector3@Ogre@@QEBA?AV01@AEBV01@@Z 
??KVector3@Ogre@@QEBA?AV01@M@Z 
??KVector4@Ogre@@QEBA?AV01@AEBV01@@Z 
??KVector4@Ogre@@QEBA?AV01@M@Z 
??MRaySceneQueryResultEntry@Ogre@@QEBA_NAEBU01@@Z 
??MUTFString@Ogre@@QEBA_NAEBV01@@Z 
??MVector2@Ogre@@QEBA_NAEBV01@@Z 
??MVector3@Ogre@@QEBA_NAEBV01@@Z 
??NUTFString@Ogre@@QEBA_NAEBV01@@Z 
??OUTFString@Ogre@@QEBA_NAEBV01@@Z 
??OVector2@Ogre@@QEBA_NAEBV01@@Z 
??OVector3@Ogre@@QEBA_NAEBV01@@Z 
??PUTFString@Ogre@@QEBA_NAEBV01@@Z 
??RDepthSortDescendingLess@QueuedRenderableCollection@Ogre@@QEBA_NAEBURenderablePass@2@0@Z 
??RIdObject@Ogre@@QEAA_NAEBV01@0@Z 
??RIdObject@Ogre@@QEAA_NPEBV01@0@Z 
??RPassGroupLess@QueuedRenderableCollection@Ogre@@QEBA_NPEBVPass@2@0@Z 
??RWorkerFunc@DefaultWorkQueueBase@Ogre@@QEAAXXZ 
??RWorkerFunc@DefaultWorkQueueBase@Ogre@@QEBAXXZ 
??XArrayMatrix4@Ogre@@QEAAXAEBV01@@Z 
??XArrayMatrixAf4x3@Ogre@@QEAAXAEBV01@@Z 
??XArrayQuaternion@Ogre@@QEAAXT__m128@@@Z 
??XArrayVector3@Ogre@@QEAAXAEBV01@@Z 
??XArrayVector3@Ogre@@QEAAXM@Z 
??XArrayVector3@Ogre@@QEAAXT__m128@@@Z 
??XColourValue@Ogre@@QEAAAEAV01@M@Z 
??XVector2@Ogre@@QEAAAEAV01@AEBV01@@Z 
??XVector2@Ogre@@QEAAAEAV01@M@Z 
??XVector3@Ogre@@QEAAAEAV01@AEBV01@@Z 
??XVector3@Ogre@@QEAAAEAV01@M@Z 
??XVector4@Ogre@@QEAAAEAV01@AEBV01@@Z 
??XVector4@Ogre@@QEAAAEAV01@M@Z 
??YArrayQuaternion@Ogre@@QEAAXAEBV01@@Z 
??YArrayVector3@Ogre@@QEAAXAEBV01@@Z 
??YArrayVector3@Ogre@@QEAAXM@Z 
??YArrayVector3@Ogre@@QEAAXT__m128@@@Z 
??YColourValue@Ogre@@QEAAAEAV01@AEBV01@@Z 
??YVector2@Ogre@@QEAAAEAV01@AEBV01@@Z 
??YVector2@Ogre@@QEAAAEAV01@M@Z 
??YVector3@Ogre@@QEAAAEAV01@AEBV01@@Z 
??YVector3@Ogre@@QEAAAEAV01@M@Z 
??YVector4@Ogre@@QEAAAEAV01@AEBV01@@Z 
??YVector4@Ogre@@QEAAAEAV01@M@Z 
??Y_const_fwd_iterator@UTFString@Ogre@@QEAAAEAV012@_J@Z 
??Y_const_rev_iterator@UTFString@Ogre@@QEAAAEAV012@_J@Z 
??Y_fwd_iterator@UTFString@Ogre@@QEAAAEAV012@_J@Z 
??Y_rev_iterator@UTFString@Ogre@@QEAAAEAV012@_J@Z 
??ZArrayQuaternion@Ogre@@QEAAXAEBV01@@Z 
??ZArrayVector3@Ogre@@QEAAXAEBV01@@Z 
??ZArrayVector3@Ogre@@QEAAXM@Z 
??ZArrayVector3@Ogre@@QEAAXT__m128@@@Z 
??ZColourValue@Ogre@@QEAAAEAV01@AEBV01@@Z 
??ZVector2@Ogre@@QEAAAEAV01@AEBV01@@Z 
??ZVector2@Ogre@@QEAAAEAV01@M@Z 
??ZVector3@Ogre@@QEAAAEAV01@AEBV01@@Z 
??ZVector3@Ogre@@QEAAAEAV01@M@Z 
??ZVector4@Ogre@@QEAAAEAV01@AEBV01@@Z 
??ZVector4@Ogre@@QEAAAEAV01@M@Z 
??Z_const_fwd_iterator@UTFString@Ogre@@QEAAAEAV012@_J@Z 
??Z_const_rev_iterator@UTFString@Ogre@@QEAAAEAV012@_J@Z 
??Z_fwd_iterator@UTFString@Ogre@@QEAAAEAV012@_J@Z 
??Z_rev_iterator@UTFString@Ogre@@QEAAAEAV012@_J@Z 
??_0ArrayVector3@Ogre@@QEAAXAEBV01@@Z 
??_0ArrayVector3@Ogre@@QEAAXM@Z 
??_0ArrayVector3@Ogre@@QEAAXT__m128@@@Z 
??_0ColourValue@Ogre@@QEAAAEAV01@M@Z 
??_0Vector2@Ogre@@QEAAAEAV01@AEBV01@@Z 
??_0Vector2@Ogre@@QEAAAEAV01@M@Z 
??_0Vector3@Ogre@@QEAAAEAV01@AEBV01@@Z 
??_0Vector3@Ogre@@QEAAAEAV01@M@Z 
??_0Vector4@Ogre@@QEAAAEAV01@AEBV01@@Z 
??_0Vector4@Ogre@@QEAAAEAV01@M@Z 
??_7?$ControllerFunction@M@Ogre@@6B@ 
??_7?$ControllerValue@M@Ogre@@6B@ 
??_7?$FactoryObj@VArchive@Ogre@@@Ogre@@6B@ 
??_7?$FactoryObj@VParticleSystemRenderer@Ogre@@@Ogre@@6B@ 
??_7?$Pool@V?$SharedPtr@VResource@Ogre@@@Ogre@@@Ogre@@6B@ 
??_7AbsolutePixelCountLodStrategy@Ogre@@6B@ 
??_7AbstractNode@Ogre@@6B@ 
??_7AnimableObject@Ogre@@6B@ 
??_7AnimableValue@Ogre@@6B@ 
??_7Animation@Ogre@@6B@ 
??_7AnimationContainer@Ogre@@6B@ 
??_7AnimationControllerFunction@Ogre@@6B@ 
??_7AnimationState@Ogre@@6B@ 
??_7AnimationStateControllerValue@Ogre@@6B@ 
??_7AnimationTrack@Ogre@@6B@ 
??_7Archive@Ogre@@6B@ 
??_7ArchiveFactory@Ogre@@6B@ 
??_7ArchiveManager@Ogre@@6B@ 
??_7ArrayMemoryManager@Ogre@@6B@ 
??_7AtomAbstractNode@Ogre@@6B@ 
??_7AutoParamDataSource@Ogre@@6B@ 
??_7AxisAlignedBoxSceneQuery@Ogre@@6BSceneQuery@1@@ 
??_7AxisAlignedBoxSceneQuery@Ogre@@6BSceneQueryListener@1@@ 
??_7BaseInstanceBatchVTF@Ogre@@6BMovableObject@1@@ 
??_7BaseInstanceBatchVTF@Ogre@@6BRenderable@1@@ 
??_7BillboardChain@Ogre@@6BMovableObject@1@@ 
??_7BillboardChain@Ogre@@6BRenderable@1@@ 
??_7BillboardChainFactory@Ogre@@6B@ 
??_7BillboardParticleRenderer@Ogre@@6B@ 
??_7BillboardParticleRendererFactory@Ogre@@6B@ 
??_7BillboardSet@Ogre@@6BMovableObject@1@@ 
??_7BillboardSet@Ogre@@6BRenderable@1@@ 
??_7BillboardSetFactory@Ogre@@6B@ 
??_7Bone@Ogre@@6B@ 
??_7BoneArrayMemoryManager@Ogre@@6B@ 
??_7BoneMemoryManager@Ogre@@6B@ 
??_7BuiltinScriptTranslatorManager@Ogre@@6B@ 
??_7Camera@Ogre@@6BMovableObject@1@@ 
??_7Camera@Ogre@@6BRenderable@1@@ 
??_7CmdAdjacency@GpuProgram@Ogre@@6B@ 
??_7CmdAngle@EmitterCommands@Ogre@@6B@ 
??_7CmdColour@EmitterCommands@Ogre@@6B@ 
??_7CmdColourRangeEnd@EmitterCommands@Ogre@@6B@ 
??_7CmdColourRangeStart@EmitterCommands@Ogre@@6B@ 
??_7CmdComputeGroupDims@GpuProgram@Ogre@@6B@ 
??_7CmdDirPositionRef@EmitterCommands@Ogre@@6B@ 
??_7CmdDirection@EmitterCommands@Ogre@@6B@ 
??_7CmdDuration@EmitterCommands@Ogre@@6B@ 
??_7CmdEmissionRate@EmitterCommands@Ogre@@6B@ 
??_7CmdEmittedEmitter@EmitterCommands@Ogre@@6B@ 
??_7CmdManualNamedConstsFile@GpuProgram@Ogre@@6B@ 
??_7CmdMaxDuration@EmitterCommands@Ogre@@6B@ 
??_7CmdMaxRepeatDelay@EmitterCommands@Ogre@@6B@ 
??_7CmdMaxTTL@EmitterCommands@Ogre@@6B@ 
??_7CmdMaxVelocity@EmitterCommands@Ogre@@6B@ 
??_7CmdMinDuration@EmitterCommands@Ogre@@6B@ 
??_7CmdMinRepeatDelay@EmitterCommands@Ogre@@6B@ 
??_7CmdMinTTL@EmitterCommands@Ogre@@6B@ 
??_7CmdMinVelocity@EmitterCommands@Ogre@@6B@ 
??_7CmdMorph@GpuProgram@Ogre@@6B@ 
??_7CmdName@EmitterCommands@Ogre@@6B@ 
??_7CmdPose@GpuProgram@Ogre@@6B@ 
??_7CmdPosition@EmitterCommands@Ogre@@6B@ 
??_7CmdRepeatDelay@EmitterCommands@Ogre@@6B@ 
??_7CmdSkeletal@GpuProgram@Ogre@@6B@ 
??_7CmdSyntax@GpuProgram@Ogre@@6B@ 
??_7CmdTTL@EmitterCommands@Ogre@@6B@ 
??_7CmdType@GpuProgram@Ogre@@6B@ 
??_7CmdUp@EmitterCommands@Ogre@@6B@ 
??_7CmdVTF@GpuProgram@Ogre@@6B@ 
??_7CmdVelocity@EmitterCommands@Ogre@@6B@ 
??_7Codec@Ogre@@6B@ 
??_7CompositorNode@Ogre@@6B@ 
??_7CompositorNodeDef@Ogre@@6B@ 
??_7CompositorNodeTranslator@Ogre@@6B@ 
??_7CompositorPass@Ogre@@6B@ 
??_7CompositorPassClear@Ogre@@6B@ 
??_7CompositorPassClearDef@Ogre@@6B@ 
??_7CompositorPassDef@Ogre@@6B@ 
??_7CompositorPassProvider@Ogre@@6B@ 
??_7CompositorPassQuad@Ogre@@6B@ 
??_7CompositorPassQuadDef@Ogre@@6B@ 
??_7CompositorPassScene@Ogre@@6B@ 
??_7CompositorPassSceneDef@Ogre@@6B@ 
??_7CompositorPassStencil@Ogre@@6B@ 
??_7CompositorPassStencilDef@Ogre@@6B@ 
??_7CompositorPassTranslator@Ogre@@6B@ 
??_7CompositorShadowMapTargetTranslator@Ogre@@6B@ 
??_7CompositorShadowNode@Ogre@@6B@ 
??_7CompositorShadowNodeDef@Ogre@@6B@ 
??_7CompositorShadowNodeTranslator@Ogre@@6B@ 
??_7CompositorTargetTranslator@Ogre@@6B@ 
??_7CompositorTextureBaseTranslator@Ogre@@6B@ 
??_7CompositorWorkspace@Ogre@@6B@ 
??_7CompositorWorkspaceDef@Ogre@@6B@ 
??_7CompositorWorkspaceTranslator@Ogre@@6B@ 
??_7ConfigFile@Ogre@@6B@ 
??_7CreateCompositorScriptCompilerEvent@Ogre@@6B@ 
??_7CreateGpuProgramScriptCompilerEvent@Ogre@@6B@ 
??_7CreateGpuSharedParametersScriptCompilerEvent@Ogre@@6B@ 
??_7CreateHighLevelGpuProgramScriptCompilerEvent@Ogre@@6B@ 
??_7CreateMaterialScriptCompilerEvent@Ogre@@6B@ 
??_7CreateParticleSystemScriptCompilerEvent@Ogre@@6B@ 
??_7DDSCodec@Ogre@@6B@ 
??_7DataStream@Ogre@@6B@ 
??_7DefaultAxisAlignedBoxSceneQuery@Ogre@@6BSceneQuery@1@@ 
??_7DefaultAxisAlignedBoxSceneQuery@Ogre@@6BSceneQueryListener@1@@ 
??_7DefaultHardwareBufferManager@Ogre@@6B@ 
??_7DefaultHardwareBufferManagerBase@Ogre@@6B@ 
??_7DefaultHardwareCounterBuffer@Ogre@@6B@ 
??_7DefaultHardwareIndexBuffer@Ogre@@6B@ 
??_7DefaultHardwareUniformBuffer@Ogre@@6B@ 
??_7DefaultHardwareVertexBuffer@Ogre@@6B@ 
??_7DefaultIntersectionSceneQuery@Ogre@@6BIntersectionSceneQueryListener@1@@ 
??_7DefaultIntersectionSceneQuery@Ogre@@6BSceneQuery@1@@ 
??_7DefaultPlaneBoundedVolumeListSceneQuery@Ogre@@6BSceneQuery@1@@ 
??_7DefaultPlaneBoundedVolumeListSceneQuery@Ogre@@6BSceneQueryListener@1@@ 
??_7DefaultRaySceneQuery@Ogre@@6BRaySceneQueryListener@1@@ 
??_7DefaultRaySceneQuery@Ogre@@6BSceneQuery@1@@ 
??_7DefaultSceneManager@Ogre@@6B@ 
??_7DefaultSceneManagerFactory@Ogre@@6B@ 
??_7DefaultShadowCameraSetup@Ogre@@6B@ 
??_7DefaultSphereSceneQuery@Ogre@@6BSceneQuery@1@@ 
??_7DefaultSphereSceneQuery@Ogre@@6BSceneQueryListener@1@@ 
??_7DefaultWorkQueue@Ogre@@6B@ 
??_7DefaultWorkQueueBase@Ogre@@6B@ 
??_7DeflateStream@Ogre@@6B@ 
??_7DepthBuffer@Ogre@@6B@ 
??_7DistanceLodBoxStrategy@Ogre@@6B@ 
??_7DistanceLodSphereStrategy@Ogre@@6B@ 
??_7DistanceLodStrategyBase@Ogre@@6B@ 
??_7DynLibManager@Ogre@@6B@ 
??_7EdgeListBuilder@Ogre@@6B@ 
??_7EmbeddedZipArchiveFactory@Ogre@@6B@ 
??_7Entity@Ogre@@6BListener@Resource@1@@ 
??_7Entity@Ogre@@6BMovableObject@1@@ 
??_7EntityFactory@Ogre@@6B@ 
??_7Exception@Ogre@@6B@ 
??_7ExternalTextureSource@Ogre@@6B@ 
??_7FileHandleDataStream@Ogre@@6B@ 
??_7FileNotFoundException@Ogre@@6B@ 
??_7FileStreamDataStream@Ogre@@6B@ 
??_7FileSystemArchive@Ogre@@6B@ 
??_7FileSystemArchiveFactory@Ogre@@6B@ 
??_7FloatGpuParameterControllerValue@Ogre@@6B@ 
??_7FocusedShadowCameraSetup@Ogre@@6B@ 
??_7FrameListener@Ogre@@6B@ 
??_7FrameTimeControllerValue@Ogre@@6B?$ControllerValue@M@1@@ 
??_7FrameTimeControllerValue@Ogre@@6BFrameListener@1@@ 
??_7FreeImageCodec@Ogre@@6B@ 
??_7Frustum@Ogre@@6BMovableObject@1@@ 
??_7Frustum@Ogre@@6BRenderable@1@@ 
??_7GeometryBucket@StaticGeometry@Ogre@@6B@ 
??_7GpuNamedConstantsSerializer@Ogre@@6B@ 
??_7GpuProgram@Ogre@@6B@ 
??_7GpuProgramManager@Ogre@@6B@ 
??_7GpuProgramTranslator@Ogre@@6B@ 
??_7GpuProgramUsage@Ogre@@6B@ 
??_7GpuSharedParameters@Ogre@@6B@ 
??_7HardwareBuffer@Ogre@@6B@ 
??_7HardwareBufferLicensee@Ogre@@6B@ 
??_7HardwareBufferManager@Ogre@@6B@ 
??_7HardwareBufferManagerBase@Ogre@@6B@ 
??_7HardwareCounterBuffer@Ogre@@6B@ 
??_7HardwareIndexBuffer@Ogre@@6B@ 
??_7HardwareOcclusionQuery@Ogre@@6B@ 
??_7HardwarePixelBuffer@Ogre@@6B@ 
??_7HardwareUniformBuffer@Ogre@@6B@ 
??_7HardwareVertexBuffer@Ogre@@6B@ 
??_7HighLevelGpuProgram@Ogre@@6B@ 
??_7HighLevelGpuProgramFactory@Ogre@@6B@ 
??_7HighLevelGpuProgramManager@Ogre@@6B@ 
??_7Hlms@Ogre@@6B@ 
??_7IOException@Ogre@@6B@ 
??_7Image@Ogre@@6B@ 
??_7ImageCodec@Ogre@@6B@ 
??_7ImportAbstractNode@Ogre@@6B@ 
??_7InstanceBatch@Ogre@@6BMovableObject@1@@ 
??_7InstanceBatch@Ogre@@6BRenderable@1@@ 
??_7InstanceBatchHW@Ogre@@6BMovableObject@1@@ 
??_7InstanceBatchHW@Ogre@@6BRenderable@1@@ 
??_7InstanceBatchHW_VTF@Ogre@@6BMovableObject@1@@ 
??_7InstanceBatchHW_VTF@Ogre@@6BRenderable@1@@ 
??_7InstanceBatchShader@Ogre@@6BMovableObject@1@@ 
??_7InstanceBatchShader@Ogre@@6BRenderable@1@@ 
??_7InstanceBatchVTF@Ogre@@6BMovableObject@1@@ 
??_7InstanceBatchVTF@Ogre@@6BRenderable@1@@ 
??_7InstanceManager@Ogre@@6B@ 
??_7InstancedEntity@Ogre@@6B@ 
??_7InternalErrorException@Ogre@@6B@ 
??_7IntersectionSceneQuery@Ogre@@6BIntersectionSceneQueryListener@1@@ 
??_7IntersectionSceneQuery@Ogre@@6BSceneQuery@1@@ 
??_7IntersectionSceneQueryListener@Ogre@@6B@ 
??_7InvalidCallException@Ogre@@6B@ 
??_7InvalidParametersException@Ogre@@6B@ 
??_7InvalidStateException@Ogre@@6B@ 
??_7ItemIdentityException@Ogre@@6B@ 
??_7KeyFrame@Ogre@@6B@ 
??_7KfTransformArrayMemoryManager@Ogre@@6B@ 
??_7LODBucket@StaticGeometry@Ogre@@6B@ 
??_7Light@Ogre@@6B@ 
??_7LightFactory@Ogre@@6B@ 
??_7LinearControllerFunction@Ogre@@6B@ 
??_7Listener@AnimationTrack@Ogre@@6B@ 
??_7Listener@Camera@Ogre@@6B@ 
??_7Listener@MovableObject@Ogre@@6B@ 
??_7Listener@Node@Ogre@@6B@ 
??_7Listener@OldNode@Ogre@@6B@ 
??_7Listener@RenderSystem@Ogre@@6B@ 
??_7Listener@ResourceBackgroundQueue@Ogre@@6B@ 
??_7LodListener@Ogre@@6B@ 
??_7LodStrategy@Ogre@@6B@ 
??_7ManualObject@Ogre@@6B@ 
??_7ManualObjectFactory@Ogre@@6B@ 
??_7ManualObjectSection@ManualObject@Ogre@@6B@ 
??_7ManualResourceLoader@Ogre@@6B@ 
??_7Material@Ogre@@6B@ 
??_7MaterialBucket@StaticGeometry@Ogre@@6B@ 
??_7MaterialManager@Ogre@@6B@ 
??_7MaterialSerializer@Ogre@@6B@ 
??_7MaterialTranslator@Ogre@@6B@ 
??_7MemoryDataStream@Ogre@@6B@ 
??_7Mesh@Ogre@@6BAnimationContainer@1@@ 
??_7Mesh@Ogre@@6BResource@1@@ 
??_7MeshManager@Ogre@@6BManualResourceLoader@1@@ 
??_7MeshManager@Ogre@@6BResourceManager@1@@ 
??_7MeshSerializer@Ogre@@6B@ 
??_7MovableObject@Ogre@@6B@ 
??_7MovableObjectFactory@Ogre@@6B@ 
??_7MovablePlane@Ogre@@6B@ 
??_7MultiRenderTarget@Ogre@@6B@ 
??_7Node@Ogre@@6B@ 
??_7NodeAnimationTrack@Ogre@@6B@ 
??_7NodeArrayMemoryManager@Ogre@@6B@ 
??_7NullEntity@Ogre@@6B@ 
??_7NumericAnimationTrack@Ogre@@6B@ 
??_7NumericKeyFrame@Ogre@@6B@ 
??_7ObjectAbstractNode@Ogre@@6B@ 
??_7ObjectDataArrayMemoryManager@Ogre@@6B@ 
??_7ObjectMemoryManager@Ogre@@6B@ 
??_7OldBone@Ogre@@6B@ 
??_7OldNode@Ogre@@6B@ 
??_7OldNodeAnimationTrack@Ogre@@6B@ 
??_7OldSkeletonInstance@Ogre@@6BAnimationContainer@1@@ 
??_7OldSkeletonInstance@Ogre@@6BResource@1@@ 
??_7OldSkeletonManager@Ogre@@6B@ 
??_7OptimisedUtil@Ogre@@6B@ 
??_7PSSMShadowCameraSetup@Ogre@@6B@ 
??_7ParamCommand@Ogre@@6B@ 
??_7ParticleAffector@Ogre@@6B@ 
??_7ParticleAffectorFactory@Ogre@@6B@ 
??_7ParticleAffectorTranslator@Ogre@@6B@ 
??_7ParticleEmitter@Ogre@@6B@ 
??_7ParticleEmitterFactory@Ogre@@6B@ 
??_7ParticleEmitterTranslator@Ogre@@6B@ 
??_7ParticleSystem@Ogre@@6BMovableObject@1@@ 
??_7ParticleSystem@Ogre@@6BStringInterface@1@@ 
??_7ParticleSystemFactory@Ogre@@6B@ 
??_7ParticleSystemManager@Ogre@@6B@ 
??_7ParticleSystemRenderer@Ogre@@6B@ 
??_7ParticleSystemRendererFactory@Ogre@@6B@ 
??_7ParticleSystemTranslator@Ogre@@6B@ 
??_7ParticleVisualData@Ogre@@6B@ 
??_7Pass@Ogre@@6B@ 
??_7PassTranslator@Ogre@@6B@ 
??_7PassthroughControllerFunction@Ogre@@6B@ 
??_7PatchMesh@Ogre@@6BAnimationContainer@1@@ 
??_7PatchMesh@Ogre@@6BResource@1@@ 
??_7PixelCountLodStrategyBase@Ogre@@6B@ 
??_7PlaneBoundedVolumeListSceneQuery@Ogre@@6BSceneQuery@1@@ 
??_7PlaneBoundedVolumeListSceneQuery@Ogre@@6BSceneQueryListener@1@@ 
??_7PlaneOptimalShadowCameraSetup@Ogre@@6B@ 
??_7Plugin@Ogre@@6B@ 
??_7Pose@Ogre@@6B@ 
??_7PreApplyTextureAliasesScriptCompilerEvent@Ogre@@6B@ 
??_7ProcessNameExclusionScriptCompilerEvent@Ogre@@6B@ 
??_7ProcessResourceNameScriptCompilerEvent@Ogre@@6B@ 
??_7ProfileSessionListener@Ogre@@6B@ 
??_7PropertyAbstractNode@Ogre@@6B@ 
??_7QueuedRenderableVisitor@Ogre@@6B@ 
??_7RaySceneQuery@Ogre@@6BRaySceneQueryListener@1@@ 
??_7RaySceneQuery@Ogre@@6BSceneQuery@1@@ 
??_7RaySceneQueryListener@Ogre@@6B@ 
??_7Rectangle2D@Ogre@@6B@ 
??_7Region@StaticGeometry@Ogre@@6B@ 
??_7RegionSceneQuery@Ogre@@6BSceneQuery@1@@ 
??_7RegionSceneQuery@Ogre@@6BSceneQueryListener@1@@ 
??_7RenderObjectListener@Ogre@@6B@ 
??_7RenderQueue@Ogre@@6B@ 
??_7RenderQueueInvocation@Ogre@@6B@ 
??_7RenderQueueInvocationSequence@Ogre@@6B@ 
??_7RenderQueueListener@Ogre@@6B@ 
??_7RenderSystem@Ogre@@6B@ 
??_7RenderSystemCapabilities@Ogre@@6B@ 
??_7RenderSystemCapabilitiesManager@Ogre@@6B@ 
??_7RenderSystemCapabilitiesSerializer@Ogre@@6B@ 
??_7RenderTarget@Ogre@@6B@ 
??_7RenderTargetListener@Ogre@@6B@ 
??_7RenderTexture@Ogre@@6B@ 
??_7RenderToVertexBuffer@Ogre@@6B@ 
??_7RenderWindow@Ogre@@6B@ 
??_7Renderable@Ogre@@6B@ 
??_7RenderableListener@RenderQueue@Ogre@@6B@ 
??_7RenderingAPIException@Ogre@@6B@ 
??_7RequestHandler@WorkQueue@Ogre@@6B@ 
??_7Resource@Ogre@@6B@ 
??_7ResourceBackgroundQueue@Ogre@@6BRequestHandler@WorkQueue@1@@ 
??_7ResourceBackgroundQueue@Ogre@@6BResponseHandler@WorkQueue@1@@ 
??_7ResourceGroupListener@Ogre@@6B@ 
??_7ResourceGroupManager@Ogre@@6B@ 
??_7ResourceManager@Ogre@@6B@ 
??_7ResourcePool@ResourceManager@Ogre@@6B@ 
??_7ResponseHandler@WorkQueue@Ogre@@6B@ 
??_7RibbonTrail@Ogre@@6B@ 
??_7RibbonTrail@Ogre@@6BMovableObject@1@@ 
??_7RibbonTrail@Ogre@@6BRenderable@1@@ 
??_7RibbonTrailFactory@Ogre@@6B@ 
??_7RuntimeAssertionException@Ogre@@6B@ 
??_7ScaleControllerFunction@Ogre@@6B@ 
??_7SceneManager@Ogre@@6B@ 
??_7SceneManagerFactory@Ogre@@6B@ 
??_7SceneMgrQueuedRenderableVisitor@SceneManager@Ogre@@6B@ 
??_7SceneNode@Ogre@@6B@ 
??_7SceneQuery@Ogre@@6B@ 
??_7SceneQueryListener@Ogre@@6B@ 
??_7ScreenRatioPixelCountLodStrategy@Ogre@@6B@ 
??_7ScriptCompiler@Ogre@@6B@ 
??_7ScriptCompilerListener@Ogre@@6B@ 
??_7ScriptCompilerManager@Ogre@@6B@ 
??_7ScriptLexer@Ogre@@6B@ 
??_7ScriptLoader@Ogre@@6B@ 
??_7ScriptParser@Ogre@@6B@ 
??_7ScriptTranslator@Ogre@@6B@ 
??_7Serializer@Ogre@@6B@ 
??_7ShadowCameraSetup@Ogre@@6B@ 
??_7ShadowTextureManager@Ogre@@6B@ 
??_7SharedParamsTranslator@Ogre@@6B@ 
??_7SimpleRenderable@Ogre@@6BMovableObject@1@@ 
??_7SimpleRenderable@Ogre@@6BRenderable@1@@ 
??_7Skeleton@Ogre@@6BAnimationContainer@1@@ 
??_7Skeleton@Ogre@@6BResource@1@@ 
??_7SkeletonSerializer@Ogre@@6B@ 
??_7SphereSceneQuery@Ogre@@6BSceneQuery@1@@ 
??_7SphereSceneQuery@Ogre@@6BSceneQueryListener@1@@ 
??_7StaticGeometry@Ogre@@6B@ 
??_7StreamSerialiser@Ogre@@6B@ 
??_7StringInterface@Ogre@@6B@ 
??_7SubEntity@Ogre@@6B@ 
??_7TagPoint@Ogre@@6B@ 
??_7TangentSpaceCalc@Ogre@@6B@ 
??_7TechniqueTranslator@Ogre@@6B@ 
??_7TempBlendedBufferInfo@Ogre@@6B@ 
??_7TexCoordModifierControllerValue@Ogre@@6B@ 
??_7Texture@Ogre@@6B@ 
??_7TextureDefinitionBase@Ogre@@6B@ 
??_7TextureFrameControllerValue@Ogre@@6B@ 
??_7TextureManager@Ogre@@6B@ 
??_7TextureSourceTranslator@Ogre@@6B@ 
??_7TextureUnitTranslator@Ogre@@6B@ 
??_7TransformKeyFrame@Ogre@@6B@ 
??_7UnifiedHighLevelGpuProgram@Ogre@@6B@ 
??_7UniformScalableTask@Ogre@@6B@ 
??_7UnimplementedException@Ogre@@6B@ 
??_7UserObjectBindings@Ogre@@6B@ 
??_7VariableAccessAbstractNode@Ogre@@6B@ 
??_7VertexAnimationTrack@Ogre@@6B@ 
??_7VertexBufferBinding@Ogre@@6B@ 
??_7VertexDeclaration@Ogre@@6B@ 
??_7VertexMorphKeyFrame@Ogre@@6B@ 
??_7VertexPoseKeyFrame@Ogre@@6B@ 
??_7Viewport@Ogre@@6B@ 
??_7WaveformControllerFunction@Ogre@@6B@ 
??_7WindowEventListener@Ogre@@6B@ 
??_7WireBoundingBox@Ogre@@6BMovableObject@1@@ 
??_7WireBoundingBox@Ogre@@6BRenderable@1@@ 
??_7WorkQueue@Ogre@@6B@ 
??_7ZipArchive@Ogre@@6B@ 
??_7invalid_data@UTFString@Ogre@@6B@ 
??_B?1??getSingleton@AnimationNameIDMapper@Ogre@@SAPEAV12@XZ@51 
??_FColourValue@Ogre@@QEAAXXZ 
??_FDataStream@Ogre@@QEAAXXZ 
??_FDefaultWorkQueue@Ogre@@QEAAXXZ 
??_FDefaultWorkQueueBase@Ogre@@QEAAXXZ 
??_FMath@Ogre@@QEAAXXZ 
??_FPassthroughControllerFunction@Ogre@@QEAAXXZ 
??_FRoot@Ogre@@QEAAXXZ 
??_FVertexCacheProfiler@Ogre@@QEAAXXZ 
??_FVertexData@Ogre@@QEAAXXZ 
??_U?$AllocatedObject@V?$CategorisedAllocPolicy@$00@Ogre@@@Ogre@@SAPEAX_K@Z 
??_U?$AllocatedObject@V?$CategorisedAllocPolicy@$00@Ogre@@@Ogre@@SAPEAX_KPEBDH1@Z 
??_U?$AllocatedObject@V?$CategorisedAllocPolicy@$01@Ogre@@@Ogre@@SAPEAX_K@Z 
??_U?$AllocatedObject@V?$CategorisedAllocPolicy@$01@Ogre@@@Ogre@@SAPEAX_KPEBDH1@Z 
??_U?$AllocatedObject@V?$CategorisedAllocPolicy@$02@Ogre@@@Ogre@@SAPEAX_K@Z 
??_U?$AllocatedObject@V?$CategorisedAllocPolicy@$02@Ogre@@@Ogre@@SAPEAX_KPEBDH1@Z 
??_U?$AllocatedObject@V?$CategorisedAllocPolicy@$03@Ogre@@@Ogre@@SAPEAX_K@Z 
??_U?$AllocatedObject@V?$CategorisedAllocPolicy@$03@Ogre@@@Ogre@@SAPEAX_KPEBDH1@Z 
??_U?$AllocatedObject@V?$CategorisedAllocPolicy@$04@Ogre@@@Ogre@@SAPEAX_K@Z 
??_U?$AllocatedObject@V?$CategorisedAllocPolicy@$04@Ogre@@@Ogre@@SAPEAX_KPEBDH1@Z 
??_U?$AllocatedObject@V?$CategorisedAllocPolicy@$05@Ogre@@@Ogre@@SAPEAX_K@Z 
??_U?$AllocatedObject@V?$CategorisedAllocPolicy@$05@Ogre@@@Ogre@@SAPEAX_KPEBDH1@Z 
??_U?$AllocatedObject@V?$CategorisedAllocPolicy@$06@Ogre@@@Ogre@@SAPEAX_K@Z 
??_U?$AllocatedObject@V?$CategorisedAllocPolicy@$06@Ogre@@@Ogre@@SAPEAX_KPEBDH1@Z 
??_U?$AllocatedObject@V?$CategorisedAllocPolicy@$0A@@Ogre@@@Ogre@@SAPEAX_K@Z 
??_U?$AllocatedObject@V?$CategorisedAllocPolicy@$0A@@Ogre@@@Ogre@@SAPEAX_KPEBDH1@Z 
??_V?$AllocatedObject@V?$CategorisedAlignAllocPolicy@$02$0A@@Ogre@@@Ogre@@SAXPEAX@Z 
??_V?$AllocatedObject@V?$CategorisedAllocPolicy@$00@Ogre@@@Ogre@@SAXPEAX@Z 
??_V?$AllocatedObject@V?$CategorisedAllocPolicy@$00@Ogre@@@Ogre@@SAXPEAXPEBDH1@Z 
??_V?$AllocatedObject@V?$CategorisedAllocPolicy@$01@Ogre@@@Ogre@@SAXPEAX@Z 
??_V?$AllocatedObject@V?$CategorisedAllocPolicy@$01@Ogre@@@Ogre@@SAXPEAXPEBDH1@Z 
??_V?$AllocatedObject@V?$CategorisedAllocPolicy@$02@Ogre@@@Ogre@@SAXPEAX@Z 
??_V?$AllocatedObject@V?$CategorisedAllocPolicy@$02@Ogre@@@Ogre@@SAXPEAXPEBDH1@Z 
??_V?$AllocatedObject@V?$CategorisedAllocPolicy@$03@Ogre@@@Ogre@@SAXPEAX@Z 
??_V?$AllocatedObject@V?$CategorisedAllocPolicy@$03@Ogre@@@Ogre@@SAXPEAXPEBDH1@Z 
??_V?$AllocatedObject@V?$CategorisedAllocPolicy@$04@Ogre@@@Ogre@@SAXPEAX@Z 
??_V?$AllocatedObject@V?$CategorisedAllocPolicy@$04@Ogre@@@Ogre@@SAXPEAXPEBDH1@Z 
??_V?$AllocatedObject@V?$CategorisedAllocPolicy@$05@Ogre@@@Ogre@@SAXPEAX@Z 
??_V?$AllocatedObject@V?$CategorisedAllocPolicy@$05@Ogre@@@Ogre@@SAXPEAXPEBDH1@Z 
??_V?$AllocatedObject@V?$CategorisedAllocPolicy@$06@Ogre@@@Ogre@@SAXPEAX@Z 
??_V?$AllocatedObject@V?$CategorisedAllocPolicy@$06@Ogre@@@Ogre@@SAXPEAXPEBDH1@Z 
??_V?$AllocatedObject@V?$CategorisedAllocPolicy@$0A@@Ogre@@@Ogre@@SAXPEAX@Z 
??_V?$AllocatedObject@V?$CategorisedAllocPolicy@$0A@@Ogre@@@Ogre@@SAXPEAXPEBDH1@Z 
?ACos4@MathlibSSE2@Ogre@@SA?AT__m128@@T3@@Z 
?ACos@Math@Ogre@@SA?AVRadian@2@M@Z 
?ASin@Math@Ogre@@SA?AVRadian@2@M@Z 
?ATan2@Math@Ogre@@SA?AVRadian@2@MM@Z 
?ATan@Math@Ogre@@SA?AVRadian@2@M@Z 
?AUTODETECT_RESOURCE_GROUP_NAME@ResourceGroupManager@Ogre@@2V?$basic_string@DU?$char_traits@D@std@@V?$allocator@D@2@@std@@A 
?Abs4@MathlibSSE2@Ogre@@SA?AT__m128@@T3@@Z 
?Abs@Math@Ogre@@SA?AVDegree@2@AEBV32@@Z 
?Abs@Math@Ogre@@SA?AVRadian@2@AEBV32@@Z 
?Abs@Math@Ogre@@SAMM@Z 
?AddInternalProgram@ShadowVolumeExtrudeProgram@Ogre@@SAXV?$basic_string@DU?$char_traits@D@std@@V?$allocator@D@2@@std@@0000W4GpuProgramType@2@@Z 
?And@MathlibSSE2@Ogre@@SA?AT__m128@@T3@0@Z 
?And@MathlibSSE2@Ogre@@SA?AT__m128i@@T3@0@Z 
?And@MathlibSSE2@Ogre@@SA?AT__m128i@@T3@I@Z 
?AndNot@MathlibSSE2@Ogre@@SA?AT__m128i@@T3@0@Z 
?AngleUnitsToDegrees@Math@Ogre@@SAMM@Z 
?AngleUnitsToRadians@Math@Ogre@@SAMM@Z 
?AutoConstantDictionary@GpuProgramParameters@Ogre@@1PAUAutoConstantDefinition@12@A 
?BOX_INFINITE@Aabb@Ogre@@2U12@B 
?BOX_INFINITE@ArrayAabb@Ogre@@2V12@B 
?BOX_INFINITE@AxisAlignedBox@Ogre@@2V12@B 
?BOX_NULL@Aabb@Ogre@@2U12@B 
?BOX_NULL@AxisAlignedBox@Ogre@@2V12@B 
?BOX_ZERO@Aabb@Ogre@@2U12@B 
?BOX_ZERO@ArrayAabb@Ogre@@2V12@B 
?Bidiagonalize@Matrix3@Ogre@@KAXAEAV12@00@Z 
?Black@ColourValue@Ogre@@2V12@B 
?Blue@ColourValue@Ogre@@2V12@B 
?BoneCleanupRoutines@BoneArrayMemoryManager@Ogre@@2QBQ6AXPEAD_K01111@ZB 
?CHUNK_HEADER_SIZE@StreamSerialiser@Ogre@@1IA 
?CLIPSPACE2DTOIMAGESPACE@Matrix4@Ogre@@2V12@B 
?Ceil@Math@Ogre@@SAMM@Z 
?Cmov4@ArrayQuaternion@Ogre@@QEAAXT__m128@@AEBV12@@Z 
?Cmov4@ArrayQuaternion@Ogre@@SA?AV12@AEBV12@0T__m128@@@Z 
?Cmov4@ArrayVector3@Ogre@@QEAAXT__m128@@AEBV12@@Z 
?Cmov4@ArrayVector3@Ogre@@SA?AV12@AEBV12@0T__m128@@@Z 
?Cmov4@MathlibSSE2@Ogre@@SA?AT__m128@@T3@00@Z 
?CmovRobust@ArrayVector3@Ogre@@QEAAXT__m128@@AEBV12@@Z 
?CmovRobust@MathlibSSE2@Ogre@@SA?AT__m128@@T3@00@Z 
?CmovRobust@MathlibSSE2@Ogre@@SA?AT__m128i@@T3@00@Z 
?CmovRobust@MathlibSSE2@Ogre@@SA?AU__m128d@@U3@00@Z 
?CollapseMax@MathlibSSE2@Ogre@@SAMT__m128@@@Z 
?CollapseMin@MathlibSSE2@Ogre@@SAMT__m128@@@Z 
?CompareGreater@MathlibSSE2@Ogre@@SA?AT__m128@@T3@0@Z 
?CompareGreaterEqual@MathlibSSE2@Ogre@@SA?AT__m128@@T3@0@Z 
?CompareLess@MathlibSSE2@Ogre@@SA?AT__m128@@T3@0@Z 
?CompareLessEqual@MathlibSSE2@Ogre@@SA?AT__m128@@T3@0@Z 
?Cos4@MathlibSSE2@Ogre@@SA?AT__m128@@T3@@Z 
?Cos@Math@Ogre@@SAMAEBVRadian@2@_N@Z 
?Cos@Math@Ogre@@SAMM_N@Z 
?CreateThread@Threads@Ogre@@SA?AV?$SharedPtr@VThreadHandle@Ogre@@@2@P6AKPEAX@Z_K0@Z 
?DEFAULT_RESOURCE_GROUP_NAME@ResourceGroupManager@Ogre@@2V?$basic_string@DU?$char_traits@D@std@@V?$allocator@D@2@@std@@A 
?DEFAULT_SCHEME_NAME@MaterialManager@Ogre@@2V?$basic_string@DU?$char_traits@D@std@@V?$allocator@D@2@@std@@A 
?DegreesToAngleUnits@Math@Ogre@@SAMM@Z 
?DegreesToRadians@Math@Ogre@@SAMM@Z 
?Determinant@Matrix3@Ogre@@QEBAMXZ 
?DlgProc@ConfigDialog@Ogre@@KA_JPEAUHWND__@@I_K_J@Z 
?DlgProc@ErrorDialog@Ogre@@KA_JPEAUHWND__@@I_K_J@Z 
?Dot@ArrayQuaternion@Ogre@@QEBA?AT__m128@@AEBV12@@Z 
?Dot@Quaternion@Ogre@@QEBAMAEBV12@@Z 
?EPSILON@Matrix3@Ogre@@2MB 
?EXPIRED_DELAY_FRAME_THRESHOLD@HardwareBufferManagerBase@Ogre@@1_KB 
?EigenSolveSymmetric@Matrix3@Ogre@@QEBAXQEAMQEAVVector3@2@@Z 
?ElementsMemSize@BoneArrayMemoryManager@Ogre@@2QB_KB 
?ElementsMemSize@KfTransformArrayMemoryManager@Ogre@@2QB_KB 
?ElementsMemSize@NodeArrayMemoryManager@Ogre@@2QB_KB 
?ElementsMemSize@ObjectDataArrayMemoryManager@Ogre@@2QB_KB 
?Exp@ArrayQuaternion@Ogre@@QEBA?AV12@XZ 
?Exp@Math@Ogre@@SAMM@Z 
?Exp@Quaternion@Ogre@@QEBA?AV12@XZ 
?FACTORY_TYPE_NAME@BillboardChainFactory@Ogre@@2V?$basic_string@DU?$char_traits@D@std@@V?$allocator@D@2@@std@@A 
?FACTORY_TYPE_NAME@BillboardSetFactory@Ogre@@2V?$basic_string@DU?$char_traits@D@std@@V?$allocator@D@2@@std@@A 
?FACTORY_TYPE_NAME@DefaultSceneManagerFactory@Ogre@@2V?$basic_string@DU?$char_traits@D@std@@V?$allocator@D@2@@std@@B 
?FACTORY_TYPE_NAME@EntityFactory@Ogre@@2V?$basic_string@DU?$char_traits@D@std@@V?$allocator@D@2@@std@@A 
?FACTORY_TYPE_NAME@LightFactory@Ogre@@2V?$basic_string@DU?$char_traits@D@std@@V?$allocator@D@2@@std@@A 
?FACTORY_TYPE_NAME@ManualObjectFactory@Ogre@@2V?$basic_string@DU?$char_traits@D@std@@V?$allocator@D@2@@std@@A 
?FACTORY_TYPE_NAME@ParticleSystemFactory@Ogre@@2V?$basic_string@DU?$char_traits@D@std@@V?$allocator@D@2@@std@@A 
?FACTORY_TYPE_NAME@RibbonTrailFactory@Ogre@@2V?$basic_string@DU?$char_traits@D@std@@V?$allocator@D@2@@std@@A 
?FLOAT_MIN@MathlibSSE2@Ogre@@2T__m128@@B 
?FastHash@Ogre@@YAIPEBDHI@Z 
?Floor@Math@Ogre@@SAMM@Z 
?FromAngleAxis@ArrayQuaternion@Ogre@@QEAAXAEBVArrayRadian@2@AEBVArrayVector3@2@@Z 
?FromAngleAxis@Matrix3@Ogre@@QEAAXAEBVVector3@2@AEBVRadian@2@@Z 
?FromAngleAxis@Quaternion@Ogre@@QEAAXAEBVRadian@2@AEBVVector3@2@@Z 
?FromAxes@Matrix3@Ogre@@QEAAXAEBVVector3@2@00@Z 
?FromAxes@Quaternion@Ogre@@QEAAXAEBVVector3@2@00@Z 
?FromAxes@Quaternion@Ogre@@QEAAXPEBVVector3@2@@Z 
?FromEulerAnglesXYZ@Matrix3@Ogre@@QEAAXAEBVRadian@2@00@Z 
?FromEulerAnglesXZY@Matrix3@Ogre@@QEAAXAEBVRadian@2@00@Z 
?FromEulerAnglesYXZ@Matrix3@Ogre@@QEAAXAEBVRadian@2@00@Z 
?FromEulerAnglesYZX@Matrix3@Ogre@@QEAAXAEBVRadian@2@00@Z 
?FromEulerAnglesZXY@Matrix3@Ogre@@QEAAXAEBVRadian@2@00@Z 
?FromEulerAnglesZYX@Matrix3@Ogre@@QEAAXAEBVRadian@2@00@Z 
?FromRotationMatrix@Quaternion@Ogre@@QEAAXAEBVMatrix3@2@@Z 
?GetColumn@Matrix3@Ogre@@QEBA?AVVector3@2@_K@Z 
?GolubKahanStep@Matrix3@Ogre@@KAXAEAV12@00@Z 
?Green@ColourValue@Ogre@@2V12@B 
?HALF@MathlibSSE2@Ogre@@2T__m128@@B 
?HALF_PI@Math@Ogre@@2MB 
?HEADER_ID@StreamSerialiser@Ogre@@1IA 
?IAbs@Math@Ogre@@SAHH@Z 
?ICeil@Math@Ogre@@SAHM@Z 
?IDENTITY@ArrayMatrix4@Ogre@@2V12@B 
?IDENTITY@ArrayMatrixAf4x3@Ogre@@2V12@B 
?IDENTITY@ArrayQuaternion@Ogre@@2V12@B 
?IDENTITY@Matrix3@Ogre@@2V12@B 
?IDENTITY@Matrix4@Ogre@@2V12@B 
?IDENTITY@Quaternion@Ogre@@2V12@B 
?IDENTITY@SimpleMatrixAf4x3@Ogre@@2V12@B 
?IFloor@Math@Ogre@@SAHM@Z 
?INFINITEA@MathlibSSE2@Ogre@@2T__m128@@B 
?INFINITE_FAR_PLANE_ADJUST@Frustum@Ogre@@2MB 
?INTERNAL_RESOURCE_GROUP_NAME@ResourceGroupManager@Ogre@@2V?$basic_string@DU?$char_traits@D@std@@V?$allocator@D@2@@std@@A 
?INVALID_KEY_INDEX@TimeIndex@Ogre@@1IB 
?ISign@Math@Ogre@@SAHH@Z 
?Intermediate@Quaternion@Ogre@@SAXAEBV12@00AEAV12@1@Z 
?Inv4@MathlibSSE2@Ogre@@SA?AT__m128@@T3@@Z 
?InvNonZero4@MathlibSSE2@Ogre@@SA?AT__m128@@T3@@Z 
?InvSqrt4@MathlibSSE2@Ogre@@SA?AT__m128@@T3@@Z 
?InvSqrt@Math@Ogre@@SAMM@Z 
?InvSqrtNonZero4@MathlibSSE2@Ogre@@SA?AT__m128@@T3@@Z 
?Inverse@ArrayQuaternion@Ogre@@QEBA?AV12@XZ 
?Inverse@Matrix3@Ogre@@QEBA?AV12@M@Z 
?Inverse@Matrix3@Ogre@@QEBA_NAEAV12@M@Z 
?Inverse@Quaternion@Ogre@@QEBA?AV12@XZ 
?LAST_AFFINE_COLUMN@MathlibSSE2@Ogre@@2T__m128@@B 
?LAYER_INSTANCE_IN_USE@VisibilityFlags@Ogre@@3IB 
?LAYER_SHADOW_CASTER@VisibilityFlags@Ogre@@3IB 
?LAYER_VISIBILITY@VisibilityFlags@Ogre@@3IB 
?LOG2@Math@Ogre@@2MB 
?Log2@Math@Ogre@@SAMM@Z 
?Log@ArrayQuaternion@Ogre@@QEBA?AV12@XZ 
?Log@Math@Ogre@@SAMM@Z 
?Log@Quaternion@Ogre@@QEBA?AV12@XZ 
?LogN@Math@Ogre@@SAMMM@Z 
?MAX_MEMORY_SLOTS@ArrayMemoryManager@Ogre@@2_KB 
?MAX_NEG@MathlibSSE2@Ogre@@2T__m128@@B 
?MAX_POS@MathlibSSE2@Ogre@@2T__m128@@B 
?Max@MathlibSSE2@Ogre@@SA?AT__m128@@T3@0@Z 
?MaxCubicRoot@Matrix3@Ogre@@KAMQEAM@Z 
?Min@MathlibSSE2@Ogre@@SA?AT__m128@@T3@0@Z 
?Modf4@MathlibSSE2@Ogre@@SA?AT__m128@@T3@AEAT3@@Z 
?MurmurHash3_x64_128@@YAXPEBXHIPEAX@Z 
?MurmurHash3_x86_128@@YAXPEBXHIPEAX@Z 
?MurmurHash3_x86_32@@YAXPEBXHIPEAX@Z 
?NEGATIVE_UNIT_X@ArrayVector3@Ogre@@2V12@B 
?NEGATIVE_UNIT_X@Vector2@Ogre@@2V12@B 
?NEGATIVE_UNIT_X@Vector3@Ogre@@2V12@B 
?NEGATIVE_UNIT_Y@ArrayVector3@Ogre@@2V12@B 
?NEGATIVE_UNIT_Y@Vector2@Ogre@@2V12@B 
?NEGATIVE_UNIT_Y@Vector3@Ogre@@2V12@B 
?NEGATIVE_UNIT_Z@ArrayVector3@Ogre@@2V12@B 
?NEGATIVE_UNIT_Z@Vector3@Ogre@@2V12@B 
?NEG_INFINITY@Math@Ogre@@2MB 
?NEG_ONE@MathlibSSE2@Ogre@@2T__m128@@B 
?NodeCleanupRoutines@NodeArrayMemoryManager@Ogre@@2QBQ6AXPEAD_K01111@ZB 
?Norm@ArrayQuaternion@Ogre@@QEBA?AT__m128@@XZ 
?Norm@Quaternion@Ogre@@QEBAMXZ 
?ONE@MathlibSSE2@Ogre@@2T__m128@@B 
?ONE_DIV_2PI@MathlibSSE2@Ogre@@2T__m128@@B 
?ObjCleanupRoutines@ObjectDataArrayMemoryManager@Ogre@@2QBQ6AXPEAD_K01111@ZB 
?Ogre_InterlockedCompareExchange64@InterlockedCompareExchange64Wrapper@Ogre@@2P6A_JPEC_J_J1@ZEA 
?Ogre_InterlockedDecrement64@InterlockedCompareExchange64Wrapper@Ogre@@SA_JPEC_J@Z 
?Ogre_InterlockedIncrement64@InterlockedCompareExchange64Wrapper@Ogre@@SA_JPEC_J@Z 
?OldNodeAttached@Listener@OldNode@Ogre@@UEAAXPEBV23@@Z 
?OldNodeDestroyed@Listener@OldNode@Ogre@@UEAAXPEBV23@@Z 
?OldNodeDetached@Listener@OldNode@Ogre@@UEAAXPEBV23@@Z 
?OldNodeUpdated@Listener@OldNode@Ogre@@UEAAXPEBV23@@Z 
?OneMinusEpsilon@MathlibSSE2@Ogre@@2T__m128@@B 
?Or@MathlibSSE2@Ogre@@SA?AT__m128@@T3@0@Z 
?Or@MathlibSSE2@Ogre@@SA?AT__m128i@@T3@0@Z 
?Orthonormalize@Matrix3@Ogre@@QEAAXXZ 
?PI@Math@Ogre@@2MB 
?PI@MathlibSSE2@Ogre@@2T__m128@@B 
?POS_INFINITY@Math@Ogre@@2MB 
?Pow@Math@Ogre@@SAMMM@Z 
?QDUDecomposition@Matrix3@Ogre@@QEBAXAEAV12@AEAVVector3@2@1@Z 
?QLAlgorithm@Matrix3@Ogre@@IEAA_NQEAM0@Z 
?QUERY_ENTITY_DEFAULT_MASK@SceneManager@Ogre@@2IA 
?QUERY_FRUSTUM_DEFAULT_MASK@SceneManager@Ogre@@2IA 
?QUERY_FX_DEFAULT_MASK@SceneManager@Ogre@@2IA 
?QUERY_LIGHT_DEFAULT_MASK@SceneManager@Ogre@@2IA 
?QUERY_STATICGEOMETRY_DEFAULT_MASK@SceneManager@Ogre@@2IA 
?RENDER_QUEUE_INVOCATION_SHADOWS@RenderQueueInvocation@Ogre@@2V?$basic_string@DU?$char_traits@D@std@@V?$allocator@D@2@@std@@A 
?RESERVED_VISIBILITY_FLAGS@VisibilityFlags@Ogre@@3IB 
?RESOURCE_SYSTEM_NUM_REFERENCE_COUNTS@ResourceGroupManager@Ogre@@2_KA 
?REVERSE_HEADER_ID@StreamSerialiser@Ogre@@1IA 
?RadiansToAngleUnits@Math@Ogre@@SAMM@Z 
?RadiansToDegrees@Math@Ogre@@SAMM@Z 
?RangeRandom@Math@Ogre@@SAMMM@Z 
?RealEqual@Math@Ogre@@SA_NMMM@Z 
?Red@ColourValue@Ogre@@2V12@B 
?SEGMENT_EMPTY@BillboardChain@Ogre@@1_KB 
?SIGN_MASK@MathlibSSE2@Ogre@@2T__m128@@B 
?SetAll@MathlibSSE2@Ogre@@SA?AT__m128@@M@Z 
?SetAll@MathlibSSE2@Ogre@@SA?AT__m128i@@I@Z 
?SetColumn@Matrix3@Ogre@@QEAAX_KAEBVVector3@2@@Z 
?SetRandomValueProvider@Math@Ogre@@SAXPEAVRandomValueProvider@12@@Z 
?Sign@Math@Ogre@@SA?AVDegree@2@AEBV32@@Z 
?Sign@Math@Ogre@@SA?AVRadian@2@AEBV32@@Z 
?Sign@Math@Ogre@@SAMM@Z 
?Sin4@MathlibSSE2@Ogre@@SA?AT__m128@@T3@@Z 
?Sin@Math@Ogre@@SAMAEBVRadian@2@_N@Z 
?Sin@Math@Ogre@@SAMM_N@Z 
?SinCos4@MathlibSSE2@Ogre@@SAXT__m128@@AEAT3@1@Z 
?SinTable@Math@Ogre@@KAMM@Z 
?SingularValueComposition@Matrix3@Ogre@@QEAAXAEBV12@AEBVVector3@2@0@Z 
?SingularValueDecomposition@Matrix3@Ogre@@QEBAXAEAV12@AEAVVector3@2@0@Z 
?Slerp@ArrayQuaternion@Ogre@@SA?AV12@T__m128@@AEBV12@1@Z 
?Slerp@Quaternion@Ogre@@SA?AV12@MAEBV12@0_N@Z 
?SlerpExtraSpins@Quaternion@Ogre@@SA?AV12@MAEBV12@0H@Z 
?SpectralNorm@Matrix3@Ogre@@QEBAMXZ 
?Sqr@Math@Ogre@@SAMM@Z 
?Sqrt@Math@Ogre@@SA?AVDegree@2@AEBV32@@Z 
?Sqrt@Math@Ogre@@SA?AVRadian@2@AEBV32@@Z 
?Sqrt@Math@Ogre@@SAMM@Z 
?Squad@Quaternion@Ogre@@SA?AV12@MAEBV12@000_N@Z 
?SymmetricRandom@Math@Ogre@@SAMXZ 
?THREE@MathlibSSE2@Ogre@@2T__m128@@B 
?TWO_PI@Math@Ogre@@2MB 
?TWO_PI@MathlibSSE2@Ogre@@2T__m128@@B 
?Tan@Math@Ogre@@SAMAEBVRadian@2@_N@Z 
?Tan@Math@Ogre@@SAMM_N@Z 
?TanTable@Math@Ogre@@KAMM@Z 
?TensorProduct@Matrix3@Ogre@@SAXAEBVVector3@2@0AEAV12@@Z 
?TestFlags4@MathlibSSE2@Ogre@@SA?AT__m128i@@T3@0@Z 
?ToAngleAxis@ArrayQuaternion@Ogre@@QEBAXAEAVArrayRadian@2@AEAVArrayVector3@2@@Z 
?ToAngleAxis@Matrix3@Ogre@@QEBAXAEAVVector3@2@AEAVDegree@2@@Z 
?ToAngleAxis@Matrix3@Ogre@@QEBAXAEAVVector3@2@AEAVRadian@2@@Z 
?ToAngleAxis@Quaternion@Ogre@@QEBAXAEAVDegree@2@AEAVVector3@2@@Z 
?ToAngleAxis@Quaternion@Ogre@@QEBAXAEAVRadian@2@AEAVVector3@2@@Z 
?ToAxes@Quaternion@Ogre@@QEBAXAEAVVector3@2@00@Z 
?ToAxes@Quaternion@Ogre@@QEBAXPEAVVector3@2@@Z 
?ToEulerAnglesXYZ@Matrix3@Ogre@@QEBA_NAEAVRadian@2@00@Z 
?ToEulerAnglesXZY@Matrix3@Ogre@@QEBA_NAEAVRadian@2@00@Z 
?ToEulerAnglesYXZ@Matrix3@Ogre@@QEBA_NAEAVRadian@2@00@Z 
?ToEulerAnglesYZX@Matrix3@Ogre@@QEBA_NAEAVRadian@2@00@Z 
?ToEulerAnglesZXY@Matrix3@Ogre@@QEBA_NAEAVRadian@2@00@Z 
?ToEulerAnglesZYX@Matrix3@Ogre@@QEBA_NAEAVRadian@2@00@Z 
?ToRotationMatrix@Quaternion@Ogre@@QEBAXAEAVMatrix3@2@@Z 
?Transpose@Matrix3@Ogre@@QEBA?AV12@XZ 
?Tridiagonal@Matrix3@Ogre@@IEAAXQEAM0@Z 
?UNDER_USED_FRAME_THRESHOLD@HardwareBufferManagerBase@Ogre@@1_KB 
?UNIT_SCALE@ArrayVector3@Ogre@@2V12@B 
?UNIT_SCALE@Vector2@Ogre@@2V12@B 
?UNIT_SCALE@Vector3@Ogre@@2V12@B 
?UNIT_X@ArrayVector3@Ogre@@2V12@B 
?UNIT_X@Vector2@Ogre@@2V12@B 
?UNIT_X@Vector3@Ogre@@2V12@B 
?UNIT_Y@ArrayVector3@Ogre@@2V12@B 
?UNIT_Y@Vector2@Ogre@@2V12@B 
?UNIT_Y@Vector3@Ogre@@2V12@B 
?UNIT_Z@ArrayVector3@Ogre@@2V12@B 
?UNIT_Z@Vector3@Ogre@@2V12@B 
?UnitInverse@ArrayQuaternion@Ogre@@QEBA?AV12@XZ 
?UnitInverse@Quaternion@Ogre@@QEBA?AV12@XZ 
?UnitRandom@Math@Ogre@@SAMXZ 
?WaitForThreads@Threads@Ogre@@SAXAEBV?$vector@V?$SharedPtr@VThreadHandle@Ogre@@@Ogre@@V?$STLAllocator@V?$SharedPtr@VThreadHandle@Ogre@@@Ogre@@V?$CategorisedAllocPolicy@$0A@@2@@2@@std@@@Z 
?WaitForThreads@Threads@Ogre@@SAX_KPEBV?$SharedPtr@VThreadHandle@Ogre@@@2@@Z 
?White@ColourValue@Ogre@@2V12@B 
?ZERO@ArrayQuaternion@Ogre@@2V12@B 
?ZERO@ArrayVector3@Ogre@@2V12@B 
?ZERO@ColourValue@Ogre@@2V12@B 
?ZERO@Matrix3@Ogre@@2V12@B 
?ZERO@Matrix4@Ogre@@2V12@B 
?ZERO@Quaternion@Ogre@@2V12@B 
?ZERO@Vector2@Ogre@@2V12@B 
?ZERO@Vector3@Ogre@@2V12@B 
?ZERO@Vector4@Ogre@@2V12@B 
?ZEROAFFINE@Matrix4@Ogre@@2V12@B 
?_WndProc@WindowEventUtilities@Ogre@@SA_JPEAUHWND__@@I_K_J@Z 
?_addAnimatedInstance@InstanceBatch@Ogre@@QEAAXPEAVInstancedEntity@2@@Z 
?_addAutotrackingSceneNode@SceneManager@Ogre@@UEAAXPEAVSceneNode@2@0AEBVVector3@2@1@Z 
?_addCompositorTexture@SceneManager@Ogre@@QEAAXUIdString@2@PEBV?$vector@V?$SharedPtr@VTexture@Ogre@@@Ogre@@V?$STLAllocator@V?$SharedPtr@VTexture@Ogre@@@Ogre@@V?$CategorisedAllocPolicy@$0A@@2@@2@@std@@@Z 
?_addDirtyStaticBatch@InstanceManager@Ogre@@QEAAXPEAVInstanceBatch@2@@Z 
?_addRenderSystemCapabilities@RenderSystemCapabilitiesManager@Ogre@@QEAAXAEBV?$basic_string@DU?$char_traits@D@std@@V?$allocator@D@2@@std@@PEAVRenderSystemCapabilities@2@@Z 
?_addRenderWindow@WindowEventUtilities@Ogre@@SAXPEAVRenderWindow@2@@Z 
?_addToDynamicBatchList@InstanceManager@Ogre@@QEAAXPEAVInstanceBatch@2@@Z 
?_applyAnimation@SkeletonAnimation@Ogre@@QEAAXAEBV?$FastArray@UBoneTransform@Ogre@@@2@@Z 
?_applyBaseKeyFrame@Animation@Ogre@@QEAAXXZ 
?_applyBaseKeyFrame@AnimationTrack@Ogre@@UEAAXPEBVKeyFrame@2@@Z 
?_applyBaseKeyFrame@NodeAnimationTrack@Ogre@@UEAAXPEBVKeyFrame@2@@Z 
?_applyBaseKeyFrame@OldNodeAnimationTrack@Ogre@@UEAAXPEBVKeyFrame@2@@Z 
?_applyBaseKeyFrame@VertexAnimationTrack@Ogre@@UEAAXPEBVKeyFrame@2@@Z 
?_applyBaseKeyFrame@VertexPoseKeyFrame@Ogre@@QEAAXPEBV12@@Z 
?_applyMotion@ParticleSystem@Ogre@@IEAAXM@Z 
?_applySceneAnimations@SceneManager@Ogre@@UEAAXXZ 
?_arbitrateMissingTechniqueForActiveScheme@MaterialManager@Ogre@@UEAAPEAVTechnique@2@PEAVMaterial@2@GPEBVRenderable@2@@Z 
?_areRenderStateChangesSuppressed@SceneManager@Ogre@@UEBA_NXZ 
?_autoTrack@Camera@Ogre@@QEAAXXZ 
?_bakeUnusedSlots@SkeletonTrack@Ogre@@QEAAXXZ 
?_become@_base_iterator@UTFString@Ogre@@IEAAXAEBV123@@Z 
?_beginGeometryCount@RenderSystem@Ogre@@UEAAXXZ 
?_beginUpdate@CompositorWorkspace@Ogre@@QEAAX_N@Z 
?_beginUpdate@RenderTarget@Ogre@@UEAAXXZ 
?_buildKeyFrameIndexMap@AnimationTrack@Ogre@@UEAAXAEBV?$vector@MV?$STLAllocator@MV?$CategorisedAllocPolicy@$0A@@Ogre@@@Ogre@@@std@@@Z 
?_buildMapBoneByHandle@Skeleton@Ogre@@UEBAXPEBV12@AEAV?$vector@GV?$STLAllocator@GV?$CategorisedAllocPolicy@$0A@@Ogre@@@Ogre@@@std@@@Z 
?_buildMapBoneByName@Skeleton@Ogre@@UEBAXPEBV12@AEAV?$vector@GV?$STLAllocator@GV?$CategorisedAllocPolicy@$0A@@Ogre@@@Ogre@@@std@@@Z 
?_calcBoundsFromVertexBuffer@Mesh@Ogre@@QEAAXPEAVVertexData@2@AEAVAxisAlignedBox@2@AEAM_N@Z 
?_calcTempSquareDist@Light@Ogre@@QEAAXAEBVVector3@2@@Z 
?_calculateCurrentCastersBox@SceneManager@Ogre@@QEBA?AVAxisAlignedBox@2@IEE@Z 
?_callMemoryChangeListeners@SceneNode@Ogre@@UEAAXXZ 
?_cleanBuffer@UTFString@Ogre@@AEBAXXZ 
?_cleanupDepthBuffers@RenderSystem@Ogre@@QEAAX_N@Z 
?_clearSliceRTT@HardwarePixelBuffer@Ogre@@MEAAX_K@Z 
?_clearUpdatedFlag@Viewport@Ogre@@QEAAXXZ 
?_clone@KeyFrame@Ogre@@UEBAPEAV12@PEAVAnimationTrack@2@@Z 
?_clone@NodeAnimationTrack@Ogre@@QEBAPEAV12@PEAVAnimation@2@@Z 
?_clone@NumericAnimationTrack@Ogre@@QEBAPEAV12@PEAVAnimation@2@@Z 
?_clone@NumericKeyFrame@Ogre@@UEBAPEAVKeyFrame@2@PEAVAnimationTrack@2@@Z 
?_clone@OldNodeAnimationTrack@Ogre@@QEBAPEAV12@PEAVAnimation@2@@Z 
?_clone@TransformKeyFrame@Ogre@@UEBAPEAVKeyFrame@2@PEAVAnimationTrack@2@@Z 
?_clone@VertexAnimationTrack@Ogre@@QEBAPEAV12@PEAVAnimation@2@@Z 
?_clone@VertexMorphKeyFrame@Ogre@@UEBAPEAVKeyFrame@2@PEAVAnimationTrack@2@@Z 
?_clone@VertexPoseKeyFrame@Ogre@@UEBAPEAVKeyFrame@2@PEAVAnimationTrack@2@@Z 
?_collectIdentityOldNodeTracks@Animation@Ogre@@QEBAXAEAV?$set@GU?$less@G@std@@V?$STLAllocator@GV?$CategorisedAllocPolicy@$0A@@Ogre@@@Ogre@@@std@@@Z 
?_collectKeyFrameTimes@AnimationTrack@Ogre@@UEAAXAEAV?$vector@MV?$STLAllocator@MV?$CategorisedAllocPolicy@$0A@@Ogre@@@Ogre@@@std@@@Z 
?_compile@ScriptCompiler@Ogre@@QEAA_NV?$SharedPtr@V?$list@V?$SharedPtr@VAbstractNode@Ogre@@@Ogre@@V?$STLAllocator@V?$SharedPtr@VAbstractNode@Ogre@@@Ogre@@V?$CategorisedAllocPolicy@$0A@@2@@2@@std@@@2@AEBV?$basic_string@DU?$char_traits@D@std@@V?$allocator@D@2@@std@@_N22@Z 
?_compile@Technique@Ogre@@QEAA?AV?$basic_string@DU?$char_traits@D@std@@V?$allocator@D@2@@std@@_N@Z 
?_compileBoneAssignments@Mesh@Ogre@@QEAAXXZ 
?_compileBoneAssignments@SubMesh@Ogre@@QEAAXXZ 
?_compileIlluminationPasses@Technique@Ogre@@QEAAXXZ 
?_computeBoneBoundingRadius@Mesh@Ogre@@QEAAXXZ 
?_cont@UTFString@Ogre@@0EB 
?_cont_mask@UTFString@Ogre@@0EB 
?_copySharedParams@GpuProgramParameters@Ogre@@QEAAXXZ 
?_copySharedParamsToTargetParams@GpuSharedParametersUsage@Ogre@@QEAAXXZ 
?_createAffector@ParticleSystemManager@Ogre@@QEAAPEAVParticleAffector@2@AEBV?$basic_string@DU?$char_traits@D@std@@V?$allocator@D@2@@std@@PEAVParticleSystem@2@@Z 
?_createBuffers@BillboardSet@Ogre@@AEAAXXZ 
?_createEmitter@ParticleSystemManager@Ogre@@QEAAPEAVParticleEmitter@2@AEBV?$basic_string@DU?$char_traits@D@std@@V?$allocator@D@2@@std@@PEAVParticleSystem@2@@Z 
?_createRenderWindows@RenderSystem@Ogre@@UEAA_NAEBV?$vector@URenderWindowDescription@Ogre@@V?$STLAllocator@URenderWindowDescription@Ogre@@V?$CategorisedAllocPolicy@$0A@@2@@2@@std@@AEAV?$vector@PEAVRenderWindow@Ogre@@V?$STLAllocator@PEAVRenderWindow@Ogre@@V?$CategorisedAllocPolicy@$0A@@2@@2@@4@@Z 
?_createRenderer@ParticleSystemManager@Ogre@@QEAAPEAVParticleSystemRenderer@2@AEBV?$basic_string@DU?$char_traits@D@std@@V?$allocator@D@2@@std@@@Z 
?_createSceneNode@SceneManager@Ogre@@UEAAPEAVSceneNode@2@PEAV32@W4SceneMemoryMgrTypes@2@@Z 
?_createVisualData@ParticleSystemRenderer@Ogre@@UEAAPEAVParticleVisualData@2@XZ 
?_cullPhase01@SceneManager@Ogre@@UEAAXPEAVCamera@2@PEBV32@PEAVViewport@2@EE@Z 
?_cullScenePhase01@Camera@Ogre@@QEAAXPEBV12@PEAVViewport@2@EE@Z 
?_defragmentBatch@InstanceBatch@Ogre@@QEAAX_NAEAV?$vector@PEAVInstancedEntity@Ogre@@V?$STLAllocator@PEAVInstancedEntity@Ogre@@V?$CategorisedAllocPolicy@$0A@@2@@2@@std@@AEAV?$vector@VVector4@Ogre@@V?$STLAllocator@VVector4@Ogre@@V?$CategorisedAllocPolicy@$0A@@2@@2@@4@@Z 
?_defragmentBatchDiscard@InstanceBatch@Ogre@@QEAAXXZ 
?_deinitialise@Entity@Ogre@@QEAAXXZ 
?_deinitialize@Bone@Ogre@@QEAAXXZ 
?_deriveShadowFarClipDistance@Light@Ogre@@QEBAMPEBVCamera@2@@Z 
?_deriveShadowNearClipDistance@Light@Ogre@@QEBAMPEBVCamera@2@@Z 
?_destroyAffector@ParticleSystemManager@Ogre@@QEAAXPEAVParticleAffector@2@@Z 
?_destroyBuffers@BillboardSet@Ogre@@AEAAXXZ 
?_destroyEmitter@ParticleSystemManager@Ogre@@QEAAXPEAVParticleEmitter@2@@Z 
?_destroyOldNodeTracks@Animation@Ogre@@QEAAXAEBV?$set@GU?$less@G@std@@V?$STLAllocator@GV?$CategorisedAllocPolicy@$0A@@Ogre@@@Ogre@@@std@@@Z 
?_destroyPool@ConvexBody@Ogre@@SAXXZ 
?_destroyRenderer@ParticleSystemManager@Ogre@@QEAAXPEAVParticleSystemRenderer@2@@Z 
?_destroyVisualData@ParticleSystemRenderer@Ogre@@UEAAXPEAVParticleVisualData@2@@Z 
?_detachDepthBuffer@RenderTarget@Ogre@@UEAAXXZ 
?_detectImplementation@OptimisedUtil@Ogre@@KAPEAV12@XZ 
?_determineAnimationTypes@Mesh@Ogre@@QEBAXXZ 
?_dirtyHash@Pass@Ogre@@QEAAXXZ 
?_dirtyState@Resource@Ogre@@UEAAXXZ 
?_disableAnimation@SkeletonInstance@Ogre@@QEAAXPEAVSkeletonAnimation@2@@Z 
?_disableTextureUnit@RenderSystem@Ogre@@UEAAX_K@Z 
?_disableTextureUnitsFrom@RenderSystem@Ogre@@UEAAX_K@Z 
?_dumpContents@Skeleton@Ogre@@IEAAXAEBV?$basic_string@DU?$char_traits@D@std@@V?$allocator@D@2@@std@@@Z 
?_dumpCsvTracks@SkeletonAnimationDef@Ogre@@QEBAXAEAV?$basic_string@DU?$char_traits@D@std@@V?$allocator@D@2@@std@@@Z 
?_enableAnimation@SkeletonInstance@Ogre@@QEAAXPEAVSkeletonAnimation@2@@Z 
?_endUpdate@CompositorWorkspace@Ogre@@QEAAX_N@Z 
?_endUpdate@RenderTarget@Ogre@@UEAAXXZ 
?_executeTriggerEmitters@ParticleSystem@Ogre@@IEAAXPEAVParticleEmitter@2@IM@Z 
?_expire@ParticleSystem@Ogre@@IEAAXM@Z 
?_findNamedConstantDefinition@GpuProgramParameters@Ogre@@QEBAPEBUGpuConstantDefinition@2@AEBV?$basic_string@DU?$char_traits@D@std@@V?$allocator@D@2@@std@@_N@Z 
?_findRawAutoConstantEntryBool@GpuProgramParameters@Ogre@@QEAAPEBVAutoConstantEntry@12@_K@Z 
?_findRawAutoConstantEntryDouble@GpuProgramParameters@Ogre@@QEAAPEBVAutoConstantEntry@12@_K@Z 
?_findRawAutoConstantEntryFloat@GpuProgramParameters@Ogre@@QEAAPEBVAutoConstantEntry@12@_K@Z 
?_findRawAutoConstantEntryInt@GpuProgramParameters@Ogre@@QEAAPEBVAutoConstantEntry@12@_K@Z 
?_findRawAutoConstantEntryUnsignedInt@GpuProgramParameters@Ogre@@QEAAPEBVAutoConstantEntry@12@_K@Z 
?_findScriptLoader@ResourceGroupManager@Ogre@@QEAAPEAVScriptLoader@2@AEBV?$basic_string@DU?$char_traits@D@std@@V?$allocator@D@2@@std@@@Z 
?_fireEvent@ScriptCompiler@Ogre@@QEAA_NPEAVScriptCompilerEvent@2@PEAX@Z 
?_fireFrameEnded@Root@Ogre@@QEAA_NAEAUFrameEvent@2@@Z 
?_fireFrameEnded@Root@Ogre@@QEAA_NXZ 
?_fireFrameListenerPostAnimationThreads@Root@Ogre@@QEAAXXZ 
?_fireFrameRenderingQueued@Root@Ogre@@QEAA_NAEAUFrameEvent@2@@Z 
?_fireFrameRenderingQueued@Root@Ogre@@QEAA_NXZ 
?_fireFrameStarted@Root@Ogre@@QEAA_NAEAUFrameEvent@2@@Z 
?_fireFrameStarted@Root@Ogre@@QEAA_NXZ 
?_fireLoadingComplete@Resource@Ogre@@UEAAX_N@Z 
?_firePreparingComplete@Resource@Ogre@@UEAAX_N@Z 
?_fireUnloadingComplete@Resource@Ogre@@UEAAXXZ 
?_forceReleaseBufferCopies@HardwareBufferManager@Ogre@@UEAAXAEBVHardwareVertexBufferSharedPtr@2@@Z 
?_forceReleaseBufferCopies@HardwareBufferManager@Ogre@@UEAAXPEAVHardwareVertexBuffer@2@@Z 
?_forceReleaseBufferCopies@HardwareBufferManagerBase@Ogre@@UEAAXAEBVHardwareVertexBufferSharedPtr@2@@Z 
?_forceReleaseBufferCopies@HardwareBufferManagerBase@Ogre@@UEAAXPEAVHardwareVertexBuffer@2@@Z 
?_freeUnusedBufferCopies@HardwareBufferManager@Ogre@@UEAAXXZ 
?_freeUnusedBufferCopies@HardwareBufferManagerBase@Ogre@@UEAAXXZ 
?_generateAST@ScriptCompiler@Ogre@@QEAA?AV?$SharedPtr@V?$list@V?$SharedPtr@VAbstractNode@Ogre@@@Ogre@@V?$STLAllocator@V?$SharedPtr@VAbstractNode@Ogre@@@Ogre@@V?$CategorisedAllocPolicy@$0A@@2@@2@@std@@@2@AEBV?$basic_string@DU?$char_traits@D@std@@V?$allocator@D@2@@std@@0_N11@Z 
?_getActiveCompositorChain@SceneManager@Ogre@@UEBAPEAVCompositorChain@2@XZ 
?_getActiveSchemeIndex@MaterialManager@Ogre@@UEBAGXZ 
?_getAnimController@TextureUnitState@Ogre@@QEBAPEAV?$Controller@M@2@XZ 
?_getAnimableValueNames@AnimableObject@Ogre@@IEAAAEAV?$vector@V?$basic_string@DU?$char_traits@D@std@@V?$allocator@D@2@@std@@V?$STLAllocator@V?$basic_string@DU?$char_traits@D@std@@V?$allocator@D@2@@std@@V?$CategorisedAllocPolicy@$0A@@Ogre@@@Ogre@@@std@@XZ 
?_getAnimationImpl@Mesh@Ogre@@UEBAPEAVAnimation@2@I@Z 
?_getAnimationImpl@OldSkeletonInstance@Ogre@@UEBAPEAVAnimation@2@IPEAPEBULinkedSkeletonAnimationSource@2@@Z 
?_getAnimationImpl@Skeleton@Ogre@@UEBAPEAVAnimation@2@IPEAPEBULinkedSkeletonAnimationSource@2@@Z 
?_getAnimationTypesDirty@Mesh@Ogre@@QEBA_NXZ 
?_getBatchCount@RenderSystem@Ogre@@UEBAIXZ 
?_getBindingDelegate@GpuProgram@Ogre@@UEAAPEAV12@XZ 
?_getBindingDelegate@HighLevelGpuProgram@Ogre@@UEAAPEAVGpuProgram@2@XZ 
?_getBindingDelegate@UnifiedHighLevelGpuProgram@Ogre@@UEAAPEAVGpuProgram@2@XZ 
?_getBindingPoseInverseOrientation@OldBone@Ogre@@QEBAAEBVQuaternion@2@XZ 
?_getBindingPoseInversePosition@OldBone@Ogre@@QEBAAEBVVector3@2@XZ 
?_getBindingPoseInverseScale@OldBone@Ogre@@QEBAAEBVVector3@2@XZ 
?_getBlankLight@AutoParamDataSource@Ogre@@QEBAAEBVLight@2@XZ 
?_getBlendFlags@Pass@Ogre@@IEAAXW4SceneBlendType@2@AEAW4SceneBlendFactor@2@1@Z 
?_getBoneFullTransform@SkeletonInstance@Ogre@@QEBAAEBVSimpleMatrixAf4x3@2@_K@Z 
?_getBoneMatrices@Entity@Ogre@@QEBAPEBVMatrix4@2@XZ 
?_getBoneMatrices@Skeleton@Ogre@@UEAAXPEAVMatrix4@2@@Z 
?_getBufferStr@UTFString@Ogre@@AEBAXXZ 
?_getBufferUTF32Str@UTFString@Ogre@@AEBAXXZ 
?_getBufferWStr@UTFString@Ogre@@AEBAXXZ 
?_getBuffersMarkedForAnimation@Entity@Ogre@@QEBA_NXZ 
?_getBuffersMarkedForAnimation@SubEntity@Ogre@@QEBA_NXZ 
?_getCachedDerivedPosition@Camera@Ogre@@QEBAAEBVVector3@2@XZ 
?_getCachedFrustumPlanes@Frustum@Ogre@@QEBAPEBVPlane@2@XZ 
?_getChannelRoutes@CompositorWorkspaceDef@Ogre@@QEAAAEAV?$list@UChannelRoute@CompositorWorkspaceDef@Ogre@@V?$STLAllocator@UChannelRoute@CompositorWorkspaceDef@Ogre@@V?$CategorisedAllocPolicy@$0A@@3@@3@@std@@XZ 
?_getCharacter@_base_iterator@UTFString@Ogre@@IEBAIXZ 
?_getCombinedVisibilityMask@SceneManager@Ogre@@QEBAIXZ 
?_getCullingMode@RenderSystem@Ogre@@UEBA?AW4CullingMode@2@XZ 
?_getCurrentRenderStage@SceneManager@Ogre@@QEBA?AW4IlluminationRenderStage@12@XZ 
?_getCurrentSceneManager@Root@Ogre@@QEBAPEAVSceneManager@2@XZ 
?_getCustomParam@InstanceBatch@Ogre@@QEAAAEBVVector4@2@PEAVInstancedEntity@2@E@Z 
?_getDefaultViewportMaterialScheme@RenderSystem@Ogre@@UEBAAEBV?$basic_string@DU?$char_traits@D@std@@V?$allocator@D@2@@std@@XZ 
?_getDelegate@UnifiedHighLevelGpuProgram@Ogre@@QEBAAEBV?$SharedPtr@VHighLevelGpuProgram@Ogre@@@2@XZ 
?_getDerivedOrientation@Node@Ogre@@QEBA?AVQuaternion@2@XZ 
?_getDerivedOrientation@OldNode@Ogre@@UEBAAEBVQuaternion@2@XZ 
?_getDerivedOrientationUpdated@Node@Ogre@@QEAA?AVQuaternion@2@XZ 
?_getDerivedPlane@MovablePlane@Ogre@@QEBAAEBVPlane@2@XZ 
?_getDerivedPosition@Node@Ogre@@QEBA?AVVector3@2@XZ 
?_getDerivedPosition@OldNode@Ogre@@UEBAAEBVVector3@2@XZ 
?_getDerivedPositionUpdated@Node@Ogre@@QEAA?AVVector3@2@XZ 
?_getDerivedScale@Node@Ogre@@QEBA?AVVector3@2@XZ 
?_getDerivedScale@OldNode@Ogre@@UEBAAEBVVector3@2@XZ 
?_getDerivedScaleUpdated@Node@Ogre@@QEAA?AVVector3@2@XZ 
?_getDoubleConstantLogicalIndexUse@GpuProgramParameters@Ogre@@IEAAPEAUGpuLogicalIndexUse@2@_K0G@Z 
?_getDoubleConstantPhysicalIndex@GpuProgramParameters@Ogre@@QEAA_K_K0G@Z 
?_getDummyNode@ObjectMemoryManager@Ogre@@QEBAPEAVSceneNode@2@XZ 
?_getEntityMemoryManager@SceneManager@Ogre@@QEAAAEAVObjectMemoryManager@2@W4SceneMemoryMgrTypes@2@@Z 
?_getFaceCount@RenderSystem@Ogre@@UEBAIXZ 
?_getFactory@ParticleSystemManager@Ogre@@QEAAPEAVParticleSystemFactory@2@XZ 
?_getFloatConstantLogicalIndexUse@GpuProgramParameters@Ogre@@IEAAPEAUGpuLogicalIndexUse@2@_K0G@Z 
?_getFloatConstantPhysicalIndex@GpuProgramParameters@Ogre@@QEAA_K_K0G@Z 
?_getFullTransform@Bone@Ogre@@QEBAAEBVSimpleMatrixAf4x3@2@XZ 
?_getFullTransform@Node@Ogre@@QEBAAEBVMatrix4@2@XZ 
?_getFullTransform@OldNode@Ogre@@UEBAAEBVMatrix4@2@XZ 
?_getFullTransformUpdated@Bone@Ogre@@QEAAAEBVSimpleMatrixAf4x3@2@XZ 
?_getFullTransformUpdated@Node@Ogre@@QEAAAEBVMatrix4@2@XZ 
?_getHardwareVertexAnimVertexData@Entity@Ogre@@QEBAPEAVVertexData@2@XZ 
?_getHardwareVertexAnimVertexData@SubEntity@Ogre@@QEAAPEAVVertexData@2@XZ 
?_getHardwareVertexBuffer@Pose@Ogre@@QEBAAEBVHardwareVertexBufferSharedPtr@2@PEBVVertexData@2@@Z 
?_getImpl@RenderTarget@Ogre@@UEAAPEAVImpl@12@XZ 
?_getIndexToBoneMap@InstanceBatch@Ogre@@QEBAPEBV?$FastArray@G@2@XZ 
?_getIntConstantLogicalIndexUse@GpuProgramParameters@Ogre@@IEAAPEAUGpuLogicalIndexUse@2@_K0G@Z 
?_getIntConstantPhysicalIndex@GpuProgramParameters@Ogre@@QEAA_K_K0G@Z 
?_getIterator@ParticleSystem@Ogre@@QEAA?AVParticleIterator@2@XZ 
?_getKeyFrames@SkeletonTrack@Ogre@@QEAAAEAV?$vector@UKeyFrameRig@Ogre@@V?$STLAllocator@UKeyFrameRig@Ogre@@V?$CategorisedAllocPolicy@$0A@@2@@2@@std@@XZ 
?_getLightList@MovableObject@Ogre@@QEAAPEAV?$HashedVector@ULightClosest@Ogre@@@2@XZ 
?_getLocalSpaceTransform@Bone@Ogre@@QEBAAEBVSimpleMatrixAf4x3@2@XZ 
?_getLodBiasInverse@Camera@Ogre@@QEBAMXZ 
?_getLodValueArray@Mesh@Ogre@@QEBAPEBV?$FastArray@M@2@XZ 
?_getLodValues@Material@Ogre@@QEBAPEBV?$FastArray@M@2@XZ 
?_getManager@MovableObject@Ogre@@QEBAPEAVSceneManager@2@XZ 
?_getMemoryBlock@SkeletonInstance@Ogre@@QEBAPEBXXZ 
?_getMemoryUniqueOffset@SkeletonInstance@Ogre@@QEBAPEBXXZ 
?_getMeshRef@InstanceBatch@Ogre@@QEAAAEAV?$SharedPtr@VMesh@Ogre@@@2@XZ 
?_getMeshReference@InstanceBatch@Ogre@@QEBAAEBV?$SharedPtr@VMesh@Ogre@@@2@XZ 
?_getNodeTrackList@Animation@Ogre@@QEBAAEBV?$vector@PEAVNodeAnimationTrack@Ogre@@V?$STLAllocator@PEAVNodeAnimationTrack@Ogre@@V?$CategorisedAllocPolicy@$0A@@2@@2@@std@@XZ 
?_getNumBoneMatrices@Entity@Ogre@@QEBAGXZ 
?_getNumRenderedBatches@Camera@Ogre@@QEBAIXZ 
?_getNumRenderedFaces@Camera@Ogre@@QEBAIXZ 
?_getNumericTrackList@Animation@Ogre@@QEBAAEBV?$map@GPEAVNumericAnimationTrack@Ogre@@U?$less@G@std@@V?$STLAllocator@U?$pair@$$CBGPEAVNumericAnimationTrack@Ogre@@@std@@V?$CategorisedAllocPolicy@$0A@@Ogre@@@2@@std@@XZ 
?_getObjectData@MovableObject@Ogre@@QEAAAEAUObjectData@2@XZ 
?_getOffsetTransform@OldBone@Ogre@@QEBAXAEAVMatrix4@2@@Z 
?_getOldNodeTrackList@Animation@Ogre@@QEBAAEBV?$map@GPEAVOldNodeAnimationTrack@Ogre@@U?$less@G@std@@V?$STLAllocator@U?$pair@$$CBGPEAVOldNodeAnimationTrack@Ogre@@@std@@V?$CategorisedAllocPolicy@$0A@@Ogre@@@2@@std@@XZ 
?_getOsHandle@ThreadHandle@Ogre@@QEBAPEAXXZ 
?_getOutputChannel@CompositorWorkspaceDef@Ogre@@QEBAIXZ 
?_getOutputNode@CompositorWorkspaceDef@Ogre@@QEBAAEBUIdString@2@XZ 
?_getOwner@InstancedEntity@Ogre@@QEBAPEAVInstanceBatch@2@XZ 
?_getParentNodeFullTransform@MovableObject@Ogre@@QEBAAEBVMatrix4@2@XZ 
?_getPasses@CompositorNode@Ogre@@QEBAAEBV?$vector@PEAVCompositorPass@Ogre@@V?$STLAllocator@PEAVCompositorPass@Ogre@@V?$CategorisedAllocPolicy@$0A@@2@@2@@std@@XZ 
?_getQueueGroupIterator@RenderQueue@Ogre@@QEAA?AV?$MapIterator@V?$map@EPEAVRenderQueueGroup@Ogre@@U?$less@E@std@@V?$STLAllocator@U?$pair@$$CBEPEAVRenderQueueGroup@Ogre@@@std@@V?$CategorisedAllocPolicy@$0A@@Ogre@@@2@@std@@@2@XZ 
?_getQueueGroupIterator@RenderQueue@Ogre@@QEBA?AV?$ConstMapIterator@V?$map@EPEAVRenderQueueGroup@Ogre@@U?$less@E@std@@V?$STLAllocator@U?$pair@$$CBEPEAVRenderQueueGroup@Ogre@@@std@@V?$CategorisedAllocPolicy@$0A@@Ogre@@@2@@std@@@2@XZ 
?_getRenderOperation@SubMesh@Ogre@@QEAAXAEAVRenderOperation@2@G@Z 
?_getRenderQueueInvocationSequence@Viewport@Ogre@@QEAAPEAVRenderQueueInvocationSequence@2@XZ 
?_getRenderSystemData@GpuProgramParameters@Ogre@@QEBAAEBVAny@2@XZ 
?_getRenderSystemData@GpuSharedParameters@Ogre@@QEBAAEBVAny@2@XZ 
?_getRenderSystemData@GpuSharedParametersUsage@Ogre@@QEBAAEBVAny@2@XZ 
?_getResourceManager@ResourceGroupManager@Ogre@@QEAAPEAVResourceManager@2@AEBV?$basic_string@DU?$char_traits@D@std@@V?$allocator@D@2@@std@@@Z 
?_getSchemeIndex@MaterialManager@Ogre@@UEAAGAEBV?$basic_string@DU?$char_traits@D@std@@V?$allocator@D@2@@std@@@Z 
?_getSchemeIndex@Technique@Ogre@@QEBAGXZ 
?_getSchemeName@MaterialManager@Ogre@@UEAAAEBV?$basic_string@DU?$char_traits@D@std@@V?$allocator@D@2@@std@@G@Z 
?_getSkelAnimTempBufferInfo@Entity@Ogre@@QEAAPEAVTempBlendedBufferInfo@2@XZ 
?_getSkelAnimTempBufferInfo@SubEntity@Ogre@@QEAAPEAVTempBlendedBufferInfo@2@XZ 
?_getSkelAnimVertexData@Entity@Ogre@@QEBAPEAVVertexData@2@XZ 
?_getSkelAnimVertexData@SubEntity@Ogre@@QEAAPEAVVertexData@2@XZ 
?_getSoftwareVertexAnimVertexData@Entity@Ogre@@QEBAPEAVVertexData@2@XZ 
?_getSoftwareVertexAnimVertexData@SubEntity@Ogre@@QEAAPEAVVertexData@2@XZ 
?_getSortMode@BillboardParticleRenderer@Ogre@@UEBA?AW4SortMode@2@XZ 
?_getSortMode@BillboardSet@Ogre@@UEBA?AW4SortMode@2@XZ 
?_getSubMeshIndex@Mesh@Ogre@@QEBAGAEBV?$basic_string@DU?$char_traits@D@std@@V?$allocator@D@2@@std@@@Z 
?_getTexturePtr@TextureUnitState@Ogre@@QEBAAEBV?$SharedPtr@VTexture@Ogre@@@2@XZ 
?_getTexturePtr@TextureUnitState@Ogre@@QEBAAEBV?$SharedPtr@VTexture@Ogre@@@2@_K@Z 
?_getTextureUnitWithContentTypeIndex@Pass@Ogre@@QEBA_KW4ContentType@TextureUnitState@2@_K@Z 
?_getTimeIndex@Animation@Ogre@@QEBA?AVTimeIndex@2@M@Z 
?_getTmpVisibleObjectsList@SceneManager@Ogre@@QEAAAEAV?$FastArray@V?$FastArray@PEAVMovableObject@Ogre@@@Ogre@@@2@XZ 
?_getTotalRenderQueues@ObjectMemoryManager@Ogre@@QEBA_KXZ 
?_getTransform@Bone@Ogre@@QEAAAEAUBoneTransform@2@XZ 
?_getTransform@Node@Ogre@@QEAAAEAUTransform@2@XZ 
?_getTransformArray@SkeletonInstance@Ogre@@QEBAAEBV?$FastArray@UBoneTransform@Ogre@@@2@XZ 
?_getUnsignedIntConstantLogicalIndexUse@GpuProgramParameters@Ogre@@IEAAPEAUGpuLogicalIndexUse@2@_K0G@Z 
?_getUnsignedIntConstantPhysicalIndex@GpuProgramParameters@Ogre@@QEAA_K_K0G@Z 
?_getVertexAnimTempBufferInfo@Entity@Ogre@@QEAAPEAVTempBlendedBufferInfo@2@XZ 
?_getVertexAnimTempBufferInfo@SubEntity@Ogre@@QEAAPEAVTempBlendedBufferInfo@2@XZ 
?_getVertexAnimTempBufferInfo@SubEntity@Ogre@@QEBAPEBVTempBlendedBufferInfo@2@XZ 
?_getVertexCount@RenderSystem@Ogre@@UEBAIXZ 
?_getVertexTrackList@Animation@Ogre@@QEBAAEBV?$map@GPEAVVertexAnimationTrack@Ogre@@U?$less@G@std@@V?$STLAllocator@U?$pair@$$CBGPEAVVertexAnimationTrack@Ogre@@@std@@V?$CategorisedAllocPolicy@$0A@@Ogre@@@2@@std@@XZ 
?_getViewport@RenderSystem@Ogre@@UEAAPEAVViewport@2@XZ 
?_get_index@_base_iterator@UTFString@Ogre@@IEBA_KXZ 
?_growToDepth@BoneMemoryManager@Ogre@@QEAAXAEBV?$vector@_KV?$STLAllocator@_KV?$CategorisedAllocPolicy@$0A@@Ogre@@@Ogre@@@std@@@Z 
?_handleLodEvents@SceneManager@Ogre@@QEAAXXZ 
?_init@UTFString@Ogre@@AEAAXXZ 
?_initAnimationState@Mesh@Ogre@@QEAAXPEAVAnimationStateSet@2@@Z 
?_initAnimationState@OldSkeletonInstance@Ogre@@UEAAXPEAVAnimationStateSet@2@@Z 
?_initAnimationState@Skeleton@Ogre@@UEAAXPEAVAnimationStateSet@2@@Z 
?_initParticle@ParticleAffector@Ogre@@UEAAXPEAVParticle@2@@Z 
?_initParticle@ParticleEmitter@Ogre@@UEAAXPEAVParticle@2@@Z 
?_initRenderTargets@RenderSystem@Ogre@@UEAAXXZ 
?_initWireBoundingBox@WireBoundingBox@Ogre@@IEAAXXZ 
?_initialise@Entity@Ogre@@QEAAX_N@Z 
?_initialise@MeshManager@Ogre@@QEAAXXZ 
?_initialise@ParticleSystemManager@Ogre@@QEAAXXZ 
?_initialise@RenderSystem@Ogre@@UEAAPEAVRenderWindow@2@_NAEBV?$basic_string@DU?$char_traits@D@std@@V?$allocator@D@2@@std@@@Z 
?_initialisePool@ConvexBody@Ogre@@SAXXZ 
?_initialize@Bone@Ogre@@QEAAXIPEAVBoneMemoryManager@2@PEAV12@PEBVArrayMatrixAf4x3@2@@Z 
?_injectRenderWithPass@SceneManager@Ogre@@UEAAXPEAVPass@2@PEAVRenderable@2@PEAVCamera@2@_N3@Z 
?_isAnimated@Entity@Ogre@@QEBA_NXZ 
?_isManualLodLevel@Mesh@Ogre@@QEBA_NG@Z 
?_isSkeletonAnimated@Entity@Ogre@@QEBA_NXZ 
?_isUpdated@Viewport@Ogre@@QEBA_NXZ 
?_jump_to@_base_iterator@UTFString@Ogre@@IEAAX_K@Z 
?_keyFrameDataChanged@AnimationTrack@Ogre@@UEBAXXZ 
?_keyFrameDataChanged@NodeAnimationTrack@Ogre@@UEBAXXZ 
?_keyFrameDataChanged@OldNodeAnimationTrack@Ogre@@UEBAXXZ 
?_keyFrameListChanged@Animation@Ogre@@QEAAXXZ 
?_lead1@UTFString@Ogre@@0EB 
?_lead1_mask@UTFString@Ogre@@0EB 
?_lead2@UTFString@Ogre@@0EB 
?_lead2_mask@UTFString@Ogre@@0EB 
?_lead3@UTFString@Ogre@@0EB 
?_lead3_mask@UTFString@Ogre@@0EB 
?_lead4@UTFString@Ogre@@0EB 
?_lead4_mask@UTFString@Ogre@@0EB 
?_lead5@UTFString@Ogre@@0EB 
?_lead5_mask@UTFString@Ogre@@0EB 
?_load@GpuProgramUsage@Ogre@@QEAAXXZ 
?_load@Pass@Ogre@@QEAAXXZ 
?_load@Technique@Ogre@@QEAAXXZ 
?_load@TextureUnitState@Ogre@@QEAAXXZ 
?_loadImages@Texture@Ogre@@UEAAXAEBV?$vector@PEBVImage@Ogre@@V?$STLAllocator@PEBVImage@Ogre@@V?$CategorisedAllocPolicy@$0A@@2@@2@@std@@@Z 
?_load_buffer_UTF32@UTFString@Ogre@@AEBAXXZ 
?_load_buffer_UTF8@UTFString@Ogre@@AEBAXXZ 
?_load_buffer_WStr@UTFString@Ogre@@AEBAXXZ 
?_markBuffersUnusedForAnimation@SubEntity@Ogre@@QEAAXXZ 
?_markBuffersUsedForAnimation@Entity@Ogre@@QEAAXXZ 
?_markBuffersUsedForAnimation@SubEntity@Ogre@@QEAAXXZ 
?_markClean@GpuSharedParameters@Ogre@@QEAAXXZ 
?_markDirty@GpuSharedParameters@Ogre@@QEAAXXZ 
?_markGpuParamsDirty@SceneManager@Ogre@@UEAAXG@Z 
?_markTransformSharingDirty@InstanceBatch@Ogre@@QEAAXXZ 
?_memoryRebased@Bone@Ogre@@QEAAXXZ 
?_mergeSkeletonAnimations@Skeleton@Ogre@@UEAAXPEBV12@AEBV?$vector@GV?$STLAllocator@GV?$CategorisedAllocPolicy@$0A@@Ogre@@@Ogre@@@std@@AEBV?$vector@IV?$STLAllocator@IV?$CategorisedAllocPolicy@$0A@@Ogre@@@Ogre@@@4@@Z 
?_moveNext@_base_iterator@UTFString@Ogre@@IEAAXXZ 
?_movePrev@_base_iterator@UTFString@Ogre@@IEAAXXZ 
?_msListeners@WindowEventUtilities@Ogre@@2V?$multimap@PEAVRenderWindow@Ogre@@PEAVWindowEventListener@2@U?$less@PEAVRenderWindow@Ogre@@@std@@V?$STLAllocator@U?$pair@QEAVRenderWindow@Ogre@@PEAVWindowEventListener@2@@std@@V?$CategorisedAllocPolicy@$0A@@Ogre@@@2@@std@@A 
?_msWindows@WindowEventUtilities@Ogre@@2V?$vector@PEAVRenderWindow@Ogre@@V?$STLAllocator@PEAVRenderWindow@Ogre@@V?$CategorisedAllocPolicy@$0A@@2@@2@@std@@A 
?_notifyAfterIlluminationPassesCreated@MaterialManager@Ogre@@UEAAXPEAVTechnique@2@@Z 
?_notifyAllResourcesRemoved@ResourceGroupManager@Ogre@@QEAAXPEAVResourceManager@2@@Z 
?_notifyAnimationStateEnabled@AnimationStateSet@Ogre@@QEAAXPEAVAnimationState@2@_N@Z 
?_notifyAttached@BillboardParticleRenderer@Ogre@@UEAAXPEAVNode@2@@Z 
?_notifyAttached@Entity@Ogre@@UEAAXPEAVNode@2@@Z 
?_notifyAttached@InstancedEntity@Ogre@@UEAAXPEAVNode@2@@Z 
?_notifyAttached@MovableObject@Ogre@@UEAAXPEAVNode@2@@Z 
?_notifyAttached@ParticleSystem@Ogre@@UEAAXPEAVNode@2@@Z 
?_notifyBeforeIlluminationPassesCleared@MaterialManager@Ogre@@UEAAXPEAVTechnique@2@@Z 
?_notifyBillboardResized@BillboardSet@Ogre@@UEAAXXZ 
?_notifyBillboardRotated@BillboardSet@Ogre@@UEAAXXZ 
?_notifyCleared@CompositorNode@Ogre@@QEAAXXZ 
?_notifyContainer@Animation@Ogre@@QEAAXPEAVAnimationContainer@2@@Z 
?_notifyConterBufferDestroyed@HardwareBufferManager@Ogre@@QEAAXPEAVHardwareCounterBuffer@2@@Z 
?_notifyCounterBufferDestroyed@HardwareBufferManagerBase@Ogre@@QEAAXPEAVHardwareCounterBuffer@2@@Z 
?_notifyCurrentCamera@BillboardParticleRenderer@Ogre@@UEAAXPEAVCamera@2@@Z 
?_notifyCurrentCamera@BillboardSet@Ogre@@UEAAXPEAVCamera@2@@Z 
?_notifyCurrentCamera@Entity@Ogre@@QEAAXPEAVCamera@2@@Z 
?_notifyCurrentCamera@Frustum@Ogre@@QEAAXPEAVCamera@2@@Z 
?_notifyCurrentCamera@MovablePlane@Ogre@@QEAAXPEAVCamera@2@@Z 
?_notifyDefaultDimensions@BillboardParticleRenderer@Ogre@@UEAAXMM@Z 
?_notifyDirty@AnimationStateSet@Ogre@@QEAAXXZ 
?_notifyEntityMaterialLodChanged@SceneManager@Ogre@@QEAAXAEAUEntityMaterialLodChangedEvent@2@@Z 
?_notifyEntityMeshLodChanged@SceneManager@Ogre@@QEAAXAEAUEntityMeshLodChangedEvent@2@@Z 
?_notifyIndex@Pass@Ogre@@QEAAXG@Z 
?_notifyIndexBufferDestroyed@HardwareBufferManager@Ogre@@QEAAXPEAVHardwareIndexBuffer@2@@Z 
?_notifyIndexBufferDestroyed@HardwareBufferManagerBase@Ogre@@QEAAXPEAVHardwareIndexBuffer@2@@Z 
?_notifyManager@MovableObject@Ogre@@QEAAXPEAVSceneManager@2@@Z 
?_notifyManualBoneStateChange@Skeleton@Ogre@@UEAAXPEAVOldBone@2@@Z 
?_notifyManualBonesDirty@Skeleton@Ogre@@UEAAXXZ 
?_notifyMovableObjectLodChanged@SceneManager@Ogre@@QEAAXAEAUMovableObjectLodChangedEvent@2@@Z 
?_notifyNeedsRecompile@Material@Ogre@@QEAAXXZ 
?_notifyNeedsRecompile@Pass@Ogre@@QEAAXXZ 
?_notifyNeedsRecompile@Technique@Ogre@@QEAAXXZ 
?_notifyNeedsRecompile@TextureUnitState@Ogre@@QEAAXXZ 
?_notifyOrigin@ParticleSystem@Ogre@@QEAAXAEBV?$basic_string@DU?$char_traits@D@std@@V?$allocator@D@2@@std@@@Z 
?_notifyOrigin@Resource@Ogre@@UEAAXAEBV?$basic_string@DU?$char_traits@D@std@@V?$allocator@D@2@@std@@@Z 
?_notifyOwner@Billboard@Ogre@@QEAAXPEAVBillboardSet@2@@Z 
?_notifyOwner@Particle@Ogre@@QEAAXPEAVParticleSystem@2@@Z 
?_notifyParent@TextureUnitState@Ogre@@QEAAXPEAVPass@2@@Z 
?_notifyParentNodeMemoryChanged@MovableObject@Ogre@@UEAAXXZ 
?_notifyParticleCleared@ParticleSystemRenderer@Ogre@@UEAAXAEAV?$list@PEAVParticle@Ogre@@V?$STLAllocator@PEAVParticle@Ogre@@V?$CategorisedAllocPolicy@$0A@@2@@2@@std@@@Z 
?_notifyParticleEmitted@ParticleSystemRenderer@Ogre@@UEAAXPEAVParticle@2@@Z 
?_notifyParticleExpired@ParticleSystemRenderer@Ogre@@UEAAXPEAVParticle@2@@Z 
?_notifyParticleMoved@ParticleSystemRenderer@Ogre@@UEAAXAEAV?$list@PEAVParticle@Ogre@@V?$STLAllocator@PEAVParticle@Ogre@@V?$CategorisedAllocPolicy@$0A@@2@@2@@std@@@Z 
?_notifyParticleQuota@BillboardParticleRenderer@Ogre@@UEAAX_K@Z 
?_notifyParticleResized@BillboardParticleRenderer@Ogre@@UEAAXXZ 
?_notifyParticleResized@ParticleSystem@Ogre@@UEAAXXZ 
?_notifyParticleResized@ParticleSystemRenderer@Ogre@@UEAAXXZ 
?_notifyParticleRotated@BillboardParticleRenderer@Ogre@@UEAAXXZ 
?_notifyParticleRotated@ParticleSystem@Ogre@@UEAAXXZ 
?_notifyParticleRotated@ParticleSystemRenderer@Ogre@@UEAAXXZ 
?_notifyRenderTargetAttached@DepthBuffer@Ogre@@UEAAXPEAVRenderTarget@2@@Z 
?_notifyRenderTargetDetached@DepthBuffer@Ogre@@UEAAXPEAVRenderTarget@2@@Z 
?_notifyRenderedBatches@Camera@Ogre@@QEAAXI@Z 
?_notifyRenderedFaces@Camera@Ogre@@QEAAXI@Z 
?_notifyReorganiseEmittedEmitterData@ParticleSystem@Ogre@@IEAAXXZ 
?_notifyResourceCreated@ResourceGroupManager@Ogre@@QEAAXAEAV?$SharedPtr@VResource@Ogre@@@2@@Z 
?_notifyResourceGroupChanged@ResourceGroupManager@Ogre@@QEAAXAEBV?$basic_string@DU?$char_traits@D@std@@V?$allocator@D@2@@std@@PEAVResource@2@@Z 
?_notifyResourceLoaded@ResourceManager@Ogre@@UEAAXPEAVResource@2@@Z 
?_notifyResourceRemoved@ResourceGroupManager@Ogre@@QEAAXAEAV?$SharedPtr@VResource@Ogre@@@2@@Z 
?_notifyResourceTouched@ResourceManager@Ogre@@UEAAXPEAVResource@2@@Z 
?_notifyResourceUnloaded@ResourceManager@Ogre@@UEAAXPEAVResource@2@@Z 
?_notifySkeleton@Mesh@Ogre@@QEAAXAEAV?$SharedPtr@VSkeleton@Ogre@@@2@@Z 
?_notifyStaticDirty@InstanceBatch@Ogre@@UEAAXXZ 
?_notifyStaticDirty@InstancedEntity@Ogre@@UEBAXXZ 
?_notifyStaticDirty@MovableObject@Ogre@@UEBAXXZ 
?_notifyStaticDirty@Node@Ogre@@UEBAXXZ 
?_notifyStaticDirty@SceneNode@Ogre@@UEBAXXZ 
?_notifyUniformBufferDestroyed@HardwareBufferManager@Ogre@@QEAAXPEAVHardwareUniformBuffer@2@@Z 
?_notifyUniformBufferDestroyed@HardwareBufferManagerBase@Ogre@@QEAAXPEAVHardwareUniformBuffer@2@@Z 
?_notifyVertexBufferDestroyed@HardwareBufferManager@Ogre@@QEAAXPEAVHardwareVertexBuffer@2@@Z 
?_notifyVertexBufferDestroyed@HardwareBufferManagerBase@Ogre@@QEAAXPEAVHardwareVertexBuffer@2@@Z 
?_notifyViewport@Camera@Ogre@@QEAAXPEAVViewport@2@@Z 
?_notifyVisualData@Particle@Ogre@@QEAAXPEAVParticleVisualData@2@@Z 
?_notifyWorldGeometryStageEnded@ResourceGroupManager@Ogre@@QEAAXXZ 
?_notifyWorldGeometryStageStarted@ResourceGroupManager@Ogre@@QEAAXAEBV?$basic_string@DU?$char_traits@D@std@@V?$allocator@D@2@@std@@@Z 
?_pauseFrame@RenderSystem@Ogre@@UEAAPEAURenderSystemContext@12@XZ 
?_pauseRendering@SceneManager@Ogre@@UEAAPEAURenderContext@12@XZ 
?_popCurrentSceneManager@Root@Ogre@@QEAAXPEAVSceneManager@2@@Z 
?_prepare@Pass@Ogre@@QEAAXXZ 
?_prepare@Technique@Ogre@@QEAAXXZ 
?_prepare@TextureUnitState@Ogre@@QEAAXXZ 
?_processNextRequest@DefaultWorkQueueBase@Ogre@@UEAAXXZ 
?_pushCurrentSceneManager@Root@Ogre@@QEAAXPEAVSceneManager@2@@Z 
?_queueSkiesForRendering@SceneManager@Ogre@@UEAAXPEAVCamera@2@@Z 
?_rationaliseBoneAssignments@Mesh@Ogre@@QEAAG_KAEAV?$multimap@_KUVertexBoneAssignment_s@Ogre@@U?$less@_K@std@@V?$STLAllocator@U?$pair@$$CB_KUVertexBoneAssignment_s@Ogre@@@std@@V?$CategorisedAllocPolicy@$0A@@Ogre@@@2@@std@@@Z 
?_readRawConstants@GpuProgramParameters@Ogre@@QEAAX_K0PEAH@Z 
?_readRawConstants@GpuProgramParameters@Ogre@@QEAAX_K0PEAM@Z 
?_recalculateHash@Pass@Ogre@@QEAAXXZ 
?_refreshAnimationState@Mesh@Ogre@@QEAAXPEAVAnimationStateSet@2@@Z 
?_refreshAnimationState@OldSkeletonInstance@Ogre@@UEAAXPEAVAnimationStateSet@2@@Z 
?_refreshAnimationState@Skeleton@Ogre@@UEAAXPEAVAnimationStateSet@2@@Z 
?_registerResourceManager@ResourceGroupManager@Ogre@@QEAAXAEBV?$basic_string@DU?$char_traits@D@std@@V?$allocator@D@2@@std@@PEAVResourceManager@2@@Z 
?_registerScriptLoader@ResourceGroupManager@Ogre@@QEAAXPEAVScriptLoader@2@@Z 
?_releaseBufferCopies@HardwareBufferManager@Ogre@@UEAAX_N@Z 
?_releaseBufferCopies@HardwareBufferManagerBase@Ogre@@UEAAX_N@Z 
?_removeAnimatedInstance@InstanceBatch@Ogre@@QEAAXPEBVInstancedEntity@2@@Z 
?_removeAutotrackingSceneNode@SceneManager@Ogre@@UEAAXPEAVSceneNode@2@@Z 
?_removeCompositorTextures@SceneManager@Ogre@@QEAAX_K@Z 
?_removeFromDynamicBatchList@InstanceManager@Ogre@@QEAAXPEAVInstanceBatch@2@@Z 
?_removeRenderWindow@WindowEventUtilities@Ogre@@SAXPEAVRenderWindow@2@@Z 
?_render@RenderSystem@Ogre@@UEAAXAEBVRenderOperation@2@@Z 
?_renderPhase02@SceneManager@Ogre@@UEAAXPEAVCamera@2@PEBV32@PEAVViewport@2@EE_N@Z 
?_renderQueueGroupObjects@SceneManager@Ogre@@UEAAXPEAVRenderQueueGroup@2@W4OrganisationMode@QueuedRenderableCollection@2@@Z 
?_renderScenePhase02@Camera@Ogre@@QEAAXPEBV12@PEAVViewport@2@EE_N@Z 
?_renderUsingReadBackAsTexture@RenderSystem@Ogre@@UEAAXIV?$basic_string@DU?$char_traits@D@std@@V?$allocator@D@2@@std@@I@Z 
?_renderVisibleObjects@SceneManager@Ogre@@UEAAXXZ 
?_resetRenderedRqs@Camera@Ogre@@QEAAX_K@Z 
?_restoreBuffersForUnusedAnimation@SubEntity@Ogre@@QEAAX_N@Z 
?_resumeFrame@RenderSystem@Ogre@@UEAAXPEAURenderSystemContext@12@@Z 
?_resumeRendering@SceneManager@Ogre@@UEAAXPEAURenderContext@12@@Z 
?_seekFwd@_base_iterator@UTFString@Ogre@@IEAAX_K@Z 
?_seekRev@_base_iterator@UTFString@Ogre@@IEAAX_K@Z 
?_setActiveCompositorChain@SceneManager@Ogre@@UEAAXPEAVCompositorChain@2@@Z 
?_setBindingType@RenderSystem@Ogre@@UEAAXW4BindingType@TextureUnitState@2@@Z 
?_setBlendMask@AnimationState@Ogre@@QEAAXPEBV?$vector@MV?$STLAllocator@MV?$CategorisedAllocPolicy@$0A@@Ogre@@@Ogre@@@std@@@Z 
?_setBlendMaskData@AnimationState@Ogre@@QEAAXPEBM@Z 
?_setBoneBoundingRadius@Mesh@Ogre@@QEAAXM@Z 
?_setBoundingSphereRadius@Mesh@Ogre@@QEAAXM@Z 
?_setBounds@Mesh@Ogre@@QEAAXAEBVAxisAlignedBox@2@_N@Z 
?_setCharacter@_base_iterator@UTFString@Ogre@@IEAAHI@Z 
?_setComputeTexture@RenderSystem@Ogre@@UEAAX_KAEBV?$SharedPtr@VTexture@Ogre@@@2@@Z 
?_setCurrentRenderStage@SceneManager@Ogre@@QEAAXW4IlluminationRenderStage@12@@Z 
?_setCurrentShadowNode@SceneManager@Ogre@@QEAAXPEAVCompositorShadowNode@2@@Z 
?_setCustomCamera@CompositorPassScene@Ogre@@QEAAXPEAVCamera@2@@Z 
?_setCustomParam@InstanceBatch@Ogre@@QEAAXPEAVInstancedEntity@2@EAEBVVector4@2@@Z 
?_setDerivedOrientation@Node@Ogre@@QEAAXAEBVQuaternion@2@@Z 
?_setDerivedOrientation@OldNode@Ogre@@UEAAXAEBVQuaternion@2@@Z 
?_setDerivedPosition@Node@Ogre@@QEAAXAEBVVector3@2@@Z 
?_setDerivedPosition@OldNode@Ogre@@UEAAXAEBVVector3@2@@Z 
?_setDestinationRenderSystem@SceneManager@Ogre@@UEAAXPEAVRenderSystem@2@@Z 
?_setGeometryTexture@RenderSystem@Ogre@@UEAAX_KAEBV?$SharedPtr@VTexture@Ogre@@@2@@Z 
?_setId@IdObject@Ogre@@IEAAXI@Z 
?_setInstancesPerBatch@InstanceBatch@Ogre@@QEAAX_K@Z 
?_setLodInfo@Mesh@Ogre@@QEAAXG@Z 
?_setLodUsage@Mesh@Ogre@@QEAAXGAEBUMeshLodUsage@2@@Z 
?_setLogicalIndexes@GpuProgramParameters@Ogre@@QEAAXAEBV?$SharedPtr@UGpuLogicalBufferStruct@Ogre@@@2@0000@Z 
?_setMaterial@BillboardParticleRenderer@Ogre@@UEAAXAEAV?$SharedPtr@VMaterial@Ogre@@@2@@Z 
?_setMaxUsedSlot@SkeletonTrack@Ogre@@QEAAXI@Z 
?_setName@TextureDefinition@TextureDefinitionBase@Ogre@@QEAAXUIdString@3@@Z 
?_setNamedConstants@GpuProgramParameters@Ogre@@QEAAXAEBV?$SharedPtr@UGpuNamedConstants@Ogre@@@2@@Z 
?_setNodeParent@Bone@Ogre@@QEAAXPEAVNode@2@@Z 
?_setNullNodeMemoryManager@Node@Ogre@@QEAAXXZ 
?_setOsHandle@ThreadHandle@Ogre@@QEAAXPEAX@Z 
?_setPass@SceneManager@Ogre@@UEAAPEBVPass@2@PEBV32@_N1@Z 
?_setPoolId@DepthBuffer@Ogre@@QEAAXG@Z 
?_setPrimary@RenderWindow@Ogre@@IEAAXXZ 
?_setProperty@Hlms@Ogre@@QEAAXUIdString@2@H@Z 
?_setRawAutoConstant@GpuProgramParameters@Ogre@@QEAAX_KW4AutoConstantType@12@0G0@Z 
?_setRawAutoConstantReal@GpuProgramParameters@Ogre@@QEAAX_KW4AutoConstantType@12@MG0@Z 
?_setRenderSystemData@GpuProgramParameters@Ogre@@QEBAXAEBVAny@2@@Z 
?_setRenderSystemData@GpuSharedParameters@Ogre@@QEBAXAEBVAny@2@@Z 
?_setRenderSystemData@GpuSharedParametersUsage@Ogre@@QEBAXAEBVAny@2@@Z 
?_setRenderedRqs@Camera@Ogre@@QEAAX_K0@Z 
?_setReverseBindPtr@Bone@Ogre@@QEAAXPEBVArrayMatrixAf4x3@2@@Z 
?_setShadowCasterTechnique@SceneManager@Ogre@@QEAAXAEBV?$basic_string@DU?$char_traits@D@std@@V?$allocator@D@2@@std@@@Z 
?_setSkeletonDef@SkeletonAnimationDef@Ogre@@QEAAXPEBVSkeletonDef@2@@Z 
?_setSkyBox@SceneManager@Ogre@@UEAAX_NAEBV?$basic_string@DU?$char_traits@D@std@@V?$allocator@D@2@@std@@MEAEBVQuaternion@2@1@Z 
?_setSkyDome@SceneManager@Ogre@@UEAAX_NAEBV?$basic_string@DU?$char_traits@D@std@@V?$allocator@D@2@@std@@MMMEAEBVQuaternion@2@HHH1@Z 
?_setSkyPlane@SceneManager@Ogre@@UEAAX_NAEBVPlane@2@AEBV?$basic_string@DU?$char_traits@D@std@@V?$allocator@D@2@@std@@MMEMHH2@Z 
?_setSubMeshLodFaceList@Mesh@Ogre@@QEAAXGGPEAVIndexData@2@@Z 
?_setTessellationDomainTexture@RenderSystem@Ogre@@UEAAX_KAEBV?$SharedPtr@VTexture@Ogre@@@2@@Z 
?_setTessellationHullTexture@RenderSystem@Ogre@@UEAAX_KAEBV?$SharedPtr@VTexture@Ogre@@@2@@Z 
?_setTexture@RenderSystem@Ogre@@UEAAX_K_NAEBV?$basic_string@DU?$char_traits@D@std@@V?$allocator@D@2@@std@@@Z 
?_setTextureProjectionRelativeTo@RenderSystem@Ogre@@UEAAX_NAEBVVector3@2@@Z 
?_setTexturePtr@TextureUnitState@Ogre@@QEAAXAEBV?$SharedPtr@VTexture@Ogre@@@2@@Z 
?_setTexturePtr@TextureUnitState@Ogre@@QEAAXAEBV?$SharedPtr@VTexture@Ogre@@@2@_K@Z 
?_setTextureUnitFiltering@RenderSystem@Ogre@@UEAAX_KW4FilterOptions@2@11@Z 
?_setTextureUnitSettings@RenderSystem@Ogre@@UEAAX_KAEAVTextureUnitState@2@@Z 
?_setTwin@ObjectMemoryManager@Ogre@@QEAAXW4SceneMemoryMgrTypes@2@PEAV12@@Z 
?_setUpdateShadowNode@CompositorPassScene@Ogre@@QEAAX_N@Z 
?_setVertexTexture@RenderSystem@Ogre@@UEAAX_KAEBV?$SharedPtr@VTexture@Ogre@@@2@@Z 
?_setViewport@SceneManager@Ogre@@QEAAXPEAVViewport@2@@Z 
?_setVisibilityMask@Viewport@Ogre@@QEAAXI@Z 
?_setWorldMatrices@RenderSystem@Ogre@@UEAAXPEBVMatrix4@2@G@Z 
?_sortBillboards@BillboardSet@Ogre@@UEAAXPEAVCamera@2@@Z 
?_sortParticles@ParticleSystem@Ogre@@IEAAXPEAVCamera@2@@Z 
?_split@Pass@Ogre@@QEAAPEAV12@G@Z 
?_supportsSkeletalAnimation@InstanceBatch@Ogre@@QEBA?AW4SkeletalAnimationMode@12@XZ 
?_suppressRenderStateChanges@SceneManager@Ogre@@UEAAX_N@Z 
?_swapAllFinalTargets@CompositorManager2@Ogre@@QEAAXXZ 
?_swapFinalTarget@CompositorWorkspace@Ogre@@QEAAXXZ 
?_syncAddedRemovedFrameListeners@Root@Ogre@@IEAAXXZ 
?_test_begin@_base_iterator@UTFString@Ogre@@IEBA_NXZ 
?_test_end@_base_iterator@UTFString@Ogre@@IEBA_NXZ 
?_threadMain@DefaultWorkQueue@Ogre@@UEAAXXZ 
?_threadsWorkingHard@SceneManager@Ogre@@0_NA 
?_timeUpdate@RibbonTrail@Ogre@@UEAAXM@Z 
?_triggerAffectors@ParticleSystem@Ogre@@IEAAXM@Z 
?_triggerEmitters@ParticleSystem@Ogre@@IEAAXM@Z 
?_unload@GpuProgramUsage@Ogre@@QEAAXXZ 
?_unload@Pass@Ogre@@QEAAXXZ 
?_unload@Technique@Ogre@@QEAAXXZ 
?_unload@TextureUnitState@Ogre@@QEAAXXZ 
?_unprepare@Pass@Ogre@@QEAAXXZ 
?_unprepare@Technique@Ogre@@QEAAXXZ 
?_unprepare@TextureUnitState@Ogre@@QEAAXXZ 
?_unregisterResourceManager@ResourceGroupManager@Ogre@@QEAAXAEBV?$basic_string@DU?$char_traits@D@std@@V?$allocator@D@2@@std@@@Z 
?_unregisterScriptLoader@ResourceGroupManager@Ogre@@QEAAXPEAVScriptLoader@2@@Z 
?_update@CompositorManager2@Ogre@@QEAAXXZ 
?_update@CompositorNode@Ogre@@QEAAXPEBVCamera@2@PEAVSceneManager@2@@Z 
?_update@CompositorShadowNode@Ogre@@QEAAXPEAVCamera@2@PEBV32@PEAVSceneManager@2@@Z 
?_update@CompositorWorkspace@Ogre@@QEAAXXZ 
?_update@OldNode@Ogre@@UEAAX_N0@Z 
?_update@ParticleSystem@Ogre@@QEAAXM@Z 
?_updateAllRenderTargets@Root@Ogre@@QEAA_NAEAUFrameEvent@2@@Z 
?_updateAllRenderTargets@Root@Ogre@@QEAA_NXZ 
?_updateAnimation@Entity@Ogre@@QEAAXXZ 
?_updateAnimation@InstancedEntity@Ogre@@QEAA_NXZ 
?_updateAnimationForce@Entity@Ogre@@QEAAXXZ 
?_updateAnimations@InstanceBatch@Ogre@@QEAAXXZ 
?_updateAnimations@InstanceManager@Ogre@@QEAAXXZ 
?_updateAutoParams@GpuProgramParameters@Ogre@@QEAAXPEBVAutoParamDataSource@2@G@Z 
?_updateAutoParams@Pass@Ogre@@QEBAXPEBVAutoParamDataSource@2@G@Z 
?_updateBoneStartTransforms@SkeletonInstance@Ogre@@QEAAXXZ 
?_updateBounds@BillboardSet@Ogre@@UEAAXXZ 
?_updateBounds@InstanceBatch@Ogre@@QEAAXXZ 
?_updateBounds@ParticleSystem@Ogre@@QEAAXXZ 
?_updateBoundsFromVertexBuffers@Mesh@Ogre@@QEAAX_N@Z 
?_updateCompiledBoneAssignments@Mesh@Ogre@@QEAAXXZ 
?_updateCullPhase01@Viewport@Ogre@@QEAAXPEAVCamera@2@PEBV32@EE@Z 
?_updateCustomGpuParameter@Light@Ogre@@UEBAXGAEBVAutoConstantEntry@GpuProgramParameters@2@PEAV42@@Z 
?_updateCustomGpuParameter@Renderable@Ogre@@UEBAXAEBVAutoConstantEntry@GpuProgramParameters@2@PEAV42@@Z 
?_updateCustomGpuParameter@SubEntity@Ogre@@UEBAXAEBVAutoConstantEntry@GpuProgramParameters@2@PEAV42@@Z 
?_updateDimensions@Viewport@Ogre@@QEAAXXZ 
?_updateDirtyBatches@InstanceManager@Ogre@@QEAAXXZ 
?_updateDirtyBatchesThread@InstanceManager@Ogre@@QEAAX_K@Z 
?_updateEntitiesBoundsThread@InstanceBatch@Ogre@@QEAAX_K@Z 
?_updateFromParent@Bone@Ogre@@IEAAXXZ 
?_updateFromParent@Node@Ogre@@IEAAXXZ 
?_updateFromParent@OldNode@Ogre@@MEBAXXZ 
?_updateFromShadow@HardwareBuffer@Ogre@@UEAAXXZ 
?_updateRenderPhase02@Viewport@Ogre@@QEAAXPEAVCamera@2@PEBV32@EE@Z 
?_updateRenderQueue@BaseInstanceBatchVTF@Ogre@@UEAAXPEAVRenderQueue@2@PEAVCamera@2@PEBV42@@Z 
?_updateRenderQueue@BillboardChain@Ogre@@UEAAXPEAVRenderQueue@2@PEAVCamera@2@PEBV42@@Z 
?_updateRenderQueue@BillboardParticleRenderer@Ogre@@UEAAXPEAVRenderQueue@2@PEAVCamera@2@PEBV42@AEAV?$list@PEAVParticle@Ogre@@V?$STLAllocator@PEAVParticle@Ogre@@V?$CategorisedAllocPolicy@$0A@@2@@2@@std@@_N@Z 
?_updateRenderQueue@BillboardSet@Ogre@@UEAAXPEAVRenderQueue@2@PEAVCamera@2@PEBV42@@Z 
?_updateRenderQueue@Entity@Ogre@@UEAAXPEAVRenderQueue@2@PEAVCamera@2@PEBV42@@Z 
?_updateRenderQueue@Frustum@Ogre@@UEAAXPEAVRenderQueue@2@PEAVCamera@2@PEBV42@@Z 
?_updateRenderQueue@InstanceBatch@Ogre@@UEAAXPEAVRenderQueue@2@PEAVCamera@2@PEBV42@@Z 
?_updateRenderQueue@InstanceBatchHW@Ogre@@UEAAXPEAVRenderQueue@2@PEAVCamera@2@PEBV42@@Z 
?_updateRenderQueue@InstanceBatchHW_VTF@Ogre@@UEAAXPEAVRenderQueue@2@PEAVCamera@2@PEBV42@@Z 
?_updateRenderQueue@InstancedEntity@Ogre@@UEAAXPEAVRenderQueue@2@PEAVCamera@2@PEBV42@@Z 
?_updateRenderQueue@Light@Ogre@@UEAAXPEAVRenderQueue@2@PEAVCamera@2@PEBV42@@Z 
?_updateRenderQueue@ManualObject@Ogre@@UEAAXPEAVRenderQueue@2@PEAVCamera@2@PEBV42@@Z 
?_updateRenderQueue@MovablePlane@Ogre@@UEAAXPEAVRenderQueue@2@PEAVCamera@2@PEBV42@@Z 
?_updateRenderQueue@NullEntity@Ogre@@UEAAXPEAVRenderQueue@2@PEAVCamera@2@PEBV42@@Z 
?_updateRenderQueue@ParticleSystem@Ogre@@UEAAXPEAVRenderQueue@2@PEAVCamera@2@PEBV42@@Z 
?_updateRenderQueue@Region@StaticGeometry@Ogre@@UEAAXPEAVRenderQueue@3@PEAVCamera@3@PEBV53@@Z 
?_updateRenderQueue@SimpleRenderable@Ogre@@UEAAXPEAVRenderQueue@2@PEAVCamera@2@PEBV42@@Z 
?_updateTransforms@Skeleton@Ogre@@UEAAXXZ 
?_updateViewportCullPhase01@RenderTarget@Ogre@@QEAAXPEAVViewport@2@PEAVCamera@2@PEBV42@EE@Z 
?_updateViewportRenderPhase02@RenderTarget@Ogre@@UEAAXPEAVViewport@2@PEAVCamera@2@PEBV42@EE_N@Z 
?_updateWorkerThread@SceneManager@Ogre@@QEAAKPEAVThreadHandle@2@@Z 
?_utf16_char_length@UTFString@Ogre@@SA_KG@Z 
?_utf16_char_length@UTFString@Ogre@@SA_KI@Z 
?_utf16_independent_char@UTFString@Ogre@@SA_NG@Z 
?_utf16_surrogate_follow@UTFString@Ogre@@SA_NG@Z 
?_utf16_surrogate_lead@UTFString@Ogre@@SA_NG@Z 
?_utf16_to_utf32@UTFString@Ogre@@SA_KQEBGAEAI@Z 
?_utf32_to_utf16@UTFString@Ogre@@SA_KAEBIQEAG@Z 
?_utf32_to_utf8@UTFString@Ogre@@SA_KAEBIQEAE@Z 
?_utf8_char_length@UTFString@Ogre@@SA_KE@Z 
?_utf8_char_length@UTFString@Ogre@@SA_KI@Z 
?_utf8_start_char@UTFString@Ogre@@SA_NE@Z 
?_utf8_to_utf32@UTFString@Ogre@@SA_KQEBEAEAI@Z 
?_validateAndFinish@CompositorShadowNodeDef@Ogre@@UEAAXXZ 
?_validateFinalTarget@CompositorWorkspace@Ogre@@QEAAXXZ 
?_verifyUTF8@UTFString@Ogre@@SA_KAEBV?$basic_string@DU?$char_traits@D@std@@V?$allocator@D@2@@std@@@Z 
?_verifyUTF8@UTFString@Ogre@@SA_KPEBE@Z 
?_writeRawConstant@GpuProgramParameters@Ogre@@QEAAX_KAEBVColourValue@2@0@Z 
?_writeRawConstant@GpuProgramParameters@Ogre@@QEAAX_KAEBVMatrix4@2@0@Z 
?_writeRawConstant@GpuProgramParameters@Ogre@@QEAAX_KAEBVVector2@2@@Z 
?_writeRawConstant@GpuProgramParameters@Ogre@@QEAAX_KAEBVVector3@2@@Z 
?_writeRawConstant@GpuProgramParameters@Ogre@@QEAAX_KAEBVVector4@2@0@Z 
?_writeRawConstant@GpuProgramParameters@Ogre@@QEAAX_KH@Z 
?_writeRawConstant@GpuProgramParameters@Ogre@@QEAAX_KI@Z 
?_writeRawConstant@GpuProgramParameters@Ogre@@QEAAX_KM0@Z 
?_writeRawConstant@GpuProgramParameters@Ogre@@QEAAX_KM@Z 
?_writeRawConstant@GpuProgramParameters@Ogre@@QEAAX_KPEBVMatrix4@2@0@Z 
?_writeRawConstants@GpuProgramParameters@Ogre@@QEAAX_KPEBH0@Z 
?_writeRawConstants@GpuProgramParameters@Ogre@@QEAAX_KPEBI0@Z 
?_writeRawConstants@GpuProgramParameters@Ogre@@QEAAX_KPEBM0@Z 
?_writeRawConstants@GpuProgramParameters@Ogre@@QEAAX_KPEBN0@Z 
?abortAllRequests@DefaultWorkQueueBase@Ogre@@UEAAXXZ 
?abortPendingRequestsByChannel@DefaultWorkQueueBase@Ogre@@UEAAXG@Z 
?abortRequest@DefaultWorkQueueBase@Ogre@@UEAAX_K@Z 
?abortRequest@Request@WorkQueue@Ogre@@QEBAXXZ 
?abortRequest@ResourceBackgroundQueue@Ogre@@QEAAX_K@Z 
?abortRequest@Response@WorkQueue@Ogre@@QEAAXXZ 
?abortRequestsByChannel@DefaultWorkQueueBase@Ogre@@UEAAXG@Z 
?absDotProduct@ArrayVector3@Ogre@@QEBA?AT__m128@@AEBV12@@Z 
?absDotProduct@Vector3@Ogre@@QEBAMAEBV12@@Z 
?acceptVisitor@QueuedRenderableCollection@Ogre@@QEBAXPEAVQueuedRenderableVisitor@2@W4OrganisationMode@12@@Z 
?acceptVisitorAscending@QueuedRenderableCollection@Ogre@@IEBAXPEAVQueuedRenderableVisitor@2@@Z 
?acceptVisitorDescending@QueuedRenderableCollection@Ogre@@IEBAXPEAVQueuedRenderableVisitor@2@@Z 
?acceptVisitorGrouped@QueuedRenderableCollection@Ogre@@IEBAXPEAVQueuedRenderableVisitor@2@@Z 
?add@RenderQueueInvocationSequence@Ogre@@QEAAPEAVRenderQueueInvocation@2@EAEBV?$basic_string@DU?$char_traits@D@std@@V?$allocator@D@2@@std@@@Z 
?add@RenderQueueInvocationSequence@Ogre@@QEAAXPEAVRenderQueueInvocation@2@@Z 
?add@SkeletonManager@Ogre@@QEAAXV?$SharedPtr@VSkeletonDef@Ogre@@@2@@Z 
?addActiveEmittedEmittersToFreeList@ParticleSystem@Ogre@@IEAAXXZ 
?addAffector@ParticleSystem@Ogre@@QEAAPEAVParticleAffector@2@AEBV?$basic_string@DU?$char_traits@D@std@@V?$allocator@D@2@@std@@@Z 
?addAffectorFactory@ParticleSystemManager@Ogre@@QEAAXPEAVParticleAffectorFactory@2@@Z 
?addAnimation@OldSkeletonInstance@Ogre@@QEAAXPEAVAnimation@2@I@Z 
?addArchiveFactory@ArchiveManager@Ogre@@QEAAXPEAVArchiveFactory@2@@Z 
?addBaseParameters@ParticleAffector@Ogre@@IEAAXXZ 
?addBaseParameters@ParticleEmitter@Ogre@@IEAAXXZ 
?addBaseParams@ExternalTextureSource@Ogre@@QEAAXXZ 
?addBoneAssignment@Mesh@Ogre@@QEAAXAEBUVertexBoneAssignment_s@2@@Z 
?addBoneAssignment@SubMesh@Ogre@@QEAAXAEBUVertexBoneAssignment_s@2@@Z 
?addCapabilitiesMapping@RenderSystemCapabilitiesSerializer@Ogre@@IEAAXV?$basic_string@DU?$char_traits@D@std@@V?$allocator@D@2@@std@@W4Capabilities@2@@Z 
?addChainElement@BillboardChain@Ogre@@UEAAX_KAEBVElement@12@@Z 
?addChild@Node@Ogre@@QEAAXPEAV12@@Z 
?addChild@OldNode@Ogre@@UEAAXPEAV12@@Z 
?addClipPlane@RenderSystem@Ogre@@UEAAXAEBVPlane@2@@Z 
?addClipPlane@RenderSystem@Ogre@@UEAAXMMMM@Z 
?addConstantDefinition@GpuSharedParameters@Ogre@@QEAAXAEBV?$basic_string@DU?$char_traits@D@std@@V?$allocator@D@2@@std@@W4GpuConstantType@2@_K@Z 
?addCreatedResource@ResourceGroupManager@Ogre@@IEAAXAEAV?$SharedPtr@VResource@Ogre@@@2@AEAUResourceGroup@12@@Z 
?addDelegateProgram@UnifiedHighLevelGpuProgram@Ogre@@QEAAXAEBV?$basic_string@DU?$char_traits@D@std@@V?$allocator@D@2@@std@@@Z 
?addEffect@TextureUnitState@Ogre@@QEAAXAEAUTextureEffect@12@@Z 
?addElement@VertexDeclaration@Ogre@@UEAAAEBVVertexElement@2@G_KW4VertexElementType@2@W4VertexElementSemantic@2@G@Z 
?addEmbbeddedFile@EmbeddedZipArchiveFactory@Ogre@@SAXAEBV?$basic_string@DU?$char_traits@D@std@@V?$allocator@D@2@@std@@PEBE_KP6A_N2PEAX2@Z@Z 
?addEmitter@ParticleSystem@Ogre@@QEAAPEAVParticleEmitter@2@AEBV?$basic_string@DU?$char_traits@D@std@@V?$allocator@D@2@@std@@@Z 
?addEmitterFactory@ParticleSystemManager@Ogre@@QEAAXPEAVParticleEmitterFactory@2@@Z 
?addEntity@StaticGeometry@Ogre@@UEAAXPEAVEntity@2@AEBVVector3@2@AEBVQuaternion@2@1@Z 
?addError@ScriptCompiler@Ogre@@QEAAXIAEBV?$basic_string@DU?$char_traits@D@std@@V?$allocator@D@2@@std@@H0@Z 
?addFaceTangentSpaceToVertices@TangentSpaceCalc@Ogre@@IEAAX_K0PEA_KAEBVVector3@2@22AEAUResult@12@@Z 
?addFactory@HighLevelGpuProgramManager@Ogre@@QEAAXPEAVHighLevelGpuProgramFactory@2@@Z 
?addFactory@SceneManagerEnumerator@Ogre@@QEAAXPEAVSceneManagerFactory@2@@Z 
?addFrame@SkeletonAnimation@Ogre@@QEAAXM@Z 
?addFrameListener@Root@Ogre@@QEAAXPEAVFrameListener@2@@Z 
?addFrameTextureName@TextureUnitState@Ogre@@QEAAXAEBV?$basic_string@DU?$char_traits@D@std@@V?$allocator@D@2@@std@@@Z 
?addFreeEmittedEmitters@ParticleSystem@Ogre@@IEAAXXZ 
?addGPUDeviceNameRule@Technique@Ogre@@QEAAXAEBUGPUDeviceNameRule@12@@Z 
?addGPUDeviceNameRule@Technique@Ogre@@QEAAXAEBV?$basic_string@DU?$char_traits@D@std@@V?$allocator@D@2@@std@@W4IncludeOrExclude@12@_N@Z 
?addGPUVendorRule@Technique@Ogre@@QEAAXAEBUGPUVendorRule@12@@Z 
?addGPUVendorRule@Technique@Ogre@@QEAAXW4GPUVendor@2@W4IncludeOrExclude@12@@Z 
?addImpl@ResourceManager@Ogre@@MEAAXAEAV?$SharedPtr@VResource@Ogre@@@2@@Z 
?addIndexData@EdgeListBuilder@Ogre@@QEAAXPEBVIndexData@2@_KW4OperationType@RenderOperation@2@@Z 
?addIndexData@TangentSpaceCalc@Ogre@@QEAAXPEAVIndexData@2@W4OperationType@RenderOperation@2@@Z 
?addItem@?$Pool@V?$SharedPtr@VResource@Ogre@@@Ogre@@@Ogre@@UEAAXAEBV?$SharedPtr@VResource@Ogre@@@2@@Z 
?addKeyFrame@SkeletonTrack@Ogre@@QEAAXMM@Z 
?addKeywordType@RenderSystemCapabilitiesSerializer@Ogre@@IEAAXV?$basic_string@DU?$char_traits@D@std@@V?$allocator@D@2@@std@@W4CapabilityKeywordType@12@@Z 
?addLinkedSkeletonAnimationSource@OldSkeletonInstance@Ogre@@UEAAXAEBV?$basic_string@DU?$char_traits@D@std@@V?$allocator@D@2@@std@@M@Z 
?addLinkedSkeletonAnimationSource@Skeleton@Ogre@@UEAAXAEBV?$basic_string@DU?$char_traits@D@std@@V?$allocator@D@2@@std@@M@Z 
?addListener@Camera@Ogre@@UEAAXPEAVListener@12@@Z 
?addListener@Log@Ogre@@QEAAXPEAVLogListener@2@@Z 
?addListener@MaterialManager@Ogre@@UEAAXPEAVListener@12@AEBV?$basic_string@DU?$char_traits@D@std@@V?$allocator@D@2@@std@@@Z 
?addListener@MaterialSerializer@Ogre@@QEAAXPEAVListener@12@@Z 
?addListener@Profiler@Ogre@@QEAAXPEAVProfileSessionListener@2@@Z 
?addListener@RenderSystem@Ogre@@UEAAXPEAVListener@12@@Z 
?addListener@RenderTarget@Ogre@@UEAAXPEAVRenderTargetListener@2@@Z 
?addListener@Resource@Ogre@@UEAAXPEAVListener@12@@Z 
?addListener@SceneManager@Ogre@@UEAAXPEAVListener@12@@Z 
?addListener@UnifiedHighLevelGpuProgram@Ogre@@UEAAXPEAVListener@Resource@2@@Z 
?addLodListener@SceneManager@Ogre@@QEAAXPEAVLodListener@2@@Z 
?addMicrocodeToCache@GpuProgramManager@Ogre@@UEAAXAEBV?$basic_string@DU?$char_traits@D@std@@V?$allocator@D@2@@std@@AEBV?$SharedPtr@VMemoryDataStream@Ogre@@@2@@Z 
?addMovableObjectFactory@Root@Ogre@@QEAAXPEAVMovableObjectFactory@2@_N@Z 
?addNode@RibbonTrail@Ogre@@UEAAXPEAVNode@2@@Z 
?addNodeAlias@CompositorWorkspaceDef@Ogre@@QEAAXUIdString@2@0@Z 
?addNodeDefinition@CompositorManager2@Ogre@@QEAAPEAVCompositorNodeDef@2@AEBV?$basic_string@DU?$char_traits@D@std@@V?$allocator@D@2@@std@@@Z 
?addOrganisationMode@QueuedRenderableCollection@Ogre@@QEAAXW4OrganisationMode@12@@Z 
?addOrganisationMode@RenderPriorityGroup@Ogre@@QEAAXW4OrganisationMode@QueuedRenderableCollection@2@@Z 
?addOrganisationMode@RenderQueueGroup@Ogre@@QEAAXW4OrganisationMode@QueuedRenderableCollection@2@@Z 
?addParameter@ParamDictionary@Ogre@@QEAAXAEBVParameterDef@2@PEAVParamCommand@2@@Z 
?addPass@CompositorTargetDef@Ogre@@QEAAPEAVCompositorPassDef@2@W4CompositorPassType@2@UIdString@2@@Z 
?addPoint@RotationalSpline@Ogre@@QEAAXAEBVQuaternion@2@@Z 
?addPoint@SimpleSpline@Ogre@@QEAAXAEBVVector3@2@@Z 
?addPoseReference@VertexPoseKeyFrame@Ogre@@QEAAXGM@Z 
?addQuadTextureSource@CompositorPassQuadDef@Ogre@@QEAAX_KAEBV?$basic_string@DU?$char_traits@D@std@@V?$allocator@D@2@@std@@0@Z 
?addQueryFlags@MovableObject@Ogre@@QEAAXI@Z 
?addQueuedWorkspaces@CompositorManager2@Ogre@@IEAAXXZ 
?addRenderObjectListener@SceneManager@Ogre@@UEAAXPEAVRenderObjectListener@2@@Z 
?addRenderQueueListener@SceneManager@Ogre@@UEAAXPEAVRenderQueueListener@2@@Z 
?addRenderSystem@Root@Ogre@@QEAAXPEAVRenderSystem@2@@Z 
?addRenderSystemToName@GpuProgramManager@Ogre@@KA?AV?$basic_string@DU?$char_traits@D@std@@V?$allocator@D@2@@std@@AEBV34@@Z 
?addRenderable@QueuedRenderableCollection@Ogre@@QEAAXPEAVPass@2@PEAVRenderable@2@@Z 
?addRenderable@RenderPriorityGroup@Ogre@@QEAAXPEAVRenderable@2@PEAVTechnique@2@@Z 
?addRenderable@RenderQueue@Ogre@@QEAAXPEAVRenderable@2@@Z 
?addRenderable@RenderQueue@Ogre@@QEAAXPEAVRenderable@2@E@Z 
?addRenderable@RenderQueue@Ogre@@QEAAXPEAVRenderable@2@EG@Z 
?addRenderable@RenderQueueGroup@Ogre@@QEAAXPEAVRenderable@2@PEAVTechnique@2@G@Z 
?addRenderableCache@Hlms@Ogre@@IEAAXIAEBV?$vector@UHlmsProperty@Ogre@@V?$STLAllocator@UHlmsProperty@Ogre@@V?$CategorisedAllocPolicy@$0A@@2@@2@@std@@@Z 
?addRenderables@LODBucket@StaticGeometry@Ogre@@QEAAXPEAVRenderQueue@3@EAEBV?$FastArray@E@3@@Z 
?addRenderables@MaterialBucket@StaticGeometry@Ogre@@QEAAXPEAVRenderQueue@3@E_K@Z 
?addRendererFactory@ParticleSystemManager@Ogre@@QEAAXPEAVParticleSystemRendererFactory@2@@Z 
?addRequest@DefaultWorkQueueBase@Ogre@@UEAA_KGGAEBVAny@2@E_N1@Z 
?addRequest@ResourceBackgroundQueue@Ogre@@IEAA_KAEAUResourceRequest@12@@Z 
?addRequestHandler@DefaultWorkQueueBase@Ogre@@UEAAXGPEAVRequestHandler@WorkQueue@2@@Z 
?addRequestWithRID@DefaultWorkQueueBase@Ogre@@IEAAX_KGGAEBVAny@2@E@Z 
?addResourceGroupListener@ResourceGroupManager@Ogre@@QEAAXPEAVResourceGroupListener@2@@Z 
?addResourceLocation@ResourceGroupManager@Ogre@@QEAAXAEBV?$basic_string@DU?$char_traits@D@std@@V?$allocator@D@2@@std@@00_N1@Z 
?addResourceLocation@Root@Ogre@@QEAAXAEBV?$basic_string@DU?$char_traits@D@std@@V?$allocator@D@2@@std@@00_N@Z 
?addResponseHandler@DefaultWorkQueueBase@Ogre@@UEAAXGPEAVResponseHandler@WorkQueue@2@@Z 
?addSample@FrameStats@Ogre@@QEAAXK@Z 
?addSceneManagerFactory@Root@Ogre@@QEAAXPEAVSceneManagerFactory@2@@Z 
?addSceneNode@StaticGeometry@Ogre@@UEAAXPEBVSceneNode@2@@Z 
?addScriptPattern@ScriptCompilerManager@Ogre@@QEAAXAEBV?$basic_string@DU?$char_traits@D@std@@V?$allocator@D@2@@std@@@Z 
?addSetBoolMethod@RenderSystemCapabilitiesSerializer@Ogre@@IEAAXV?$basic_string@DU?$char_traits@D@std@@V?$allocator@D@2@@std@@P8RenderSystemCapabilities@2@EAAX_N@Z@Z 
?addSetIntMethod@RenderSystemCapabilitiesSerializer@Ogre@@IEAAXV?$basic_string@DU?$char_traits@D@std@@V?$allocator@D@2@@std@@P8RenderSystemCapabilities@2@EAAXG@Z@Z 
?addSetRealMethod@RenderSystemCapabilitiesSerializer@Ogre@@IEAAXV?$basic_string@DU?$char_traits@D@std@@V?$allocator@D@2@@std@@P8RenderSystemCapabilities@2@EAAXM@Z@Z 
?addSetStringMethod@RenderSystemCapabilitiesSerializer@Ogre@@IEAAXV?$basic_string@DU?$char_traits@D@std@@V?$allocator@D@2@@std@@P8RenderSystemCapabilities@2@EAAXAEBV34@@Z@Z 
?addShaderCache@Hlms@Ogre@@IEAAPEBUHlmsCache@2@IAEAV?$SharedPtr@VGpuProgram@Ogre@@@2@0000@Z 
?addShaderProfile@RenderSystemCapabilities@Ogre@@QEAAXAEBV?$basic_string@DU?$char_traits@D@std@@V?$allocator@D@2@@std@@@Z 
?addShaderProfile@RenderSystemCapabilitiesSerializer@Ogre@@IEAAXAEAV?$basic_string@DU?$char_traits@D@std@@V?$allocator@D@2@@std@@@Z 
?addShadowNodeDefinition@CompositorManager2@Ogre@@QEAAPEAVCompositorShadowNodeDef@2@AEBV?$basic_string@DU?$char_traits@D@std@@V?$allocator@D@2@@std@@@Z 
?addShadowTextureDefinition@CompositorShadowNodeDef@Ogre@@QEAAPEAVShadowTextureDefinition@2@_K0AEBV?$basic_string@DU?$char_traits@D@std@@V?$allocator@D@2@@std@@_N@Z 
?addShadowTextureSourceName@CompositorShadowNodeDef@Ogre@@IEAA?AUIdString@2@AEBV?$basic_string@DU?$char_traits@D@std@@V?$allocator@D@2@@std@@_KW4TextureSource@TextureDefinitionBase@2@@Z 
?addSharedParameters@GpuProgramParameters@Ogre@@QEAAXAEBV?$basic_string@DU?$char_traits@D@std@@V?$allocator@D@2@@std@@@Z 
?addSharedParameters@GpuProgramParameters@Ogre@@QEAAXV?$SharedPtr@VGpuSharedParameters@Ogre@@@2@@Z 
?addSoftwareAnimationRequest@Entity@Ogre@@QEAAX_N@Z 
?addSolidRenderable@RenderPriorityGroup@Ogre@@IEAAXPEAVTechnique@2@PEAVRenderable@2@@Z 
?addSpecialCaseRenderQueue@SceneManager@Ogre@@UEAAXE@Z 
?addStrategy@LodStrategyManager@Ogre@@QEAAXPEAVLodStrategy@2@@Z 
?addTargetPass@CompositorNodeDef@Ogre@@QEAAPEAVCompositorTargetDef@2@AEBV?$basic_string@DU?$char_traits@D@std@@V?$allocator@D@2@@std@@I@Z 
?addTemplate@ParticleSystemManager@Ogre@@QEAAXAEBV?$basic_string@DU?$char_traits@D@std@@V?$allocator@D@2@@std@@PEAVParticleSystem@2@@Z 
?addTextureAlias@SubMesh@Ogre@@QEAAXAEBV?$basic_string@DU?$char_traits@D@std@@V?$allocator@D@2@@std@@0@Z 
?addTextureDefinition@TextureDefinitionBase@Ogre@@QEAAPEAVTextureDefinition@12@AEBV?$basic_string@DU?$char_traits@D@std@@V?$allocator@D@2@@std@@@Z 
?addTextureSourceName@CompositorShadowNodeDef@Ogre@@UEAA?AUIdString@2@AEBV?$basic_string@DU?$char_traits@D@std@@V?$allocator@D@2@@std@@_KW4TextureSource@TextureDefinitionBase@2@@Z 
?addTextureSourceName@TextureDefinitionBase@Ogre@@UEAA?AUIdString@2@AEBV?$basic_string@DU?$char_traits@D@std@@V?$allocator@D@2@@std@@_KW4TextureSource@12@@Z 
?addTextureUnitState@Pass@Ogre@@QEAAXPEAVTextureUnitState@2@@Z 
?addTime@AnimationState@Ogre@@QEAAXM@Z 
?addTime@SkeletonAnimation@Ogre@@QEAAXM@Z 
?addTranslatorManager@ScriptCompilerManager@Ogre@@QEAAXPEAVScriptTranslatorManager@2@@Z 
?addTransparentRenderable@RenderPriorityGroup@Ogre@@IEAAXPEAVTechnique@2@PEAVRenderable@2@@Z 
?addUnsortedTransparentRenderable@RenderPriorityGroup@Ogre@@IEAAXPEAVTechnique@2@PEAVRenderable@2@@Z 
?addVariable@ObjectAbstractNode@Ogre@@QEAAXAEBV?$basic_string@DU?$char_traits@D@std@@V?$allocator@D@2@@std@@@Z 
?addVertex@Pose@Ogre@@QEAAX_KAEBVVector3@2@1@Z 
?addVertex@Pose@Ogre@@QEAAX_KAEBVVector3@2@@Z 
?addVertexData@EdgeListBuilder@Ogre@@QEAAXPEBVVertexData@2@@Z 
?addViewport@RenderTarget@Ogre@@UEAAPEAVViewport@2@MMMM@Z 
?addVisibilityFlags@MovableObject@Ogre@@QEAAXI@Z 
?addWindowEventListener@WindowEventUtilities@Ogre@@SAXPEAVRenderWindow@2@PEAVWindowEventListener@2@@Z 
?addWorkspace@CompositorManager2@Ogre@@QEAAPEAVCompositorWorkspace@2@PEAVSceneManager@2@AEBUCompositorChannel@2@PEAVCamera@2@UIdString@2@_NH@Z 
?addWorkspace@CompositorManager2@Ogre@@QEAAPEAVCompositorWorkspace@2@PEAVSceneManager@2@PEAVRenderTarget@2@PEAVCamera@2@UIdString@2@_NH@Z 
?addWorkspaceDefinition@CompositorManager2@Ogre@@QEAAPEAVCompositorWorkspaceDef@2@UIdString@2@@Z 
?adjoint@Matrix4@Ogre@@QEBA?AV12@XZ 
?allocBytes@NedPoolingImpl@Ogre@@SAPEAX_KPEBDH1@Z 
?allocBytesAligned@NedPoolingImpl@Ogre@@SAPEAX_K0PEBDH1@Z 
?allocate@AlignedMemory@Ogre@@SAPEAX_K0@Z 
?allocate@AlignedMemory@Ogre@@SAPEAX_K@Z 
?allocateBytes@NedPoolingPolicy@Ogre@@SAPEAX_KPEBDH1@Z 
?allocateCacheFriendlyKeyframes@SkeletonAnimationDef@Ogre@@IEAAXAEBV?$map@_KV?$vector@MV?$STLAllocator@MV?$CategorisedAllocPolicy@$0A@@Ogre@@@Ogre@@@std@@U?$less@_K@2@V?$STLAllocator@U?$pair@$$CB_KV?$vector@MV?$STLAllocator@MV?$CategorisedAllocPolicy@$0A@@Ogre@@@Ogre@@@std@@@std@@V?$CategorisedAllocPolicy@$0A@@Ogre@@@Ogre@@@std@@M@Z 
?allocateHardwareAnimationElements@VertexData@Ogre@@QEAAGG_N@Z 
?allocatePolygon@ConvexBody@Ogre@@KAPEAVPolygon@2@XZ 
?allocateSpace@ConvexBody@Ogre@@IEAAX_K0@Z 
?allocateVertexBufferCopy@HardwareBufferManager@Ogre@@UEAA?AVHardwareVertexBufferSharedPtr@2@AEBV32@W4BufferLicenseType@HardwareBufferManagerBase@2@PEAVHardwareBufferLicensee@2@_N@Z 
?allocateVertexBufferCopy@HardwareBufferManagerBase@Ogre@@UEAA?AVHardwareVertexBufferSharedPtr@2@AEBV32@W4BufferLicenseType@12@PEAVHardwareBufferLicensee@2@_N@Z 
?angleBetween@Vector2@Ogre@@QEBA?AVRadian@2@AEBV12@@Z 
?angleBetween@Vector3@Ogre@@QEBA?AVRadian@2@AEBV12@@Z 
?angleTo@Vector2@Ogre@@QEBA?AVRadian@2@AEBV12@@Z 
?append@UTFString@Ogre@@QEAAAEAV12@AEBV12@@Z 
?append@UTFString@Ogre@@QEAAAEAV12@AEBV12@_K1@Z 
?append@UTFString@Ogre@@QEAAAEAV12@PEBD_K@Z 
?append@UTFString@Ogre@@QEAAAEAV12@PEBG@Z 
?append@UTFString@Ogre@@QEAAAEAV12@PEBG_K@Z 
?append@UTFString@Ogre@@QEAAAEAV12@PEB_W_K@Z 
?append@UTFString@Ogre@@QEAAAEAV12@V_fwd_iterator@12@0@Z 
?append@UTFString@Ogre@@QEAAAEAV12@_KD@Z 
?append@UTFString@Ogre@@QEAAAEAV12@_KG@Z 
?append@UTFString@Ogre@@QEAAAEAV12@_KI@Z 
?append@UTFString@Ogre@@QEAAAEAV12@_K_W@Z 
?apply@Animation@Ogre@@QEAAXMMM@Z 
?apply@Animation@Ogre@@QEAAXPEAVEntity@2@MM_N1@Z 
?apply@Animation@Ogre@@QEAAXPEAVSkeleton@2@MMM@Z 
?apply@Animation@Ogre@@QEAAXPEAVSkeleton@2@MMMAEBV?$map@V?$basic_string@DU?$char_traits@D@std@@V?$allocator@D@2@@std@@_NU?$less@V?$basic_string@DU?$char_traits@D@std@@V?$allocator@D@2@@std@@@2@V?$STLAllocator@U?$pair@$$CBV?$basic_string@DU?$char_traits@D@std@@V?$allocator@D@2@@std@@_N@std@@V?$CategorisedAllocPolicy@$0A@@Ogre@@@Ogre@@@std@@_NM@Z 
?apply@Animation@Ogre@@QEAAXPEAVSkeleton@2@MMPEBV?$vector@MV?$STLAllocator@MV?$CategorisedAllocPolicy@$0A@@Ogre@@@Ogre@@@std@@M@Z 
?apply@Animation@Ogre@@QEAAXPEAVSkeleton@2@MMPEBV?$vector@MV?$STLAllocator@MV?$CategorisedAllocPolicy@$0A@@Ogre@@@Ogre@@@std@@MAEBV?$map@V?$basic_string@DU?$char_traits@D@std@@V?$allocator@D@2@@std@@_NU?$less@V?$basic_string@DU?$char_traits@D@std@@V?$allocator@D@2@@std@@@2@V?$STLAllocator@U?$pair@$$CBV?$basic_string@DU?$char_traits@D@std@@V?$allocator@D@2@@std@@_N@std@@V?$CategorisedAllocPolicy@$0A@@Ogre@@@Ogre@@@5@_NM@Z 
?apply@NodeAnimationTrack@Ogre@@UEAAXAEBVTimeIndex@2@MM@Z 
?apply@NumericAnimationTrack@Ogre@@UEAAXAEBVTimeIndex@2@MM@Z 
?apply@OldNodeAnimationTrack@Ogre@@UEAAXAEBVTimeIndex@2@MM@Z 
?apply@VertexAnimationTrack@Ogre@@UEAAXAEBVTimeIndex@2@MM@Z 
?applyDefaults@Material@Ogre@@IEAAXXZ 
?applyDeltaValue@AnimableValue@Ogre@@UEAAXAEBVAny@2@@Z 
?applyDeltaValue@AnimableValue@Ogre@@UEAAXAEBVColourValue@2@@Z 
?applyDeltaValue@AnimableValue@Ogre@@UEAAXAEBVDegree@2@@Z 
?applyDeltaValue@AnimableValue@Ogre@@UEAAXAEBVQuaternion@2@@Z 
?applyDeltaValue@AnimableValue@Ogre@@UEAAXAEBVRadian@2@@Z 
?applyDeltaValue@AnimableValue@Ogre@@UEAAXAEBVVector2@2@@Z 
?applyDeltaValue@AnimableValue@Ogre@@UEAAXAEBVVector3@2@@Z 
?applyDeltaValue@AnimableValue@Ogre@@UEAAXAEBVVector4@2@@Z 
?applyDeltaValue@AnimableValue@Ogre@@UEAAXH@Z 
?applyDeltaValue@AnimableValue@Ogre@@UEAAXM@Z 
?applyGamma@Image@Ogre@@SAXPEAEM_KE@Z 
?applyKeyFrameRigAt@SkeletonTrack@Ogre@@QEBAXAEAV?$_Vector_const_iterator@V?$_Vector_val@UKeyFrameRig@Ogre@@V?$STLAllocator@UKeyFrameRig@Ogre@@V?$CategorisedAllocPolicy@$0A@@2@@2@@std@@@std@@MT__m128@@PEBT5@AEBV?$FastArray@UBoneTransform@Ogre@@@2@@Z 
?applyPoseToVertexData@VertexAnimationTrack@Ogre@@IEAAXPEBVPose@2@PEAVVertexData@2@M@Z 
?applyRebase@BoneMemoryManager@Ogre@@UEAAXW4ManagerType@ArrayMemoryManager@2@GAEBV?$vector@PEADV?$STLAllocator@PEADV?$CategorisedAllocPolicy@$0A@@Ogre@@@Ogre@@@std@@AEBV?$vector@_JV?$allocator@_J@std@@@6@@Z 
?applyRebase@ObjectMemoryManager@Ogre@@UEAAXW4ManagerType@ArrayMemoryManager@2@GAEBV?$vector@PEADV?$STLAllocator@PEADV?$CategorisedAllocPolicy@$0A@@Ogre@@@Ogre@@@std@@AEBV?$vector@_JV?$allocator@_J@std@@@6@@Z 
?applySettingToBatches@InstanceManager@Ogre@@AEAAXW4BatchSettingId@12@_NAEBV?$vector@PEAVInstanceBatch@Ogre@@V?$STLAllocator@PEAVInstanceBatch@Ogre@@V?$CategorisedAllocPolicy@$0A@@2@@2@@std@@@Z 
?applyTextureAliases@Material@Ogre@@QEBA_NAEBV?$map@V?$basic_string@DU?$char_traits@D@std@@V?$allocator@D@2@@std@@V12@U?$less@V?$basic_string@DU?$char_traits@D@std@@V?$allocator@D@2@@std@@@2@V?$STLAllocator@U?$pair@$$CBV?$basic_string@DU?$char_traits@D@std@@V?$allocator@D@2@@std@@V12@@std@@V?$CategorisedAllocPolicy@$0A@@Ogre@@@Ogre@@@std@@_N@Z 
?applyTextureAliases@Pass@Ogre@@QEBA_NAEBV?$map@V?$basic_string@DU?$char_traits@D@std@@V?$allocator@D@2@@std@@V12@U?$less@V?$basic_string@DU?$char_traits@D@std@@V?$allocator@D@2@@std@@@2@V?$STLAllocator@U?$pair@$$CBV?$basic_string@DU?$char_traits@D@std@@V?$allocator@D@2@@std@@V12@@std@@V?$CategorisedAllocPolicy@$0A@@Ogre@@@Ogre@@@std@@_N@Z 
?applyTextureAliases@Technique@Ogre@@QEBA_NAEBV?$map@V?$basic_string@DU?$char_traits@D@std@@V?$allocator@D@2@@std@@V12@U?$less@V?$basic_string@DU?$char_traits@D@std@@V?$allocator@D@2@@std@@@2@V?$STLAllocator@U?$pair@$$CBV?$basic_string@DU?$char_traits@D@std@@V?$allocator@D@2@@std@@V12@@std@@V?$CategorisedAllocPolicy@$0A@@Ogre@@@Ogre@@@std@@_N@Z 
?applyTextureAliases@TextureUnitState@Ogre@@QEAA_NAEBV?$map@V?$basic_string@DU?$char_traits@D@std@@V?$allocator@D@2@@std@@V12@U?$less@V?$basic_string@DU?$char_traits@D@std@@V?$allocator@D@2@@std@@@2@V?$STLAllocator@U?$pair@$$CBV?$basic_string@DU?$char_traits@D@std@@V?$allocator@D@2@@std@@V12@@std@@V?$CategorisedAllocPolicy@$0A@@Ogre@@@Ogre@@@std@@_N@Z 
?applyToAnimable@Animation@Ogre@@QEAAXAEBV?$SharedPtr@VAnimableValue@Ogre@@@2@MMM@Z 
?applyToAnimable@NumericAnimationTrack@Ogre@@QEAAXAEBV?$SharedPtr@VAnimableValue@Ogre@@@2@AEBVTimeIndex@2@MM@Z 
?applyToNode@Animation@Ogre@@QEAAXPEAVOldNode@2@MMM@Z 
?applyToNode@NodeAnimationTrack@Ogre@@QEAAXPEAVNode@2@AEBVTimeIndex@2@MM@Z 
?applyToNode@OldNodeAnimationTrack@Ogre@@QEAAXPEAVOldNode@2@AEBVTimeIndex@2@MM_N2@Z 
?applyToVertexData@Animation@Ogre@@QEAAXPEAVVertexData@2@MM@Z 
?applyToVertexData@VertexAnimationTrack@Ogre@@UEAAXPEAVVertexData@2@AEBVTimeIndex@2@MPEBV?$vector@PEAVPose@Ogre@@V?$STLAllocator@PEAVPose@Ogre@@V?$CategorisedAllocPolicy@$0A@@2@@2@@std@@@Z 
?applyVertexAnimation@Entity@Ogre@@IEAAX_N@Z 
?areAllInputsConnected@CompositorNode@Ogre@@QEBA_NXZ 
?areFixedFunctionLightsInViewSpace@RenderSystem@Ogre@@UEBA_NXZ 
?asUTF32@UTFString@Ogre@@QEBAAEBV?$basic_string@IU?$char_traits@I@std@@V?$allocator@I@2@@std@@XZ 
?asUTF32_c_str@UTFString@Ogre@@QEBAPEBIXZ 
?asUTF8@UTFString@Ogre@@QEBAAEBV?$basic_string@DU?$char_traits@D@std@@V?$allocator@D@2@@std@@XZ 
?asUTF8_c_str@UTFString@Ogre@@QEBAPEBDXZ 
?asWStr@UTFString@Ogre@@QEBAAEBV?$basic_string@_WU?$char_traits@_W@std@@V?$allocator@_W@2@@std@@XZ 
?asWStr_c_str@UTFString@Ogre@@QEBAPEB_WXZ 
?assertSorted@LodStrategy@Ogre@@SAXAEBV?$FastArray@M@2@@Z 
?assign@GeometryBucket@StaticGeometry@Ogre@@QEAA_NPEAUQueuedGeometry@23@@Z 
?assign@LODBucket@StaticGeometry@Ogre@@QEAAXPEAUQueuedSubMesh@23@G@Z 
?assign@MaterialBucket@StaticGeometry@Ogre@@QEAAXPEAUQueuedGeometry@23@@Z 
?assign@Region@StaticGeometry@Ogre@@QEAAXPEAUQueuedSubMesh@23@@Z 
?assign@UTFString@Ogre@@QEAAAEAV12@AEBV12@@Z 
?assign@UTFString@Ogre@@QEAAAEAV12@AEBV12@_K1@Z 
?assign@UTFString@Ogre@@QEAAAEAV12@AEBV?$basic_string@DU?$char_traits@D@std@@V?$allocator@D@2@@std@@@Z 
?assign@UTFString@Ogre@@QEAAAEAV12@AEBV?$basic_string@_WU?$char_traits@_W@std@@V?$allocator@_W@2@@std@@@Z 
?assign@UTFString@Ogre@@QEAAAEAV12@PEBD@Z 
?assign@UTFString@Ogre@@QEAAAEAV12@PEBD_K@Z 
?assign@UTFString@Ogre@@QEAAAEAV12@PEBG@Z 
?assign@UTFString@Ogre@@QEAAAEAV12@PEBG_K@Z 
?assign@UTFString@Ogre@@QEAAAEAV12@PEB_W@Z 
?assign@UTFString@Ogre@@QEAAAEAV12@PEB_W_K@Z 
?assign@UTFString@Ogre@@QEAAAEAV12@V_fwd_iterator@12@0@Z 
?assign@UTFString@Ogre@@QEAAAEAV12@_KAEBG@Z 
?at@UTFString@Ogre@@QEAAAEAG_K@Z 
?at@UTFString@Ogre@@QEBAAEBG_K@Z 
?attachDepthBuffer@RenderTarget@Ogre@@UEAA_NPEAVDepthBuffer@2@@Z 
?attachObject@SceneNode@Ogre@@QEAAXPEAVMovableObject@2@@Z 
?attachObjectToBone@Entity@Ogre@@QEAAPEAVTagPoint@2@AEBV?$basic_string@DU?$char_traits@D@std@@V?$allocator@D@2@@std@@PEAVMovableObject@2@AEBVQuaternion@2@AEBVVector3@2@@Z 
?attachRenderTarget@RenderSystem@Ogre@@UEAAXAEAVRenderTarget@2@@Z 
?backpedalChunkHeader@Serializer@Ogre@@MEAAXAEAV?$SharedPtr@VDataStream@Ogre@@@2@@Z 
?baseVertexPointerToElement@VertexElement@Ogre@@QEBAXPEAXPEAPEAE@Z 
?baseVertexPointerToElement@VertexElement@Ogre@@QEBAXPEAXPEAPEAG@Z 
?baseVertexPointerToElement@VertexElement@Ogre@@QEBAXPEAXPEAPEAI@Z 
?baseVertexPointerToElement@VertexElement@Ogre@@QEBAXPEAXPEAPEAM@Z 
?baseVertexPointerToElement@VertexElement@Ogre@@QEBAXPEAXPEAPEAX@Z 
?begin@ManualObject@Ogre@@UEAAXAEBV?$basic_string@DU?$char_traits@D@std@@V?$allocator@D@2@@std@@W4OperationType@RenderOperation@2@0@Z 
?begin@UTFString@Ogre@@QEAA?AV_fwd_iterator@12@XZ 
?begin@UTFString@Ogre@@QEBA?AV_const_fwd_iterator@12@XZ 
?beginBillboards@BillboardSet@Ogre@@QEAAX_K@Z 
?beginGPUEvent@Profiler@Ogre@@QEAAXAEBV?$basic_string@DU?$char_traits@D@std@@V?$allocator@D@2@@std@@@Z 
?beginProfile@Profiler@Ogre@@QEAAXAEBV?$basic_string@DU?$char_traits@D@std@@V?$allocator@D@2@@std@@I@Z 
?beginSection@MaterialSerializer@Ogre@@QEAAXG_N@Z 
?beginUpdate@ManualObject@Ogre@@UEAAX_K@Z 
?billboardVisible@BillboardSet@Ogre@@IEAA_NPEBVCamera@2@AEBVBillboard@2@@Z 
?bind@?$SharedPtr@VHardwareCounterBuffer@Ogre@@@Ogre@@QEAAXPEAVHardwareCounterBuffer@2@W4SharedPtrFreeMethod@2@@Z 
?bind@?$SharedPtr@VHardwareIndexBuffer@Ogre@@@Ogre@@QEAAXPEAVHardwareIndexBuffer@2@W4SharedPtrFreeMethod@2@@Z 
?bind@?$SharedPtr@VHardwarePixelBuffer@Ogre@@@Ogre@@QEAAXPEAVHardwarePixelBuffer@2@W4SharedPtrFreeMethod@2@@Z 
?bind@?$SharedPtr@VHardwareUniformBuffer@Ogre@@@Ogre@@QEAAXPEAVHardwareUniformBuffer@2@W4SharedPtrFreeMethod@2@@Z 
?bind@?$SharedPtr@VHardwareVertexBuffer@Ogre@@@Ogre@@QEAAXPEAVHardwareVertexBuffer@2@W4SharedPtrFreeMethod@2@@Z 
?bindGpuProgram@RenderSystem@Ogre@@UEAAXPEAVGpuProgram@2@@Z 
?bindGpuProgram@SceneManager@Ogre@@MEAAXPEAVGpuProgram@2@@Z 
?bindMissingHardwarePoseBuffers@Entity@Ogre@@IEAAXPEBVVertexData@2@PEAV32@@Z 
?bindSurface@MultiRenderTarget@Ogre@@UEAAX_KPEAVRenderTexture@2@@Z 
?bindTempCopies@TempBlendedBufferInfo@Ogre@@QEAAXPEAVVertexData@2@_N@Z 
?blit@HardwarePixelBuffer@Ogre@@QEAAXAEBVHardwarePixelBufferSharedPtr@2@@Z 
?blit@HardwarePixelBuffer@Ogre@@UEAAXAEBVHardwarePixelBufferSharedPtr@2@AEBUBox@2@1@Z 
?blitFromMemory@HardwarePixelBuffer@Ogre@@QEAAXAEBVPixelBox@2@@Z 
?blitToMemory@HardwarePixelBuffer@Ogre@@QEAAXAEBVPixelBox@2@@Z 
?blockIdxToSlotStart@SkeletonDef@Ogre@@SAII@Z 
?boundingRadiusFromAABB@Math@Ogre@@SAMAEBVAxisAlignedBox@2@@Z 
?buffersCheckedOut@TempBlendedBufferInfo@Ogre@@QEBA_N_N0@Z 
?build@EdgeListBuilder@Ogre@@QEAAPEAVEdgeData@2@XZ 
?build@GeometryBucket@StaticGeometry@Ogre@@QEAAXXZ 
?build@InstanceBatch@Ogre@@UEAA?AVRenderOperation@2@PEBVSubMesh@2@@Z 
?build@LODBucket@StaticGeometry@Ogre@@QEAAXXZ 
?build@MaterialBucket@StaticGeometry@Ogre@@QEAAXXZ 
?build@PatchSurface@Ogre@@QEAAXVHardwareVertexBufferSharedPtr@2@_KVHardwareIndexBufferSharedPtr@2@1@Z 
?build@Region@StaticGeometry@Ogre@@QEAAX_N@Z 
?build@SkeletonAnimationDef@Ogre@@QEAAXPEBVSkeleton@2@PEBVAnimation@2@M@Z 
?build@StaticGeometry@Ogre@@UEAAXXZ 
?build@TangentSpaceCalc@Ogre@@QEAA?AUResult@12@W4VertexElementSemantic@2@GG@Z 
?buildAndSetLightClip@SceneManager@Ogre@@MEAA?AW4ClipResult@2@AEBV?$HashedVector@ULightClosest@Ogre@@@2@@Z 
?buildAndSetScissor@SceneManager@Ogre@@MEAA?AW4ClipResult@2@AEBV?$HashedVector@ULightClosest@Ogre@@@2@PEBVCamera@2@@Z 
?buildClosestLightList@CompositorShadowNode@Ogre@@AEAAXPEAVCamera@2@PEBV32@@Z 
?buildConstantDefinitions@UnifiedHighLevelGpuProgram@Ogre@@MEBAXXZ 
?buildDiffList@BoneMemoryManager@Ogre@@UEAAXW4ManagerType@ArrayMemoryManager@2@GAEBV?$vector@PEADV?$STLAllocator@PEADV?$CategorisedAllocPolicy@$0A@@Ogre@@@Ogre@@@std@@AEAV?$vector@_JV?$allocator@_J@std@@@6@@Z 
?buildDiffList@ObjectMemoryManager@Ogre@@UEAAXW4ManagerType@ArrayMemoryManager@2@GAEBV?$vector@PEADV?$STLAllocator@PEADV?$CategorisedAllocPolicy@$0A@@Ogre@@@Ogre@@@std@@AEAV?$vector@_JV?$allocator@_J@std@@@6@@Z 
?buildEdgeList@Mesh@Ogre@@QEAAXXZ 
?buildFrom@BaseInstanceBatchVTF@Ogre@@UEAAXPEBVSubMesh@2@AEBVRenderOperation@2@@Z 
?buildFrom@InstanceBatch@Ogre@@UEAAXPEBVSubMesh@2@AEBVRenderOperation@2@@Z 
?buildFrom@InstanceBatchHW@Ogre@@UEAAXPEBVSubMesh@2@AEBVRenderOperation@2@@Z 
?buildFrom@InstanceBatchShader@Ogre@@UEAAXPEBVSubMesh@2@AEBVRenderOperation@2@@Z 
?buildIndexMap@Mesh@Ogre@@IEAAXAEBV?$multimap@_KUVertexBoneAssignment_s@Ogre@@U?$less@_K@std@@V?$STLAllocator@U?$pair@$$CB_KUVertexBoneAssignment_s@Ogre@@@std@@V?$CategorisedAllocPolicy@$0A@@Ogre@@@2@@std@@AEAV?$FastArray@G@2@1@Z 
?buildInterpolationSplines@NodeAnimationTrack@Ogre@@MEBAXXZ 
?buildInterpolationSplines@OldNodeAnimationTrack@Ogre@@MEBAXXZ 
?buildKeyFrameTimeList@Animation@Ogre@@IEBAXXZ 
?buildLightClip@SceneManager@Ogre@@MEAAXPEBVLight@2@AEAV?$vector@VPlane@Ogre@@V?$STLAllocator@VPlane@Ogre@@V?$CategorisedAllocPolicy@$0A@@2@@2@@std@@@Z 
?buildLightList@MovableObject@Ogre@@SAX_KUObjectData@2@AEBULightListInfo@2@@Z 
?buildLightList@SceneManager@Ogre@@IEAAXXZ 
?buildLightListThread01@SceneManager@Ogre@@IEAAXAEBUBuildLightListRequest@2@_K@Z 
?buildLightListThread02@SceneManager@Ogre@@IEAAX_K@Z 
?buildNewBatch@InstanceManager@Ogre@@AEAAPEAVInstanceBatch@2@AEBV?$basic_string@DU?$char_traits@D@std@@V?$allocator@D@2@@std@@W4SceneMemoryMgrTypes@2@_N@Z 
?buildReflectionMatrix@Math@Ogre@@SA?AVMatrix4@2@AEBVPlane@2@@Z 
?buildScissor@SceneManager@Ogre@@MEAAXPEBVLight@2@PEBVCamera@2@AEAU?$TRect@M@2@@Z 
?buildSubEntityList@Entity@Ogre@@IEAAXAEAV?$SharedPtr@VMesh@Ogre@@@2@PEAV?$vector@VSubEntity@Ogre@@V?$STLAllocator@VSubEntity@Ogre@@V?$CategorisedAllocPolicy@$0A@@2@@2@@std@@@Z 
?buildTangentVectors@Mesh@Ogre@@QEAAXW4VertexElementSemantic@2@GG_N11@Z 
?buildTrianglesEdges@EdgeListBuilder@Ogre@@IEAAXAEBUGeometry@12@@Z 
?buildTrigTables@Math@Ogre@@IEAAXXZ 
?bulkPixelConversion@PixelUtil@Ogre@@SAXAEBVPixelBox@2@0@Z 
?bulkPixelConversion@PixelUtil@Ogre@@SAXPEAXW4PixelFormat@2@01I@Z 
?bulkPixelVerticalFlip@PixelUtil@Ogre@@SAXAEBVPixelBox@2@@Z 
?c_str@UTFString@Ogre@@QEBAPEBGXZ 
?cacheBoneMatrices@Entity@Ogre@@IEAA_NXZ 
?calcAnimationSize@SkeletonSerializer@Ogre@@IEAA_KPEBVSkeleton@2@PEBVAnimation@2@W4SkeletonVersion@2@@Z 
?calcAnimationTrackSize@SkeletonSerializer@Ogre@@IEAA_KPEBVSkeleton@2@PEBVOldNodeAnimationTrack@2@@Z 
?calcBoneParentSize@SkeletonSerializer@Ogre@@IEAA_KPEBVSkeleton@2@@Z 
?calcBoneSize@SkeletonSerializer@Ogre@@IEAA_KPEBVSkeleton@2@PEBVOldBone@2@@Z 
?calcBoneSizeWithoutScale@SkeletonSerializer@Ogre@@IEAA_KPEBVSkeleton@2@PEBVOldBone@2@@Z 
?calcChunkHeaderSize@Serializer@Ogre@@MEAA_KXZ 
?calcKeyFrameSize@SkeletonSerializer@Ogre@@IEAA_KPEBVSkeleton@2@PEBVTransformKeyFrame@2@@Z 
?calcKeyFrameSizeWithoutScale@SkeletonSerializer@Ogre@@IEAA_KPEBVSkeleton@2@PEBVTransformKeyFrame@2@@Z 
?calcProjectionParameters@Frustum@Ogre@@MEBAXAEAM000@Z 
?calcSkeletonAnimationLinkSize@SkeletonSerializer@Ogre@@IEAA_KPEBVSkeleton@2@AEBULinkedSkeletonAnimationSource@2@@Z 
?calcStringSize@Serializer@Ogre@@IEAA_KAEBV?$basic_string@DU?$char_traits@D@std@@V?$allocator@D@2@@std@@@Z 
?calcVertexProcessing@Entity@Ogre@@IEAA_NXZ 
?calcViewMatrixRelative@Frustum@Ogre@@UEBAXAEBVVector3@2@AEAVMatrix4@2@@Z 
?calculate@AnimationControllerFunction@Ogre@@UEAAMM@Z 
?calculate@LinearControllerFunction@Ogre@@UEAAMM@Z 
?calculate@PassthroughControllerFunction@Ogre@@UEAAMM@Z 
?calculate@ScaleControllerFunction@Ogre@@UEAAMM@Z 
?calculate@WaveformControllerFunction@Ogre@@UEAAMM@Z 
?calculateAngleWeight@TangentSpaceCalc@Ogre@@IEAAM_K00@Z 
?calculateBasicFaceNormal@Math@Ogre@@SA?AVVector3@2@AEBV32@00@Z 
?calculateBasicFaceNormalWithoutNormalize@Math@Ogre@@SA?AVVector3@2@AEBV32@00@Z 
?calculateBounds@StaticGeometry@Ogre@@MEAA?AVAxisAlignedBox@2@PEAVVertexData@2@AEBVVector3@2@AEBVQuaternion@2@1@Z 
?calculateCastersBox@MovableObject@Ogre@@SAX_KUObjectData@2@IPEAVAxisAlignedBox@2@@Z 
?calculateChecksum@StreamSerialiser@Ogre@@MEAAIPEAUChunk@12@@Z 
?calculateEventTime@Root@Ogre@@IEAAMKW4FrameEventTimeType@12@@Z 
?calculateFaceNormal@Math@Ogre@@SA?AVVector4@2@AEBVVector3@2@00@Z 
?calculateFaceNormalWithoutNormalize@Math@Ogre@@SA?AVVector4@2@AEBVVector3@2@00@Z 
?calculateFaceTangentSpace@TangentSpaceCalc@Ogre@@IEAAXPEB_KAEAVVector3@2@11@Z 
?calculateHashFor@Hlms@Ogre@@UEAAXPEAVRenderable@2@AEBV?$vector@U?$pair@UIdString@Ogre@@V?$basic_string@DU?$char_traits@D@std@@V?$allocator@D@2@@std@@@std@@V?$STLAllocator@U?$pair@UIdString@Ogre@@V?$basic_string@DU?$char_traits@D@std@@V?$allocator@D@2@@std@@@std@@V?$CategorisedAllocPolicy@$0A@@Ogre@@@Ogre@@@std@@AEAI2@Z 
?calculateLineCount@Hlms@Ogre@@KA_KAEBV?$basic_string@DU?$char_traits@D@std@@V?$allocator@D@2@@std@@_K@Z 
?calculateLineCount@Hlms@Ogre@@KA_KAEBVSubStringRef@2@@Z 
?calculateMaxNumInstances@InstanceBatchHW@Ogre@@UEBA_KPEBVSubMesh@2@G@Z 
?calculateMaxNumInstances@InstanceBatchHW_VTF@Ogre@@UEBA_KPEBVSubMesh@2@G@Z 
?calculateMaxNumInstances@InstanceBatchShader@Ogre@@UEBA_KPEBVSubMesh@2@G@Z 
?calculateMaxNumInstances@InstanceBatchVTF@Ogre@@UEBA_KPEBVSubMesh@2@G@Z 
?calculateParity@TangentSpaceCalc@Ogre@@IEAAHAEBVVector3@2@00@Z 
?calculateRenderTarget@CompositorPass@Ogre@@IEAAPEAVRenderTarget@2@_KAEBUCompositorChannel@2@@Z 
?calculateRenderableHash@Hlms@Ogre@@MEBAIXZ 
?calculateSize@GpuNamedConstants@Ogre@@QEBA_KXZ 
?calculateSize@GpuProgram@Ogre@@UEBA_KXZ 
?calculateSize@GpuProgramParameters@Ogre@@QEBA_KXZ 
?calculateSize@GpuProgramUsage@Ogre@@QEBA_KXZ 
?calculateSize@GpuSharedParameters@Ogre@@QEBA_KXZ 
?calculateSize@HighLevelGpuProgram@Ogre@@UEBA_KXZ 
?calculateSize@Image@Ogre@@SA_K_K0IIIW4PixelFormat@2@@Z 
?calculateSize@Material@Ogre@@MEBA_KXZ 
?calculateSize@Mesh@Ogre@@MEBA_KXZ 
?calculateSize@Pass@Ogre@@QEBA_KXZ 
?calculateSize@RenderSystemCapabilities@Ogre@@UEBA_KXZ 
?calculateSize@Resource@Ogre@@UEBA_KXZ 
?calculateSize@Skeleton@Ogre@@MEBA_KXZ 
?calculateSize@Technique@Ogre@@QEBA_KXZ 
?calculateSize@Texture@Ogre@@MEBA_KXZ 
?calculateSize@TextureUnitState@Ogre@@QEBA_KXZ 
?calculateSize@UnifiedHighLevelGpuProgram@Ogre@@UEBA_KXZ 
?calculateSplitPoints@PSSMShadowCameraSetup@Ogre@@QEAAXIMMM@Z 
?calculateTangentSpaceVector@Math@Ogre@@SA?AVVector3@2@AEBV32@00MMMMMM@Z 
?callSetBoolMethod@RenderSystemCapabilitiesSerializer@Ogre@@IEAAXAEAV?$basic_string@DU?$char_traits@D@std@@V?$allocator@D@2@@std@@_N@Z 
?callSetIntMethod@RenderSystemCapabilitiesSerializer@Ogre@@IEAAXAEAV?$basic_string@DU?$char_traits@D@std@@V?$allocator@D@2@@std@@G@Z 
?callSetRealMethod@RenderSystemCapabilitiesSerializer@Ogre@@IEAAXAEAV?$basic_string@DU?$char_traits@D@std@@V?$allocator@D@2@@std@@M@Z 
?callSetStringMethod@RenderSystemCapabilitiesSerializer@Ogre@@IEAAXAEAV?$basic_string@DU?$char_traits@D@std@@V?$allocator@D@2@@std@@0@Z 
?cameraDestroyed@Listener@Camera@Ogre@@UEAAXPEAV23@@Z 
?cameraPostRenderScene@Listener@Camera@Ogre@@UEAAXPEAV23@@Z 
?cameraPreRenderScene@Listener@Camera@Ogre@@UEAAXPEAV23@@Z 
?canGetCompiledShaderBuffer@GpuProgramManager@Ogre@@QEAA_NXZ 
?canHandleRequest@RequestHandler@WorkQueue@Ogre@@UEAA_NPEBVRequest@23@PEBV23@@Z 
?canHandleRequest@ResourceBackgroundQueue@Ogre@@UEAA_NPEBVRequest@WorkQueue@2@PEBV42@@Z 
?canHandleResponse@ResourceBackgroundQueue@Ogre@@UEAA_NPEBUResponse@WorkQueue@2@PEBV42@@Z 
?canHandleResponse@ResponseHandler@WorkQueue@Ogre@@UEAA_NPEBUResponse@23@PEBV23@@Z 
?cancelUpdate@OldNode@Ogre@@UEAAXPEAV12@@Z 
?capacity@UTFString@Ogre@@QEBA_KXZ 
?changeEnableState@ProfileSessionListener@Ogre@@UEAAX_N@Z 
?changeEnableState@Profiler@Ogre@@IEAAXXZ 
?changeGroupOwnership@Resource@Ogre@@UEAAXAEBV?$basic_string@DU?$char_traits@D@std@@V?$allocator@D@2@@std@@@Z 
?checkCachedLightClippingInfo@SceneManager@Ogre@@MEAAXXZ 
?checkGPURules@Technique@Ogre@@QEAA_NAEAV?$basic_stringstream@DU?$char_traits@D@std@@V?$allocator@D@2@@std@@@Z 
?checkHardwareSupport@Technique@Ogre@@QEAA_N_NAEAV?$basic_stringstream@DU?$char_traits@D@std@@V?$allocator@D@2@@std@@@Z 
?checkIfVertexInstanceDataIsSupported@HardwareVertexBuffer@Ogre@@MEAA_NXZ 
?checkManuallyOrganisedIlluminationPasses@Technique@Ogre@@IEAA_NXZ 
?checkStream@StreamSerialiser@Ogre@@MEBAX_N00@Z 
?checkSubMeshCompatibility@InstanceBatch@Ogre@@MEAA_NPEBVSubMesh@2@@Z 
?checkSubMeshCompatibility@InstanceBatchHW@Ogre@@MEAA_NPEBVSubMesh@2@@Z 
?checkSubMeshCompatibility@InstanceBatchHW_VTF@Ogre@@MEAA_NPEBVSubMesh@2@@Z 
?checkUsage@ResourceManager@Ogre@@MEAAXXZ 
?checkZzipError@ZipArchive@Ogre@@IEBAXHAEBV?$basic_string@DU?$char_traits@D@std@@V?$allocator@D@2@@std@@@Z 
?checkoutTempCopies@TempBlendedBufferInfo@Ogre@@QEAAX_N0@Z 
?chooseDelegate@UnifiedHighLevelGpuProgram@Ogre@@IEBAXXZ 
?chooseVertexDataForBinding@Entity@Ogre@@QEAA?AW4VertexDataBindChoice@12@_N@Z 
?cleanupDictionary@StringInterface@Ogre@@SAXXZ 
?cleanupEmptyBatches@InstanceManager@Ogre@@QEAAXXZ 
?clear@?$Pool@V?$SharedPtr@VResource@Ogre@@@Ogre@@@Ogre@@UEAAXXZ 
?clear@BillboardSet@Ogre@@UEAAXXZ 
?clear@ConfigFile@Ogre@@QEAAXXZ 
?clear@ManualObject@Ogre@@UEAAXXZ 
?clear@ParticleSystem@Ogre@@QEAAXXZ 
?clear@QueuedRenderableCollection@Ogre@@QEAAXXZ 
?clear@RenderPriorityGroup@Ogre@@QEAAXXZ 
?clear@RenderQueue@Ogre@@QEAAX_N@Z 
?clear@RenderQueueGroup@Ogre@@QEAAX_N@Z 
?clear@RenderQueueInvocationSequence@Ogre@@QEAAXXZ 
?clear@ResourcePool@ResourceManager@Ogre@@UEAAXXZ 
?clear@RotationalSpline@Ogre@@QEAAXXZ 
?clear@ShadowTextureManager@Ogre@@UEAAXXZ 
?clear@SimpleSpline@Ogre@@QEAAXXZ 
?clear@TangentSpaceCalc@Ogre@@QEAAXXZ 
?clear@UTFString@Ogre@@QEAAXXZ 
?clear@UserObjectBindings@Ogre@@QEBAXXZ 
?clear@Viewport@Ogre@@QEAAXIAEBVColourValue@2@MG@Z 
?clearAll@CompositorWorkspaceDef@Ogre@@QEAAXXZ 
?clearAllChains@BillboardChain@Ogre@@UEAAXXZ 
?clearAllConnections@CompositorWorkspace@Ogre@@IEAAXXZ 
?clearAllInterNodeConnections@CompositorWorkspaceDef@Ogre@@QEAAXXZ 
?clearAutoConstant@GpuProgramParameters@Ogre@@QEAAX_K@Z 
?clearAutoConstants@GpuProgramParameters@Ogre@@QEAAXXZ 
?clearBestTechniqueList@Material@Ogre@@IEAAXXZ 
?clearBoneAssignments@Mesh@Ogre@@QEAAXXZ 
?clearBoneAssignments@SubMesh@Ogre@@QEAAXXZ 
?clearChain@BillboardChain@Ogre@@UEAAX_K@Z 
?clearChain@RibbonTrail@Ogre@@UEAAX_K@Z 
?clearControllers@ControllerManager@Ogre@@QEAAXXZ 
?clearDelegatePrograms@UnifiedHighLevelGpuProgram@Ogre@@QEAAXXZ 
?clearDirtyHashList@Pass@Ogre@@SAXXZ 
?clearEventTimes@Root@Ogre@@QEAAXXZ 
?clearFrameData@SceneManager@Ogre@@QEAAXXZ 
?clearIlluminationPasses@Technique@Ogre@@IEAAXXZ 
?clearNamedAutoConstant@GpuProgramParameters@Ogre@@QEAAXAEBV?$basic_string@DU?$char_traits@D@std@@V?$allocator@D@2@@std@@@Z 
?clearOutputConnections@CompositorWorkspaceDef@Ogre@@QEAAXXZ 
?clearQueue@MaterialSerializer@Ogre@@QEAAXXZ 
?clearResourceGroup@ResourceGroupManager@Ogre@@QEAAXAEBV?$basic_string@DU?$char_traits@D@std@@V?$allocator@D@2@@std@@@Z 
?clearResults@IntersectionSceneQuery@Ogre@@UEAAXXZ 
?clearResults@RaySceneQuery@Ogre@@UEAAXXZ 
?clearResults@RegionSceneQuery@Ogre@@UEAAXXZ 
?clearScene@SceneManager@Ogre@@UEAAXXZ 
?clearSpecialCaseRenderQueues@SceneManager@Ogre@@UEAAXXZ 
?clearTagPoints@OldSkeletonInstance@Ogre@@QEAAXXZ 
?clearTranslatorManagers@ScriptCompilerManager@Ogre@@QEAAXXZ 
?clearUnused@ShadowTextureManager@Ogre@@UEAAXXZ 
?clearVertices@Pose@Ogre@@QEAAXXZ 
?clip@ConvexBody@Ogre@@QEAAXAEBV12@@Z 
?clip@ConvexBody@Ogre@@QEAAXAEBVAxisAlignedBox@2@@Z 
?clip@ConvexBody@Ogre@@QEAAXAEBVFrustum@2@@Z 
?clip@ConvexBody@Ogre@@QEAAXAEBVPlane@2@_N@Z 
?clone@Animation@Ogre@@QEBAPEAV12@AEBV?$basic_string@DU?$char_traits@D@std@@V?$allocator@D@2@@std@@I@Z 
?clone@AtomAbstractNode@Ogre@@UEBAPEAVAbstractNode@2@XZ 
?clone@EdgeData@Ogre@@QEAAPEAV12@XZ 
?clone@Entity@Ogre@@QEBAPEAV12@XZ 
?clone@HighLevelGpuProgram@Ogre@@QEAA?AV?$SharedPtr@VHighLevelGpuProgram@Ogre@@@2@AEBV?$basic_string@DU?$char_traits@D@std@@V?$allocator@D@2@@std@@@Z 
?clone@ImportAbstractNode@Ogre@@UEBAPEAVAbstractNode@2@XZ 
?clone@IndexData@Ogre@@QEBAPEAV12@_NPEAVHardwareBufferManagerBase@2@@Z 
?clone@Material@Ogre@@QEBA?AV?$SharedPtr@VMaterial@Ogre@@@2@AEBV?$basic_string@DU?$char_traits@D@std@@V?$allocator@D@2@@std@@_N0@Z 
?clone@Mesh@Ogre@@QEAA?AV?$SharedPtr@VMesh@Ogre@@@2@AEBV?$basic_string@DU?$char_traits@D@std@@V?$allocator@D@2@@std@@0@Z 
?clone@ObjectAbstractNode@Ogre@@UEBAPEAVAbstractNode@2@XZ 
?clone@Pose@Ogre@@QEBAPEAV12@XZ 
?clone@PropertyAbstractNode@Ogre@@UEBAPEAVAbstractNode@2@XZ 
?clone@SubMesh@Ogre@@QEAAPEAV12@AEBV?$basic_string@DU?$char_traits@D@std@@V?$allocator@D@2@@std@@PEAVMesh@2@@Z 
?clone@VariableAccessAbstractNode@Ogre@@UEBAPEAVAbstractNode@2@XZ 
?clone@VertexData@Ogre@@QEBAPEAV12@_NPEAVHardwareBufferManagerBase@2@@Z 
?clone@VertexDeclaration@Ogre@@UEBAPEAV12@PEAVHardwareBufferManagerBase@2@@Z 
?cloneBoneAndChildren@OldSkeletonInstance@Ogre@@IEAAXPEAVOldBone@2@0@Z 
?cloneMaterial@BaseInstanceBatchVTF@Ogre@@IEAAXAEBV?$SharedPtr@VMaterial@Ogre@@@2@@Z 
?cloneVertexDataRemoveBlendInfo@Entity@Ogre@@IEAAPEAVVertexData@2@PEBV32@@Z 
?close@DeflateStream@Ogre@@UEAAXXZ 
?close@FileHandleDataStream@Ogre@@UEAAXXZ 
?close@FileStreamDataStream@Ogre@@UEAAXXZ 
?close@MemoryDataStream@Ogre@@UEAAXXZ 
?closeGaps@VertexBufferBinding@Ogre@@UEAAXAEAV?$map@GGU?$less@G@std@@V?$STLAllocator@U?$pair@$$CBGG@std@@V?$CategorisedAllocPolicy@$0A@@Ogre@@@Ogre@@@std@@@Z 
?closeGapsInBindings@VertexData@Ogre@@QEAAXXZ 
?closeGapsInSource@VertexDeclaration@Ogre@@QEAAXXZ 
?collapseMax@ArrayVector3@Ogre@@QEBA?AVVector3@2@XZ 
?collapseMin@ArrayVector3@Ogre@@QEBA?AVVector3@2@XZ 
?collectPieces@Hlms@Ogre@@IEAA_NAEBV?$basic_string@DU?$char_traits@D@std@@V?$allocator@D@2@@std@@AEAV34@@Z 
?colour@ManualObject@Ogre@@UEAAXAEBVColourValue@2@@Z 
?colour@ManualObject@Ogre@@UEAAXMMMM@Z 
?combineTwoImagesAsRGBA@Image@Ogre@@QEAAAEAV12@AEBV12@0W4PixelFormat@2@@Z 
?compare@UTFString@Ogre@@QEBAHAEBV12@@Z 
?compare@UTFString@Ogre@@QEBAHPEBG@Z 
?compare@UTFString@Ogre@@QEBAH_K0AEBV12@00@Z 
?compare@UTFString@Ogre@@QEBAH_K0AEBV12@@Z 
?compare@UTFString@Ogre@@QEBAH_K0PEBD0@Z 
?compare@UTFString@Ogre@@QEBAH_K0PEBG0@Z 
?compare@UTFString@Ogre@@QEBAH_K0PEB_W0@Z 
?compile@Material@Ogre@@QEAAX_N@Z 
?compile@ScriptCompiler@Ogre@@QEAA_NAEBV?$SharedPtr@V?$list@V?$SharedPtr@UConcreteNode@Ogre@@@Ogre@@V?$STLAllocator@V?$SharedPtr@UConcreteNode@Ogre@@@Ogre@@V?$CategorisedAllocPolicy@$0A@@2@@2@@std@@@2@AEBV?$basic_string@DU?$char_traits@D@std@@V?$allocator@D@2@@std@@@Z 
?compile@ScriptCompiler@Ogre@@QEAA_NAEBV?$basic_string@DU?$char_traits@D@std@@V?$allocator@D@2@@std@@00@Z 
?compileBoneAssignments@Mesh@Ogre@@IEAAXAEBV?$multimap@_KUVertexBoneAssignment_s@Ogre@@U?$less@_K@std@@V?$STLAllocator@U?$pair@$$CB_KUVertexBoneAssignment_s@Ogre@@@std@@V?$CategorisedAllocPolicy@$0A@@Ogre@@@2@@std@@GAEAV?$FastArray@G@2@PEAVVertexData@2@@Z 
?compressFinal@DeflateStream@Ogre@@IEAAXXZ 
?computeConstrainedProjection@PlaneOptimalShadowCameraSetup@Ogre@@AEBA?AVMatrix4@2@AEBVVector4@2@AEBV?$vector@VVector4@Ogre@@V?$STLAllocator@VVector4@Ogre@@V?$CategorisedAllocPolicy@$0A@@2@@2@@std@@AEBV?$vector@VVector2@Ogre@@V?$STLAllocator@VVector2@Ogre@@V?$CategorisedAllocPolicy@$0A@@2@@2@@6@@Z 
?concatenate@Matrix4@Ogre@@QEBA?AV12@AEBV12@@Z 
?concatenateAffine@Matrix4@Ogre@@QEBA?AV12@AEBV12@@Z 
?configureRenderer@ParticleSystem@Ogre@@IEAAXXZ 
?connect@CompositorWorkspaceDef@Ogre@@QEAAXUIdString@2@0@Z 
?connect@CompositorWorkspaceDef@Ogre@@QEAAXUIdString@2@I0I@Z 
?connectAllNodes@CompositorWorkspace@Ogre@@IEAAXXZ 
?connectFinalRT@CompositorNode@Ogre@@QEAAXPEAVRenderTarget@2@AEAV?$vector@V?$SharedPtr@VTexture@Ogre@@@Ogre@@V?$STLAllocator@V?$SharedPtr@VTexture@Ogre@@@Ogre@@V?$CategorisedAllocPolicy@$0A@@2@@2@@std@@_K@Z 
?connectOrCreateEdge@EdgeListBuilder@Ogre@@IEAAX_K00000@Z 
?connectOutput@CompositorWorkspaceDef@Ogre@@QEAAXUIdString@2@I@Z 
?connectTo@CompositorNode@Ogre@@QEAAX_KPEAV12@0@Z 
?contains@Aabb@Ogre@@QEBA_NAEBU12@@Z 
?contains@Aabb@Ogre@@QEBA_NAEBVVector3@2@@Z 
?contains@ArrayAabb@Ogre@@QEBA?AT__m128@@AEBV12@@Z 
?contains@ArrayAabb@Ogre@@QEBA?AT__m128@@AEBVArrayVector3@2@@Z 
?contains@AxisAlignedBox@Ogre@@QEBA_NAEBV12@@Z 
?contains@AxisAlignedBox@Ogre@@QEBA_NAEBVVector3@2@@Z 
?convert3x4MatricesToDualQuaternions@BaseInstanceBatchVTF@Ogre@@IEAA_KPEAM_K0@Z 
?convertColourValue@RenderSystem@Ogre@@UEAAXAEBVColourValue@2@PEAI@Z 
?convertColourValue@Root@Ogre@@QEAAXAEBVColourValue@2@PEAI@Z 
?convertColourValue@VertexElement@Ogre@@SAIAEBVColourValue@2@W4VertexElementType@2@@Z 
?convertColourValue@VertexElement@Ogre@@SAXW4VertexElementType@2@0PEAI@Z 
?convertDXToOgreFormat@DDSCodec@Ogre@@AEBA?AW4PixelFormat@2@I@Z 
?convertFiltering@MaterialSerializer@Ogre@@IEAA?AV?$basic_string@DU?$char_traits@D@std@@V?$allocator@D@2@@std@@W4FilterOptions@2@@Z 
?convertFourCCFormat@DDSCodec@Ogre@@AEBA?AW4PixelFormat@2@I@Z 
?convertLocalToWorldOrientation@Node@Ogre@@QEAA?AVQuaternion@2@AEBV32@@Z 
?convertLocalToWorldOrientation@OldNode@Ogre@@UEAA?AVQuaternion@2@AEBV32@@Z 
?convertLocalToWorldPosition@Node@Ogre@@QEAA?AVVector3@2@AEBV32@@Z 
?convertLocalToWorldPosition@OldNode@Ogre@@UEAA?AVVector3@2@AEBV32@@Z 
?convertPackedColour@VertexData@Ogre@@QEAAXW4VertexElementType@2@0@Z 
?convertPixelFormat@DDSCodec@Ogre@@AEBA?AW4PixelFormat@2@IIIII@Z 
?convertToAST@ScriptCompiler@Ogre@@AEAA?AV?$SharedPtr@V?$list@V?$SharedPtr@VAbstractNode@Ogre@@@Ogre@@V?$STLAllocator@V?$SharedPtr@VAbstractNode@Ogre@@@Ogre@@V?$CategorisedAllocPolicy@$0A@@2@@2@@std@@@2@AEBV?$SharedPtr@V?$list@V?$SharedPtr@UConcreteNode@Ogre@@@Ogre@@V?$STLAllocator@V?$SharedPtr@UConcreteNode@Ogre@@@Ogre@@V?$CategorisedAllocPolicy@$0A@@2@@2@@std@@@2@@Z 
?convertToImage@Texture@Ogre@@UEAAXAEAVImage@2@_N@Z 
?convertToMesh@ManualObject@Ogre@@UEAA?AV?$SharedPtr@VMesh@Ogre@@@2@AEBV?$basic_string@DU?$char_traits@D@std@@V?$allocator@D@2@@std@@0@Z 
?convertWorldToLocalOrientation@Node@Ogre@@QEAA?AVQuaternion@2@AEBV32@@Z 
?convertWorldToLocalOrientation@OldNode@Ogre@@UEAA?AVQuaternion@2@AEBV32@@Z 
?convertWorldToLocalPosition@Node@Ogre@@QEAA?AVVector3@2@AEBV32@@Z 
?convertWorldToLocalPosition@OldNode@Ogre@@UEAA?AVVector3@2@AEBV32@@Z 
?copy@Hlms@Ogre@@KAXAEAV?$basic_string@DU?$char_traits@D@std@@V?$allocator@D@2@@std@@AEBVSubStringRef@2@_K@Z 
?copyConstantsFrom@GpuProgramParameters@Ogre@@QEAAXAEBV12@@Z 
?copyContentsToMemory@MultiRenderTarget@Ogre@@UEAAXAEBVPixelBox@2@W4FrameBuffer@RenderTarget@2@@Z 
?copyContentsToMemory@RenderTexture@Ogre@@UEAAXAEBVPixelBox@2@W4FrameBuffer@RenderTarget@2@@Z 
?copyData@HardwareBuffer@Ogre@@UEAAXAEAV12@@Z 
?copyData@HardwareBuffer@Ogre@@UEAAXAEAV12@_K11_N@Z 
?copyDetailsTo@Material@Ogre@@QEBAXAEAV?$SharedPtr@VMaterial@Ogre@@@2@@Z 
?copyMatchingNamedConstantsFrom@GpuProgramParameters@Ogre@@QEAAXAEBV12@@Z 
?copyMatchingState@AnimationStateSet@Ogre@@QEBAXPEAV12@@Z 
?copyParametersTo@StringInterface@Ogre@@UEBAXPEAV12@@Z 
?copySharedParamSetUsage@GpuProgramParameters@Ogre@@IEAAXAEBV?$vector@VGpuSharedParametersUsage@Ogre@@V?$STLAllocator@VGpuSharedParametersUsage@Ogre@@V?$CategorisedAllocPolicy@$0A@@2@@2@@std@@@Z 
?copyStateFrom@AnimationState@Ogre@@QEAAXAEBV12@@Z 
?copyTempVertexToBuffer@ManualObject@Ogre@@MEAAXXZ 
?copyToTexture@Texture@Ogre@@UEAAXAEAV?$SharedPtr@VTexture@Ogre@@@2@@Z 
?create@Archive@Ogre@@UEAA?AV?$SharedPtr@VDataStream@Ogre@@@2@AEBV?$basic_string@DU?$char_traits@D@std@@V?$allocator@D@2@@std@@@Z 
?create@FileSystemArchive@Ogre@@UEAA?AV?$SharedPtr@VDataStream@Ogre@@@2@AEBV?$basic_string@DU?$char_traits@D@std@@V?$allocator@D@2@@std@@@Z 
?create@GpuProgramManager@Ogre@@UEAA?AV?$SharedPtr@VResource@Ogre@@@2@AEBV?$basic_string@DU?$char_traits@D@std@@V?$allocator@D@2@@std@@0W4GpuProgramType@2@0_NPEAVManualResourceLoader@2@@Z 
?create@MaterialManager@Ogre@@QEAA?AV?$SharedPtr@VMaterial@Ogre@@@2@AEBV?$basic_string@DU?$char_traits@D@std@@V?$allocator@D@2@@std@@0_NPEAVManualResourceLoader@2@PEBV?$map@V?$basic_string@DU?$char_traits@D@std@@V?$allocator@D@2@@std@@V12@U?$less@V?$basic_string@DU?$char_traits@D@std@@V?$allocator@D@2@@std@@@2@V?$STLAllocator@U?$pair@$$CBV?$basic_string@DU?$char_traits@D@std@@V?$allocator@D@2@@std@@V12@@std@@V?$CategorisedAllocPolicy@$0A@@Ogre@@@Ogre@@@5@@Z 
?create@MeshManager@Ogre@@QEAA?AV?$SharedPtr@VMesh@Ogre@@@2@AEBV?$basic_string@DU?$char_traits@D@std@@V?$allocator@D@2@@std@@0_NPEAVManualResourceLoader@2@PEBV?$map@V?$basic_string@DU?$char_traits@D@std@@V?$allocator@D@2@@std@@V12@U?$less@V?$basic_string@DU?$char_traits@D@std@@V?$allocator@D@2@@std@@@2@V?$STLAllocator@U?$pair@$$CBV?$basic_string@DU?$char_traits@D@std@@V?$allocator@D@2@@std@@V12@@std@@V?$CategorisedAllocPolicy@$0A@@Ogre@@@Ogre@@@5@@Z 
?create@OldSkeletonManager@Ogre@@QEAA?AV?$SharedPtr@VSkeleton@Ogre@@@2@AEBV?$basic_string@DU?$char_traits@D@std@@V?$allocator@D@2@@std@@0_NPEAVManualResourceLoader@2@PEBV?$map@V?$basic_string@DU?$char_traits@D@std@@V?$allocator@D@2@@std@@V12@U?$less@V?$basic_string@DU?$char_traits@D@std@@V?$allocator@D@2@@std@@@2@V?$STLAllocator@U?$pair@$$CBV?$basic_string@DU?$char_traits@D@std@@V?$allocator@D@2@@std@@V12@@std@@V?$CategorisedAllocPolicy@$0A@@Ogre@@@Ogre@@@5@@Z 
?create@TextureManager@Ogre@@QEAA?AV?$SharedPtr@VTexture@Ogre@@@2@AEBV?$basic_string@DU?$char_traits@D@std@@V?$allocator@D@2@@std@@0_NPEAVManualResourceLoader@2@PEBV?$map@V?$basic_string@DU?$char_traits@D@std@@V?$allocator@D@2@@std@@V12@U?$less@V?$basic_string@DU?$char_traits@D@std@@V?$allocator@D@2@@std@@@2@V?$STLAllocator@U?$pair@$$CBV?$basic_string@DU?$char_traits@D@std@@V?$allocator@D@2@@std@@V12@@std@@V?$CategorisedAllocPolicy@$0A@@Ogre@@@Ogre@@@5@@Z 
?create@ZipArchive@Ogre@@UEAA?AV?$SharedPtr@VDataStream@Ogre@@@2@AEBV?$basic_string@DU?$char_traits@D@std@@V?$allocator@D@2@@std@@@Z 
?createAABBQuery@SceneManager@Ogre@@UEAAPEAVAxisAlignedBoxSceneQuery@2@AEBVAxisAlignedBox@2@I@Z 
?createAllFromMatrix4@ArrayMatrix4@Ogre@@SA?AV12@AEBVMatrix4@2@@Z 
?createAllFromMatrix4@ArrayMatrixAf4x3@Ogre@@SA?AV12@AEBVMatrix4@2@@Z 
?createAllInstancedEntities@InstanceBatch@Ogre@@MEAAXXZ 
?createAllInstancedEntities@InstanceBatchHW@Ogre@@MEAAXXZ 
?createAllInstancedEntities@InstanceBatchHW_VTF@Ogre@@MEAAXXZ 
?createAllNodes@CompositorWorkspace@Ogre@@IEAAXXZ 
?createAnimController@TextureUnitState@Ogre@@IEAAXXZ 
?createAnimableDictionary@AnimableObject@Ogre@@IEBAXXZ 
?createAnimableValue@AnimableObject@Ogre@@UEAA?AV?$SharedPtr@VAnimableValue@Ogre@@@2@AEBV?$basic_string@DU?$char_traits@D@std@@V?$allocator@D@2@@std@@@Z 
?createAnimableValue@Light@Ogre@@UEAA?AV?$SharedPtr@VAnimableValue@Ogre@@@2@AEBV?$basic_string@DU?$char_traits@D@std@@V?$allocator@D@2@@std@@@Z 
?createAnimation@Mesh@Ogre@@UEAAPEAVAnimation@2@AEBV?$basic_string@DU?$char_traits@D@std@@V?$allocator@D@2@@std@@IM@Z 
?createAnimation@OldSkeletonInstance@Ogre@@UEAAPEAVAnimation@2@AEBV?$basic_string@DU?$char_traits@D@std@@V?$allocator@D@2@@std@@IM@Z 
?createAnimation@SceneManager@Ogre@@UEAAPEAVAnimation@2@AEBV?$basic_string@DU?$char_traits@D@std@@V?$allocator@D@2@@std@@M@Z 
?createAnimation@Skeleton@Ogre@@UEAAPEAVAnimation@2@AEBV?$basic_string@DU?$char_traits@D@std@@V?$allocator@D@2@@std@@IM@Z 
?createAnimationState@AnimationStateSet@Ogre@@QEAAPEAVAnimationState@2@AEBV?$basic_string@DU?$char_traits@D@std@@V?$allocator@D@2@@std@@IMMM_N@Z 
?createAnimationState@SceneManager@Ogre@@UEAAPEAVAnimationState@2@AEBV?$basic_string@DU?$char_traits@D@std@@V?$allocator@D@2@@std@@@Z 
?createAutoParamDataSource@SceneManager@Ogre@@MEBAPEAVAutoParamDataSource@2@XZ 
?createBasicWorkspaceDef@CompositorManager2@Ogre@@QEAAXAEBUIdString@2@AEBVColourValue@2@U32@@Z 
?createBezierPatch@MeshManager@Ogre@@QEAA?AV?$SharedPtr@VPatchMesh@Ogre@@@2@AEBV?$basic_string@DU?$char_traits@D@std@@V?$allocator@D@2@@std@@0PEAXPEAVVertexDeclaration@2@_K333W4VisibleSide@PatchSurface@2@W4Usage@HardwareBuffer@2@5_N6@Z 
?createBillboard@BillboardSet@Ogre@@QEAAPEAVBillboard@2@AEBVVector3@2@AEBVColourValue@2@@Z 
?createBillboard@BillboardSet@Ogre@@QEAAPEAVBillboard@2@MMMAEBVColourValue@2@@Z 
?createBillboardChain@SceneManager@Ogre@@UEAAPEAVBillboardChain@2@XZ 
?createBillboardSet@SceneManager@Ogre@@UEAAPEAVBillboardSet@2@I@Z 
?createBlendMask@AnimationState@Ogre@@QEAAX_KM@Z 
?createBone@Skeleton@Ogre@@UEAAPEAVOldBone@2@AEBV?$basic_string@DU?$char_traits@D@std@@V?$allocator@D@2@@std@@@Z 
?createBone@Skeleton@Ogre@@UEAAPEAVOldBone@2@AEBV?$basic_string@DU?$char_traits@D@std@@V?$allocator@D@2@@std@@G@Z 
?createBone@Skeleton@Ogre@@UEAAPEAVOldBone@2@G@Z 
?createBone@Skeleton@Ogre@@UEAAPEAVOldBone@2@XZ 
?createCamera@SceneManager@Ogre@@UEAAPEAVCamera@2@AEBV?$basic_string@DU?$char_traits@D@std@@V?$allocator@D@2@@std@@_N1@Z 
?createChild@Node@Ogre@@UEAAPEAV12@W4SceneMemoryMgrTypes@2@AEBVVector3@2@AEBVQuaternion@2@@Z 
?createChild@OldBone@Ogre@@QEAAPEAV12@GAEBVVector3@2@AEBVQuaternion@2@@Z 
?createChild@OldNode@Ogre@@UEAAPEAV12@AEBV?$basic_string@DU?$char_traits@D@std@@V?$allocator@D@2@@std@@AEBVVector3@2@AEBVQuaternion@2@@Z 
?createChild@OldNode@Ogre@@UEAAPEAV12@AEBVVector3@2@AEBVQuaternion@2@@Z 
?createChildImpl@OldBone@Ogre@@MEAAPEAVOldNode@2@AEBV?$basic_string@DU?$char_traits@D@std@@V?$allocator@D@2@@std@@@Z 
?createChildImpl@OldBone@Ogre@@MEAAPEAVOldNode@2@XZ 
?createChildImpl@SceneNode@Ogre@@MEAAPEAVNode@2@W4SceneMemoryMgrTypes@2@@Z 
?createChildSceneNode@SceneNode@Ogre@@UEAAPEAV12@W4SceneMemoryMgrTypes@2@AEBVVector3@2@AEBVQuaternion@2@@Z 
?createController@ControllerManager@Ogre@@QEAAPEAV?$Controller@M@2@AEBV?$SharedPtr@V?$ControllerValue@M@Ogre@@@2@0AEBV?$SharedPtr@V?$ControllerFunction@M@Ogre@@@2@@Z 
?createCounterBuffer@DefaultHardwareBufferManagerBase@Ogre@@UEAA?AVHardwareCounterBufferSharedPtr@2@_KW4Usage@HardwareBuffer@2@_NAEBV?$basic_string@DU?$char_traits@D@std@@V?$allocator@D@2@@std@@@Z 
?createCounterBuffer@HardwareBufferManager@Ogre@@UEAA?AVHardwareCounterBufferSharedPtr@2@_KW4Usage@HardwareBuffer@2@_NAEBV?$basic_string@DU?$char_traits@D@std@@V?$allocator@D@2@@std@@@Z 
?createCube@PrefabFactory@Ogre@@CAXPEAVMesh@2@@Z 
?createCurvedIllusionPlane@MeshManager@Ogre@@QEAA?AV?$SharedPtr@VMesh@Ogre@@@2@AEBV?$basic_string@DU?$char_traits@D@std@@V?$allocator@D@2@@std@@0AEBVPlane@2@MMMHH_NGMMAEBVVector3@2@AEBVQuaternion@2@W4Usage@HardwareBuffer@2@522H@Z 
?createCurvedPlane@MeshManager@Ogre@@QEAA?AV?$SharedPtr@VMesh@Ogre@@@2@AEBV?$basic_string@DU?$char_traits@D@std@@V?$allocator@D@2@@std@@0AEBVPlane@2@MMMHH_NGMMAEBVVector3@2@W4Usage@HardwareBuffer@2@422@Z 
?createDeclaredResources@ResourceGroupManager@Ogre@@IEAAXPEAUResourceGroup@12@@Z 
?createDirectory@FileSystemLayer@Ogre@@SA_NAEBV?$basic_string@DU?$char_traits@D@std@@V?$allocator@D@2@@std@@@Z 
?createEffectController@TextureUnitState@Ogre@@IEAAXAEAUTextureEffect@12@@Z 
?createEmitterParticle@ParticleSystem@Ogre@@QEAAPEAVParticle@2@AEBV?$basic_string@DU?$char_traits@D@std@@V?$allocator@D@2@@std@@@Z 
?createEntity@SceneManager@Ogre@@UEAAPEAVEntity@2@AEBV?$SharedPtr@VMesh@Ogre@@@2@W4SceneMemoryMgrTypes@2@@Z 
?createEntity@SceneManager@Ogre@@UEAAPEAVEntity@2@AEBV?$basic_string@DU?$char_traits@D@std@@V?$allocator@D@2@@std@@0W4SceneMemoryMgrTypes@2@@Z 
?createEntity@SceneManager@Ogre@@UEAAPEAVEntity@2@W4PrefabType@12@W4SceneMemoryMgrTypes@2@@Z 
?createFileStream@Root@Ogre@@QEAA?AV?$SharedPtr@VDataStream@Ogre@@@2@AEBV?$basic_string@DU?$char_traits@D@std@@V?$allocator@D@2@@std@@0_N0@Z 
?createFrameTimePassthroughController@ControllerManager@Ogre@@QEAAPEAV?$Controller@M@2@AEBV?$SharedPtr@V?$ControllerValue@M@Ogre@@@2@@Z 
?createGpuProgramTimerParam@ControllerManager@Ogre@@QEAAPEAV?$Controller@M@2@V?$SharedPtr@VGpuProgramParameters@Ogre@@@2@_KM@Z 
?createImpl@HighLevelGpuProgramManager@Ogre@@MEAAPEAVResource@2@AEBV?$basic_string@DU?$char_traits@D@std@@V?$allocator@D@2@@std@@_K0_NPEAVManualResourceLoader@2@PEBV?$map@V?$basic_string@DU?$char_traits@D@std@@V?$allocator@D@2@@std@@V12@U?$less@V?$basic_string@DU?$char_traits@D@std@@V?$allocator@D@2@@std@@@2@V?$STLAllocator@U?$pair@$$CBV?$basic_string@DU?$char_traits@D@std@@V?$allocator@D@2@@std@@V12@@std@@V?$CategorisedAllocPolicy@$0A@@Ogre@@@Ogre@@@5@@Z 
?createImpl@MaterialManager@Ogre@@MEAAPEAVResource@2@AEBV?$basic_string@DU?$char_traits@D@std@@V?$allocator@D@2@@std@@_K0_NPEAVManualResourceLoader@2@PEBV?$map@V?$basic_string@DU?$char_traits@D@std@@V?$allocator@D@2@@std@@V12@U?$less@V?$basic_string@DU?$char_traits@D@std@@V?$allocator@D@2@@std@@@2@V?$STLAllocator@U?$pair@$$CBV?$basic_string@DU?$char_traits@D@std@@V?$allocator@D@2@@std@@V12@@std@@V?$CategorisedAllocPolicy@$0A@@Ogre@@@Ogre@@@5@@Z 
?createImpl@MeshManager@Ogre@@MEAAPEAVResource@2@AEBV?$basic_string@DU?$char_traits@D@std@@V?$allocator@D@2@@std@@_K0_NPEAVManualResourceLoader@2@PEBV?$map@V?$basic_string@DU?$char_traits@D@std@@V?$allocator@D@2@@std@@V12@U?$less@V?$basic_string@DU?$char_traits@D@std@@V?$allocator@D@2@@std@@@2@V?$STLAllocator@U?$pair@$$CBV?$basic_string@DU?$char_traits@D@std@@V?$allocator@D@2@@std@@V12@@std@@V?$CategorisedAllocPolicy@$0A@@Ogre@@@Ogre@@@5@@Z 
?createImpl@OldSkeletonManager@Ogre@@MEAAPEAVResource@2@AEBV?$basic_string@DU?$char_traits@D@std@@V?$allocator@D@2@@std@@_K0_NPEAVManualResourceLoader@2@PEBV?$map@V?$basic_string@DU?$char_traits@D@std@@V?$allocator@D@2@@std@@V12@U?$less@V?$basic_string@DU?$char_traits@D@std@@V?$allocator@D@2@@std@@@2@V?$STLAllocator@U?$pair@$$CBV?$basic_string@DU?$char_traits@D@std@@V?$allocator@D@2@@std@@V12@@std@@V?$CategorisedAllocPolicy@$0A@@Ogre@@@Ogre@@@5@@Z 
?createImplicitAlias@CompositorWorkspaceDef@Ogre@@IEAAXUIdString@2@@Z 
?createIndexBuffer@DefaultHardwareBufferManagerBase@Ogre@@UEAA?AVHardwareIndexBufferSharedPtr@2@W4IndexType@HardwareIndexBuffer@2@_KW4Usage@HardwareBuffer@2@_N@Z 
?createIndexBuffer@HardwareBufferManager@Ogre@@UEAA?AVHardwareIndexBufferSharedPtr@2@W4IndexType@HardwareIndexBuffer@2@_KW4Usage@HardwareBuffer@2@_N@Z 
?createInfoForMethod@?$SharedPtr@VHardwareCounterBuffer@Ogre@@@Ogre@@CAPEAUSharedPtrInfo@2@PEAVHardwareCounterBuffer@2@W4SharedPtrFreeMethod@2@@Z 
?createInfoForMethod@?$SharedPtr@VHardwareIndexBuffer@Ogre@@@Ogre@@CAPEAUSharedPtrInfo@2@PEAVHardwareIndexBuffer@2@W4SharedPtrFreeMethod@2@@Z 
?createInfoForMethod@?$SharedPtr@VHardwarePixelBuffer@Ogre@@@Ogre@@CAPEAUSharedPtrInfo@2@PEAVHardwarePixelBuffer@2@W4SharedPtrFreeMethod@2@@Z 
?createInfoForMethod@?$SharedPtr@VHardwareUniformBuffer@Ogre@@@Ogre@@CAPEAUSharedPtrInfo@2@PEAVHardwareUniformBuffer@2@W4SharedPtrFreeMethod@2@@Z 
?createInfoForMethod@?$SharedPtr@VHardwareVertexBuffer@Ogre@@@Ogre@@CAPEAUSharedPtrInfo@2@PEAVHardwareVertexBuffer@2@W4SharedPtrFreeMethod@2@@Z 
?createInstance@ArchiveFactory@Ogre@@UEAAPEAVArchive@2@AEBV?$basic_string@DU?$char_traits@D@std@@V?$allocator@D@2@@std@@@Z 
?createInstance@BillboardParticleRendererFactory@Ogre@@UEAAPEAVParticleSystemRenderer@2@AEBV?$basic_string@DU?$char_traits@D@std@@V?$allocator@D@2@@std@@@Z 
?createInstance@DefaultSceneManagerFactory@Ogre@@UEAAPEAVSceneManager@2@AEBV?$basic_string@DU?$char_traits@D@std@@V?$allocator@D@2@@std@@_KW4InstancingThreadedCullingMethod@2@@Z 
?createInstance@EmbeddedZipArchiveFactory@Ogre@@UEAAPEAVArchive@2@AEBV?$basic_string@DU?$char_traits@D@std@@V?$allocator@D@2@@std@@_N@Z 
?createInstance@FileSystemArchiveFactory@Ogre@@UEAAPEAVArchive@2@AEBV?$basic_string@DU?$char_traits@D@std@@V?$allocator@D@2@@std@@_N@Z 
?createInstance@MovableObjectFactory@Ogre@@UEAAPEAVMovableObject@2@IPEAVObjectMemoryManager@2@PEAVSceneManager@2@PEBV?$map@V?$basic_string@DU?$char_traits@D@std@@V?$allocator@D@2@@std@@V12@U?$less@V?$basic_string@DU?$char_traits@D@std@@V?$allocator@D@2@@std@@@2@V?$STLAllocator@U?$pair@$$CBV?$basic_string@DU?$char_traits@D@std@@V?$allocator@D@2@@std@@V12@@std@@V?$CategorisedAllocPolicy@$0A@@Ogre@@@Ogre@@@std@@@Z 
?createInstanceImpl@BillboardChainFactory@Ogre@@MEAAPEAVMovableObject@2@IPEAVObjectMemoryManager@2@PEBV?$map@V?$basic_string@DU?$char_traits@D@std@@V?$allocator@D@2@@std@@V12@U?$less@V?$basic_string@DU?$char_traits@D@std@@V?$allocator@D@2@@std@@@2@V?$STLAllocator@U?$pair@$$CBV?$basic_string@DU?$char_traits@D@std@@V?$allocator@D@2@@std@@V12@@std@@V?$CategorisedAllocPolicy@$0A@@Ogre@@@Ogre@@@std@@@Z 
?createInstanceImpl@BillboardSetFactory@Ogre@@MEAAPEAVMovableObject@2@IPEAVObjectMemoryManager@2@PEBV?$map@V?$basic_string@DU?$char_traits@D@std@@V?$allocator@D@2@@std@@V12@U?$less@V?$basic_string@DU?$char_traits@D@std@@V?$allocator@D@2@@std@@@2@V?$STLAllocator@U?$pair@$$CBV?$basic_string@DU?$char_traits@D@std@@V?$allocator@D@2@@std@@V12@@std@@V?$CategorisedAllocPolicy@$0A@@Ogre@@@Ogre@@@std@@@Z 
?createInstanceImpl@EntityFactory@Ogre@@MEAAPEAVMovableObject@2@IPEAVObjectMemoryManager@2@PEBV?$map@V?$basic_string@DU?$char_traits@D@std@@V?$allocator@D@2@@std@@V12@U?$less@V?$basic_string@DU?$char_traits@D@std@@V?$allocator@D@2@@std@@@2@V?$STLAllocator@U?$pair@$$CBV?$basic_string@DU?$char_traits@D@std@@V?$allocator@D@2@@std@@V12@@std@@V?$CategorisedAllocPolicy@$0A@@Ogre@@@Ogre@@@std@@@Z 
?createInstanceImpl@LightFactory@Ogre@@MEAAPEAVMovableObject@2@IPEAVObjectMemoryManager@2@PEBV?$map@V?$basic_string@DU?$char_traits@D@std@@V?$allocator@D@2@@std@@V12@U?$less@V?$basic_string@DU?$char_traits@D@std@@V?$allocator@D@2@@std@@@2@V?$STLAllocator@U?$pair@$$CBV?$basic_string@DU?$char_traits@D@std@@V?$allocator@D@2@@std@@V12@@std@@V?$CategorisedAllocPolicy@$0A@@Ogre@@@Ogre@@@std@@@Z 
?createInstanceImpl@ManualObjectFactory@Ogre@@MEAAPEAVMovableObject@2@IPEAVObjectMemoryManager@2@PEBV?$map@V?$basic_string@DU?$char_traits@D@std@@V?$allocator@D@2@@std@@V12@U?$less@V?$basic_string@DU?$char_traits@D@std@@V?$allocator@D@2@@std@@@2@V?$STLAllocator@U?$pair@$$CBV?$basic_string@DU?$char_traits@D@std@@V?$allocator@D@2@@std@@V12@@std@@V?$CategorisedAllocPolicy@$0A@@Ogre@@@Ogre@@@std@@@Z 
?createInstanceImpl@ParticleSystemFactory@Ogre@@MEAAPEAVMovableObject@2@IPEAVObjectMemoryManager@2@PEBV?$map@V?$basic_string@DU?$char_traits@D@std@@V?$allocator@D@2@@std@@V12@U?$less@V?$basic_string@DU?$char_traits@D@std@@V?$allocator@D@2@@std@@@2@V?$STLAllocator@U?$pair@$$CBV?$basic_string@DU?$char_traits@D@std@@V?$allocator@D@2@@std@@V12@@std@@V?$CategorisedAllocPolicy@$0A@@Ogre@@@Ogre@@@std@@@Z 
?createInstanceImpl@RibbonTrailFactory@Ogre@@MEAAPEAVMovableObject@2@IPEAVObjectMemoryManager@2@PEBV?$map@V?$basic_string@DU?$char_traits@D@std@@V?$allocator@D@2@@std@@V12@U?$less@V?$basic_string@DU?$char_traits@D@std@@V?$allocator@D@2@@std@@@2@V?$STLAllocator@U?$pair@$$CBV?$basic_string@DU?$char_traits@D@std@@V?$allocator@D@2@@std@@V12@@std@@V?$CategorisedAllocPolicy@$0A@@Ogre@@@Ogre@@@std@@@Z 
?createInstanceManager@SceneManager@Ogre@@UEAAPEAVInstanceManager@2@AEBV?$basic_string@DU?$char_traits@D@std@@V?$allocator@D@2@@std@@00W4InstancingTechnique@32@_KGG@Z 
?createInstancedEntity@InstanceBatch@Ogre@@QEAAPEAVInstancedEntity@2@XZ 
?createInstancedEntity@InstanceManager@Ogre@@QEAAPEAVInstancedEntity@2@AEBV?$basic_string@DU?$char_traits@D@std@@V?$allocator@D@2@@std@@W4SceneMemoryMgrTypes@2@@Z 
?createInstancedEntity@SceneManager@Ogre@@UEAAPEAVInstancedEntity@2@AEBV?$basic_string@DU?$char_traits@D@std@@V?$allocator@D@2@@std@@0@Z 
?createInternalResources@Texture@Ogre@@UEAAXXZ 
?createIntersectionQuery@SceneManager@Ogre@@UEAAPEAVIntersectionSceneQuery@2@I@Z 
?createKeyFrame@AnimationTrack@Ogre@@UEAAPEAVKeyFrame@2@M@Z 
?createKeyFrameImpl@NodeAnimationTrack@Ogre@@MEAAPEAVKeyFrame@2@M@Z 
?createKeyFrameImpl@NumericAnimationTrack@Ogre@@MEAAPEAVKeyFrame@2@M@Z 
?createKeyFrameImpl@OldNodeAnimationTrack@Ogre@@MEAAPEAVKeyFrame@2@M@Z 
?createKeyFrameImpl@VertexAnimationTrack@Ogre@@MEAAPEAVKeyFrame@2@M@Z 
?createLight@SceneManager@Ogre@@UEAAPEAVLight@2@XZ 
?createLog@LogManager@Ogre@@QEAAPEAVLog@2@AEBV?$basic_string@DU?$char_traits@D@std@@V?$allocator@D@2@@std@@_N11@Z 
?createLogicalParameterMappingStructures@GpuProgram@Ogre@@IEBAX_N@Z 
?createLowLevelImpl@UnifiedHighLevelGpuProgram@Ogre@@MEAAXXZ 
?createManual@MeshManager@Ogre@@QEAA?AV?$SharedPtr@VMesh@Ogre@@@2@AEBV?$basic_string@DU?$char_traits@D@std@@V?$allocator@D@2@@std@@0PEAVManualResourceLoader@2@@Z 
?createManual@TextureManager@Ogre@@QEAA?AV?$SharedPtr@VTexture@Ogre@@@2@AEBV?$basic_string@DU?$char_traits@D@std@@V?$allocator@D@2@@std@@0W4TextureType@2@IIHW4PixelFormat@2@HPEAVManualResourceLoader@2@_NI04@Z 
?createManual@TextureManager@Ogre@@UEAA?AV?$SharedPtr@VTexture@Ogre@@@2@AEBV?$basic_string@DU?$char_traits@D@std@@V?$allocator@D@2@@std@@0W4TextureType@2@IIIHW4PixelFormat@2@HPEAVManualResourceLoader@2@_NI04@Z 
?createManualObject@SceneManager@Ogre@@UEAAPEAVManualObject@2@W4SceneMemoryMgrTypes@2@@Z 
?createMicrocode@GpuProgramManager@Ogre@@UEBA?AV?$SharedPtr@VMemoryDataStream@Ogre@@@2@I@Z 
?createMovableObject@SceneManager@Ogre@@UEAAPEAVMovableObject@2@AEBV?$basic_string@DU?$char_traits@D@std@@V?$allocator@D@2@@std@@PEAVObjectMemoryManager@2@PEBV?$map@V?$basic_string@DU?$char_traits@D@std@@V?$allocator@D@2@@std@@V12@U?$less@V?$basic_string@DU?$char_traits@D@std@@V?$allocator@D@2@@std@@@2@V?$STLAllocator@U?$pair@$$CBV?$basic_string@DU?$char_traits@D@std@@V?$allocator@D@2@@std@@V12@@std@@V?$CategorisedAllocPolicy@$0A@@Ogre@@@Ogre@@@5@@Z 
?createNamedParameterMappingStructures@GpuProgram@Ogre@@IEBAX_N@Z 
?createNewNode@BoneArrayMemoryManager@Ogre@@QEAAXAEAUBoneTransform@2@@Z 
?createNewNode@KfTransformArrayMemoryManager@Ogre@@QEAAXPEAPEAUKfTransform@2@@Z 
?createNewNode@NodeArrayMemoryManager@Ogre@@QEAAXAEAUTransform@2@@Z 
?createNewNode@ObjectDataArrayMemoryManager@Ogre@@QEAAXAEAUObjectData@2@@Z 
?createNewSlot@ArrayMemoryManager@Ogre@@IEAA_KXZ 
?createNodeKeyFrame@NodeAnimationTrack@Ogre@@UEAAPEAVTransformKeyFrame@2@M@Z 
?createNodeKeyFrame@OldNodeAnimationTrack@Ogre@@UEAAPEAVTransformKeyFrame@2@M@Z 
?createNodeTrack@Animation@Ogre@@QEAAPEAVNodeAnimationTrack@2@PEAVNode@2@@Z 
?createNodeTrack@Animation@Ogre@@QEAAPEAVNodeAnimationTrack@2@XZ 
?createNumericKeyFrame@NumericAnimationTrack@Ogre@@UEAAPEAVNumericKeyFrame@2@M@Z 
?createNumericTrack@Animation@Ogre@@QEAAPEAVNumericAnimationTrack@2@G@Z 
?createNumericTrack@Animation@Ogre@@QEAAPEAVNumericAnimationTrack@2@GAEBV?$SharedPtr@VAnimableValue@Ogre@@@2@@Z 
?createOldNodeTrack@Animation@Ogre@@QEAAPEAVOldNodeAnimationTrack@2@G@Z 
?createOldNodeTrack@Animation@Ogre@@QEAAPEAVOldNodeAnimationTrack@2@GPEAVOldNode@2@@Z 
?createOrRetrieve@MeshManager@Ogre@@QEAA?AU?$pair@V?$SharedPtr@VResource@Ogre@@@Ogre@@_N@std@@AEBV?$basic_string@DU?$char_traits@D@std@@V?$allocator@D@2@@4@0_NPEAVManualResourceLoader@2@PEBV?$map@V?$basic_string@DU?$char_traits@D@std@@V?$allocator@D@2@@std@@V12@U?$less@V?$basic_string@DU?$char_traits@D@std@@V?$allocator@D@2@@std@@@2@V?$STLAllocator@U?$pair@$$CBV?$basic_string@DU?$char_traits@D@std@@V?$allocator@D@2@@std@@V12@@std@@V?$CategorisedAllocPolicy@$0A@@Ogre@@@Ogre@@@4@W4Usage@HardwareBuffer@2@411@Z 
?createOrRetrieve@ResourceManager@Ogre@@UEAA?AU?$pair@V?$SharedPtr@VResource@Ogre@@@Ogre@@_N@std@@AEBV?$basic_string@DU?$char_traits@D@std@@V?$allocator@D@2@@4@0_NPEAVManualResourceLoader@2@PEBV?$map@V?$basic_string@DU?$char_traits@D@std@@V?$allocator@D@2@@std@@V12@U?$less@V?$basic_string@DU?$char_traits@D@std@@V?$allocator@D@2@@std@@@2@V?$STLAllocator@U?$pair@$$CBV?$basic_string@DU?$char_traits@D@std@@V?$allocator@D@2@@std@@V12@@std@@V?$CategorisedAllocPolicy@$0A@@Ogre@@@Ogre@@@4@@Z 
?createOrRetrieve@TextureManager@Ogre@@UEAA?AU?$pair@V?$SharedPtr@VResource@Ogre@@@Ogre@@_N@std@@AEBV?$basic_string@DU?$char_traits@D@std@@V?$allocator@D@2@@4@0_NPEAVManualResourceLoader@2@PEBV?$map@V?$basic_string@DU?$char_traits@D@std@@V?$allocator@D@2@@std@@V12@U?$less@V?$basic_string@DU?$char_traits@D@std@@V?$allocator@D@2@@std@@@2@V?$STLAllocator@U?$pair@$$CBV?$basic_string@DU?$char_traits@D@std@@V?$allocator@D@2@@std@@V12@@std@@V?$CategorisedAllocPolicy@$0A@@Ogre@@@Ogre@@@4@W4TextureType@2@HM1W4PixelFormat@2@1@Z 
?createParamDictionary@StringInterface@Ogre@@IEAA_NAEBV?$basic_string@DU?$char_traits@D@std@@V?$allocator@D@2@@std@@@Z 
?createParameterMappingStructures@GpuProgram@Ogre@@IEBAX_N@Z 
?createParameters@GpuProgram@Ogre@@UEAA?AV?$SharedPtr@VGpuProgramParameters@Ogre@@@2@XZ 
?createParameters@GpuProgramManager@Ogre@@UEAA?AV?$SharedPtr@VGpuProgramParameters@Ogre@@@2@XZ 
?createParameters@HighLevelGpuProgram@Ogre@@UEAA?AV?$SharedPtr@VGpuProgramParameters@Ogre@@@2@XZ 
?createParameters@UnifiedHighLevelGpuProgram@Ogre@@UEAA?AV?$SharedPtr@VGpuProgramParameters@Ogre@@@2@XZ 
?createParticle@ParticleSystem@Ogre@@QEAAPEAVParticle@2@XZ 
?createParticleSystem@SceneManager@Ogre@@UEAAPEAVParticleSystem@2@AEBV?$basic_string@DU?$char_traits@D@std@@V?$allocator@D@2@@std@@@Z 
?createParticleSystem@SceneManager@Ogre@@UEAAPEAVParticleSystem@2@_KAEBV?$basic_string@DU?$char_traits@D@std@@V?$allocator@D@2@@std@@@Z 
?createPass@Technique@Ogre@@QEAAPEAVPass@2@XZ 
?createPasses@CompositorNode@Ogre@@QEAAXXZ 
?createPlane@MeshManager@Ogre@@QEAA?AV?$SharedPtr@VMesh@Ogre@@@2@AEBV?$basic_string@DU?$char_traits@D@std@@V?$allocator@D@2@@std@@0AEBVPlane@2@MMHH_NGMMAEBVVector3@2@W4Usage@HardwareBuffer@2@422@Z 
?createPlane@PrefabFactory@Ogre@@CAXPEAVMesh@2@@Z 
?createPlaneBoundedVolumeQuery@SceneManager@Ogre@@UEAAPEAVPlaneBoundedVolumeListSceneQuery@2@AEBV?$vector@VPlaneBoundedVolume@Ogre@@V?$STLAllocator@VPlaneBoundedVolume@Ogre@@V?$CategorisedAllocPolicy@$0A@@2@@2@@std@@I@Z 
?createPose@Mesh@Ogre@@QEAAPEAVPose@2@GAEBV?$basic_string@DU?$char_traits@D@std@@V?$allocator@D@2@@std@@@Z 
?createPrefab@PrefabFactory@Ogre@@SA_NPEAVMesh@2@@Z 
?createPrefabCube@MeshManager@Ogre@@IEAAXXZ 
?createPrefabPlane@MeshManager@Ogre@@IEAAXXZ 
?createPrefabSphere@MeshManager@Ogre@@IEAAXXZ 
?createProgram@GpuProgramManager@Ogre@@UEAA?AV?$SharedPtr@VGpuProgram@Ogre@@@2@AEBV?$basic_string@DU?$char_traits@D@std@@V?$allocator@D@2@@std@@00W4GpuProgramType@2@0@Z 
?createProgram@HighLevelGpuProgramManager@Ogre@@QEAA?AV?$SharedPtr@VHighLevelGpuProgram@Ogre@@@2@AEBV?$basic_string@DU?$char_traits@D@std@@V?$allocator@D@2@@std@@00W4GpuProgramType@2@@Z 
?createProgramFromString@GpuProgramManager@Ogre@@UEAA?AV?$SharedPtr@VGpuProgram@Ogre@@@2@AEBV?$basic_string@DU?$char_traits@D@std@@V?$allocator@D@2@@std@@00W4GpuProgramType@2@0@Z 
?createRayQuery@SceneManager@Ogre@@UEAAPEAVRaySceneQuery@2@AEBVRay@2@I@Z 
?createRenderQueueInvocationSequence@Root@Ogre@@QEAAPEAVRenderQueueInvocationSequence@2@AEBV?$basic_string@DU?$char_traits@D@std@@V?$allocator@D@2@@std@@@Z 
?createRenderToVertexBuffer@DefaultHardwareBufferManagerBase@Ogre@@UEAA?AV?$SharedPtr@VRenderToVertexBuffer@Ogre@@@2@XZ 
?createRenderToVertexBuffer@HardwareBufferManager@Ogre@@UEAA?AV?$SharedPtr@VRenderToVertexBuffer@Ogre@@@2@XZ 
?createRenderWindow@Root@Ogre@@QEAAPEAVRenderWindow@2@AEBV?$basic_string@DU?$char_traits@D@std@@V?$allocator@D@2@@std@@II_NPEBV?$map@V?$basic_string@DU?$char_traits@D@std@@V?$allocator@D@2@@std@@V12@U?$less@V?$basic_string@DU?$char_traits@D@std@@V?$allocator@D@2@@std@@@2@V?$STLAllocator@U?$pair@$$CBV?$basic_string@DU?$char_traits@D@std@@V?$allocator@D@2@@std@@V12@@std@@V?$CategorisedAllocPolicy@$0A@@Ogre@@@Ogre@@@5@@Z 
?createRenderWindows@Root@Ogre@@QEAA_NAEBV?$vector@URenderWindowDescription@Ogre@@V?$STLAllocator@URenderWindowDescription@Ogre@@V?$CategorisedAllocPolicy@$0A@@2@@2@@std@@AEAV?$vector@PEAVRenderWindow@Ogre@@V?$STLAllocator@PEAVRenderWindow@Ogre@@V?$CategorisedAllocPolicy@$0A@@2@@2@@4@@Z 
?createResource@ResourceGroupManager@Ogre@@QEAA?AV?$SharedPtr@VDataStream@Ogre@@@2@AEBV?$basic_string@DU?$char_traits@D@std@@V?$allocator@D@2@@std@@0_N0@Z 
?createResource@ResourceManager@Ogre@@UEAA?AV?$SharedPtr@VResource@Ogre@@@2@AEBV?$basic_string@DU?$char_traits@D@std@@V?$allocator@D@2@@std@@0_NPEAVManualResourceLoader@2@PEBV?$map@V?$basic_string@DU?$char_traits@D@std@@V?$allocator@D@2@@std@@V12@U?$less@V?$basic_string@DU?$char_traits@D@std@@V?$allocator@D@2@@std@@@2@V?$STLAllocator@U?$pair@$$CBV?$basic_string@DU?$char_traits@D@std@@V?$allocator@D@2@@std@@V12@@std@@V?$CategorisedAllocPolicy@$0A@@Ogre@@@Ogre@@@5@@Z 
?createResourceGroup@ResourceGroupManager@Ogre@@QEAAXAEBV?$basic_string@DU?$char_traits@D@std@@V?$allocator@D@2@@std@@_N@Z 
?createRibbonTrail@SceneManager@Ogre@@UEAAPEAVRibbonTrail@2@XZ 
?createSceneManager@Root@Ogre@@QEAAPEAVSceneManager@2@AEBV?$basic_string@DU?$char_traits@D@std@@V?$allocator@D@2@@std@@_KW4InstancingThreadedCullingMethod@2@0@Z 
?createSceneManager@Root@Ogre@@QEAAPEAVSceneManager@2@G_KW4InstancingThreadedCullingMethod@2@AEBV?$basic_string@DU?$char_traits@D@std@@V?$allocator@D@2@@std@@@Z 
?createSceneManager@SceneManagerEnumerator@Ogre@@QEAAPEAVSceneManager@2@AEBV?$basic_string@DU?$char_traits@D@std@@V?$allocator@D@2@@std@@_KW4InstancingThreadedCullingMethod@2@0@Z 
?createSceneManager@SceneManagerEnumerator@Ogre@@QEAAPEAVSceneManager@2@G_KW4InstancingThreadedCullingMethod@2@AEBV?$basic_string@DU?$char_traits@D@std@@V?$allocator@D@2@@std@@@Z 
?createSceneNode@SceneManager@Ogre@@UEAAPEAVSceneNode@2@W4SceneMemoryMgrTypes@2@@Z 
?createSceneNodeImpl@SceneManager@Ogre@@MEAAPEAVSceneNode@2@PEAV32@W4SceneMemoryMgrTypes@2@@Z 
?createShaderAccessPoint@Texture@Ogre@@UEAAXIW4TextureAccess@2@HHPEAW4PixelFormat@2@@Z 
?createShaderCacheEntry@Hlms@Ogre@@IEAAPEBUHlmsCache@2@IAEBU32@I@Z 
?createShadowTexture@CompositorShadowNode@Ogre@@AEAA?AUCompositorChannel@2@AEBVShadowTextureDefinition@2@PEBVRenderTarget@2@@Z 
?createSharedParameters@GpuProgramManager@Ogre@@UEAA?AV?$SharedPtr@VGpuSharedParameters@Ogre@@@2@AEBV?$basic_string@DU?$char_traits@D@std@@V?$allocator@D@2@@std@@@Z 
?createSkeletonInstance@InstancedEntity@Ogre@@IEAAXXZ 
?createSkeletonInstance@SceneManager@Ogre@@QEAAPEAVSkeletonInstance@2@PEBVSkeletonDef@2@@Z 
?createSkyboxPlane@SceneManager@Ogre@@MEAA?AV?$SharedPtr@VMesh@Ogre@@@2@W4BoxPlane@12@MAEBVQuaternion@2@AEBV?$basic_string@DU?$char_traits@D@std@@V?$allocator@D@2@@std@@@Z 
?createSkydomePlane@SceneManager@Ogre@@MEAA?AV?$SharedPtr@VMesh@Ogre@@@2@W4BoxPlane@12@MMMAEBVQuaternion@2@HHHAEBV?$basic_string@DU?$char_traits@D@std@@V?$allocator@D@2@@std@@@Z 
?createSphere@PrefabFactory@Ogre@@CAXPEAVMesh@2@@Z 
?createSphereQuery@SceneManager@Ogre@@UEAAPEAVSphereSceneQuery@2@AEBVSphere@2@I@Z 
?createStaticGeometry@SceneManager@Ogre@@UEAAPEAVStaticGeometry@2@AEBV?$basic_string@DU?$char_traits@D@std@@V?$allocator@D@2@@std@@@Z 
?createSubMesh@Mesh@Ogre@@QEAAPEAVSubMesh@2@AEBV?$basic_string@DU?$char_traits@D@std@@V?$allocator@D@2@@std@@@Z 
?createSubMesh@Mesh@Ogre@@QEAAPEAVSubMesh@2@XZ 
?createSystemImpl@ParticleSystemManager@Ogre@@IEAAPEAVParticleSystem@2@IPEAVObjectMemoryManager@2@AEBV?$basic_string@DU?$char_traits@D@std@@V?$allocator@D@2@@std@@@Z 
?createSystemImpl@ParticleSystemManager@Ogre@@IEAAPEAVParticleSystem@2@IPEAVObjectMemoryManager@2@_KAEBV?$basic_string@DU?$char_traits@D@std@@V?$allocator@D@2@@std@@@Z 
?createTagPointOnBone@OldSkeletonInstance@Ogre@@QEAAPEAVTagPoint@2@PEAVEntity@2@PEAVMovableObject@2@AEBV?$basic_string@DU?$char_traits@D@std@@V?$allocator@D@2@@std@@AEBVQuaternion@2@AEBVVector3@2@@Z 
?createTechnique@Material@Ogre@@QEAAPEAVTechnique@2@XZ 
?createTemplate@ParticleSystemManager@Ogre@@QEAAPEAVParticleSystem@2@AEBV?$basic_string@DU?$char_traits@D@std@@V?$allocator@D@2@@std@@0@Z 
?createTexture@TextureDefinitionBase@Ogre@@SA?AUCompositorChannel@2@AEBVTextureDefinition@12@AEBV?$basic_string@DU?$char_traits@D@std@@V?$allocator@D@2@@std@@PEBVRenderTarget@2@PEAVRenderSystem@2@@Z 
?createTextureAnimator@ControllerManager@Ogre@@QEAAPEAV?$Controller@M@2@PEAVTextureUnitState@2@M@Z 
?createTextureRotater@ControllerManager@Ogre@@QEAAPEAV?$Controller@M@2@PEAVTextureUnitState@2@M@Z 
?createTextureUScroller@ControllerManager@Ogre@@QEAAPEAV?$Controller@M@2@PEAVTextureUnitState@2@M@Z 
?createTextureUVScroller@ControllerManager@Ogre@@QEAAPEAV?$Controller@M@2@PEAVTextureUnitState@2@M@Z 
?createTextureUnitState@Pass@Ogre@@QEAAPEAVTextureUnitState@2@AEBV?$basic_string@DU?$char_traits@D@std@@V?$allocator@D@2@@std@@G@Z 
?createTextureUnitState@Pass@Ogre@@QEAAPEAVTextureUnitState@2@XZ 
?createTextureVScroller@ControllerManager@Ogre@@QEAAPEAV?$Controller@M@2@PEAVTextureUnitState@2@M@Z 
?createTextureWaveTransformer@ControllerManager@Ogre@@QEAAPEAV?$Controller@M@2@PEAVTextureUnitState@2@W4TextureTransformType@42@W4WaveformType@2@MMMM@Z 
?createTextures@TextureDefinitionBase@Ogre@@SAXAEBV?$vector@VTextureDefinition@TextureDefinitionBase@Ogre@@V?$STLAllocator@VTextureDefinition@TextureDefinitionBase@Ogre@@V?$CategorisedAllocPolicy@$0A@@3@@3@@std@@AEAV?$vector@UCompositorChannel@Ogre@@V?$STLAllocator@UCompositorChannel@Ogre@@V?$CategorisedAllocPolicy@$0A@@2@@2@@4@I_NPEBVRenderTarget@2@PEAVRenderSystem@2@@Z 
?createUniformBuffer@DefaultHardwareBufferManagerBase@Ogre@@UEAA?AVHardwareUniformBufferSharedPtr@2@_KW4Usage@HardwareBuffer@2@_NAEBV?$basic_string@DU?$char_traits@D@std@@V?$allocator@D@2@@std@@@Z 
?createUniformBuffer@HardwareBufferManager@Ogre@@UEAA?AVHardwareUniformBufferSharedPtr@2@_KW4Usage@HardwareBuffer@2@_NAEBV?$basic_string@DU?$char_traits@D@std@@V?$allocator@D@2@@std@@@Z 
?createVertexBuffer@DefaultHardwareBufferManagerBase@Ogre@@UEAA?AVHardwareVertexBufferSharedPtr@2@_K0W4Usage@HardwareBuffer@2@_N@Z 
?createVertexBuffer@HardwareBufferManager@Ogre@@UEAA?AVHardwareVertexBufferSharedPtr@2@_K0W4Usage@HardwareBuffer@2@_N@Z 
?createVertexBufferBinding@HardwareBufferManager@Ogre@@UEAAPEAVVertexBufferBinding@2@XZ 
?createVertexBufferBinding@HardwareBufferManagerBase@Ogre@@UEAAPEAVVertexBufferBinding@2@XZ 
?createVertexBufferBindingImpl@HardwareBufferManagerBase@Ogre@@MEAAPEAVVertexBufferBinding@2@XZ 
?createVertexDeclaration@HardwareBufferManager@Ogre@@UEAAPEAVVertexDeclaration@2@XZ 
?createVertexDeclaration@HardwareBufferManagerBase@Ogre@@UEAAPEAVVertexDeclaration@2@XZ 
?createVertexDeclarationImpl@HardwareBufferManagerBase@Ogre@@MEAAPEAVVertexDeclaration@2@XZ 
?createVertexMorphKeyFrame@VertexAnimationTrack@Ogre@@UEAAPEAVVertexMorphKeyFrame@2@M@Z 
?createVertexPoseKeyFrame@VertexAnimationTrack@Ogre@@UEAAPEAVVertexPoseKeyFrame@2@M@Z 
?createVertexSemantics@InstanceBatchHW_VTF@Ogre@@MEAAXPEAVVertexData@2@0AEBV?$vector@EV?$STLAllocator@EV?$CategorisedAllocPolicy@$0A@@Ogre@@@Ogre@@@std@@AEBV?$vector@MV?$STLAllocator@MV?$CategorisedAllocPolicy@$0A@@Ogre@@@Ogre@@@5@@Z 
?createVertexSemantics@InstanceBatchVTF@Ogre@@EEAAXPEAVVertexData@2@0AEBV?$vector@EV?$STLAllocator@EV?$CategorisedAllocPolicy@$0A@@Ogre@@@Ogre@@@std@@AEBV?$vector@MV?$STLAllocator@MV?$CategorisedAllocPolicy@$0A@@Ogre@@@Ogre@@@5@@Z 
?createVertexTexture@BaseInstanceBatchVTF@Ogre@@IEAAXPEBVSubMesh@2@@Z 
?createVertexTrack@Animation@Ogre@@QEAAPEAVVertexAnimationTrack@2@GPEAVVertexData@2@W4VertexAnimationType@2@@Z 
?createVertexTrack@Animation@Ogre@@QEAAPEAVVertexAnimationTrack@2@GW4VertexAnimationType@2@@Z 
?createVisualParticles@ParticleSystem@Ogre@@IEAAX_K0@Z 
?crossProduct@ArrayVector3@Ogre@@QEBA?AV12@AEBV12@@Z 
?crossProduct@Vector2@Ogre@@QEBAMAEBV12@@Z 
?crossProduct@Vector3@Ogre@@QEBA?AV12@AEBV12@@Z 
?cullFrustum@MovableObject@Ogre@@SAX_KUObjectData@2@PEBVFrustum@2@IAEAV?$FastArray@PEAVMovableObject@Ogre@@@2@PEBVCamera@2@@Z 
?cullFrustum@SceneManager@Ogre@@IEAAXAEBUCullFrustumRequest@2@_K@Z 
?cullLights@MovableObject@Ogre@@SAX_KUObjectData@2@AEAULightListInfo@2@AEBV?$vector@PEAVFrustum@Ogre@@V?$STLAllocator@PEAVFrustum@Ogre@@V?$CategorisedAllocPolicy@$0A@@2@@2@@std@@3@Z 
?data@UTFString@Ogre@@QEBAPEBGXZ 
?deallocBytes@NedPoolingImpl@Ogre@@SAXPEAX@Z 
?deallocBytesAligned@NedPoolingImpl@Ogre@@SAX_KPEAX@Z 
?deallocate@AlignedMemory@Ogre@@SAXPEAX@Z 
?deallocateBytes@NedPoolingPolicy@Ogre@@SAXPEAX@Z 
?declareResource@ResourceGroupManager@Ogre@@QEAAXAEBV?$basic_string@DU?$char_traits@D@std@@V?$allocator@D@2@@std@@00AEBV?$map@V?$basic_string@DU?$char_traits@D@std@@V?$allocator@D@2@@std@@V12@U?$less@V?$basic_string@DU?$char_traits@D@std@@V?$allocator@D@2@@std@@@2@V?$STLAllocator@U?$pair@$$CBV?$basic_string@DU?$char_traits@D@std@@V?$allocator@D@2@@std@@V12@@std@@V?$CategorisedAllocPolicy@$0A@@Ogre@@@Ogre@@@4@@Z 
?declareResource@ResourceGroupManager@Ogre@@QEAAXAEBV?$basic_string@DU?$char_traits@D@std@@V?$allocator@D@2@@std@@00PEAVManualResourceLoader@2@AEBV?$map@V?$basic_string@DU?$char_traits@D@std@@V?$allocator@D@2@@std@@V12@U?$less@V?$basic_string@DU?$char_traits@D@std@@V?$allocator@D@2@@std@@@2@V?$STLAllocator@U?$pair@$$CBV?$basic_string@DU?$char_traits@D@std@@V?$allocator@D@2@@std@@V12@@std@@V?$CategorisedAllocPolicy@$0A@@Ogre@@@Ogre@@@4@@Z 
?decode@DDSCodec@Ogre@@UEBA?AU?$pair@V?$SharedPtr@VMemoryDataStream@Ogre@@@Ogre@@V?$SharedPtr@VCodecData@Codec@Ogre@@@2@@std@@AEAV?$SharedPtr@VDataStream@Ogre@@@2@@Z 
?decode@FreeImageCodec@Ogre@@UEBA?AU?$pair@V?$SharedPtr@VMemoryDataStream@Ogre@@@Ogre@@V?$SharedPtr@VCodecData@Codec@Ogre@@@2@@std@@AEAV?$SharedPtr@VDataStream@Ogre@@@2@@Z 
?decodeTexSource@TextureDefinitionBase@Ogre@@KAXIAEA_KAEAW4TextureSource@12@@Z 
?decomposition@Matrix4@Ogre@@QEBAXAEAVVector3@2@0AEAVQuaternion@2@@Z 
?defaultOrganisationMode@RenderPriorityGroup@Ogre@@QEAAXXZ 
?defaultOrganisationMode@RenderQueueGroup@Ogre@@QEAAXXZ 
?define@ConvexBody@Ogre@@QEAAXAEBVAxisAlignedBox@2@@Z 
?define@ConvexBody@Ogre@@QEAAXAEBVFrustum@2@@Z 
?define@ConvexBody@Ogre@@QEAAXQEBVVector3@2@@Z 
?define@PatchMesh@Ogre@@QEAAXPEAXPEAVVertexDeclaration@2@_K222W4VisibleSide@PatchSurface@2@W4Usage@HardwareBuffer@2@4_N5@Z 
?defineSurface@PatchSurface@Ogre@@QEAAXPEAXPEAVVertexDeclaration@2@_K2W4PatchSurfaceType@12@22W4VisibleSide@12@@Z 
?defragmentBatchDoCull@InstanceBatch@Ogre@@IEAAXAEAV?$vector@PEAVInstancedEntity@Ogre@@V?$STLAllocator@PEAVInstancedEntity@Ogre@@V?$CategorisedAllocPolicy@$0A@@2@@2@@std@@AEAV?$vector@VVector4@Ogre@@V?$STLAllocator@VVector4@Ogre@@V?$CategorisedAllocPolicy@$0A@@2@@2@@4@@Z 
?defragmentBatchNoCull@InstanceBatch@Ogre@@IEAAXAEAV?$vector@PEAVInstancedEntity@Ogre@@V?$STLAllocator@PEAVInstancedEntity@Ogre@@V?$CategorisedAllocPolicy@$0A@@2@@2@@std@@AEAV?$vector@VVector4@Ogre@@V?$STLAllocator@VVector4@Ogre@@V?$CategorisedAllocPolicy@$0A@@2@@2@@4@@Z 
?defragmentBatches@InstanceManager@Ogre@@AEAAX_NAEAV?$vector@PEAVInstancedEntity@Ogre@@V?$STLAllocator@PEAVInstancedEntity@Ogre@@V?$CategorisedAllocPolicy@$0A@@2@@2@@std@@AEAV?$vector@VVector4@Ogre@@V?$STLAllocator@VVector4@Ogre@@V?$CategorisedAllocPolicy@$0A@@2@@2@@4@AEAV?$vector@PEAVInstanceBatch@Ogre@@V?$STLAllocator@PEAVInstanceBatch@Ogre@@V?$CategorisedAllocPolicy@$0A@@2@@2@@4@@Z 
?defragmentBatches@InstanceManager@Ogre@@QEAAX_N@Z 
?deleteAllInstancedEntities@InstanceBatch@Ogre@@MEAAXXZ 
?deleteFrameTextureName@TextureUnitState@Ogre@@QEAAX_K@Z 
?deleteGroup@ResourceGroupManager@Ogre@@IEAAXPEAUResourceGroup@12@@Z 
?deleteMatchingResources@ResourceGroupManager@Ogre@@QEAAXAEBV?$basic_string@DU?$char_traits@D@std@@V?$allocator@D@2@@std@@00@Z 
?deletePolygon@ConvexBody@Ogre@@IEAAX_K@Z 
?deleteResource@ResourceGroupManager@Ogre@@QEAAXAEBV?$basic_string@DU?$char_traits@D@std@@V?$allocator@D@2@@std@@00@Z 
?deleteUnusedInstancedEntities@InstanceBatch@Ogre@@MEAAXXZ 
?deleteVertex@ConvexBody@Ogre@@IEAAX_K0@Z 
?deleteVertex@Polygon@Ogre@@QEAAX_K@Z 
?deriveRootBone@Skeleton@Ogre@@IEBAXXZ 
?deriveShadowCasterPass@SceneManager@Ogre@@IEAAPEBVPass@2@PEBV32@@Z 
?deriveVariability@GpuProgramParameters@Ogre@@IEAAGW4AutoConstantType@12@@Z 
?destroy@?$SharedPtr@VHardwareCounterBuffer@Ogre@@@Ogre@@IEAAXXZ 
?destroy@?$SharedPtr@VHardwareIndexBuffer@Ogre@@@Ogre@@IEAAXXZ 
?destroy@?$SharedPtr@VHardwarePixelBuffer@Ogre@@@Ogre@@IEAAXXZ 
?destroy@?$SharedPtr@VHardwareUniformBuffer@Ogre@@@Ogre@@IEAAXXZ 
?destroy@?$SharedPtr@VHardwareVertexBuffer@Ogre@@@Ogre@@IEAAXXZ 
?destroy@ArrayMemoryManager@Ogre@@QEAAXXZ 
?destroy@DeflateStream@Ogre@@IEAAXXZ 
?destroy@StaticGeometry@Ogre@@UEAAXXZ 
?destroyAdvancedTexture@ExternalTextureSourceManager@Ogre@@QEAAXAEBV?$basic_string@DU?$char_traits@D@std@@V?$allocator@D@2@@std@@0@Z 
?destroyAffector@ParticleAffectorFactory@Ogre@@UEAAXPEAVParticleAffector@2@@Z 
?destroyAllAnimationStates@SceneManager@Ogre@@UEAAXXZ 
?destroyAllAnimations@SceneManager@Ogre@@UEAAXXZ 
?destroyAllBillboardChains@SceneManager@Ogre@@UEAAXXZ 
?destroyAllBillboardSets@SceneManager@Ogre@@UEAAXXZ 
?destroyAllBindings@HardwareBufferManagerBase@Ogre@@MEAAXXZ 
?destroyAllCameras@SceneManager@Ogre@@UEAAXXZ 
?destroyAllDeclarations@HardwareBufferManagerBase@Ogre@@MEAAXXZ 
?destroyAllEntities@SceneManager@Ogre@@UEAAXXZ 
?destroyAllInstanceManagers@SceneManager@Ogre@@UEAAXXZ 
?destroyAllLights@SceneManager@Ogre@@UEAAXXZ 
?destroyAllManualObjects@SceneManager@Ogre@@UEAAXXZ 
?destroyAllMovableObjects@SceneManager@Ogre@@UEAAXXZ 
?destroyAllMovableObjectsByType@SceneManager@Ogre@@UEAAXAEBV?$basic_string@DU?$char_traits@D@std@@V?$allocator@D@2@@std@@@Z 
?destroyAllNodeTracks@Animation@Ogre@@QEAAXXZ 
?destroyAllNodes@CompositorWorkspace@Ogre@@IEAAXXZ 
?destroyAllNumericTracks@Animation@Ogre@@QEAAXXZ 
?destroyAllOldNodeTracks@Animation@Ogre@@QEAAXXZ 
?destroyAllParticleSystems@SceneManager@Ogre@@UEAAXXZ 
?destroyAllRenderQueueInvocationSequences@Root@Ogre@@QEAAXXZ 
?destroyAllResourcePools@ResourceManager@Ogre@@QEAAXXZ 
?destroyAllRibbonTrails@SceneManager@Ogre@@UEAAXXZ 
?destroyAllStaticGeometry@SceneManager@Ogre@@UEAAXXZ 
?destroyAllTracks@Animation@Ogre@@QEAAXXZ 
?destroyAllVertexTracks@Animation@Ogre@@QEAAXXZ 
?destroyAnimation@SceneManager@Ogre@@UEAAXAEBV?$basic_string@DU?$char_traits@D@std@@V?$allocator@D@2@@std@@@Z 
?destroyAnimationState@SceneManager@Ogre@@UEAAXAEBV?$basic_string@DU?$char_traits@D@std@@V?$allocator@D@2@@std@@@Z 
?destroyBillboardChain@SceneManager@Ogre@@UEAAXPEAVBillboardChain@2@@Z 
?destroyBillboardSet@SceneManager@Ogre@@UEAAXPEAVBillboardSet@2@@Z 
?destroyBlendMask@AnimationState@Ogre@@QEAAXXZ 
?destroyCamera@SceneManager@Ogre@@UEAAXPEAVCamera@2@@Z 
?destroyController@ControllerManager@Ogre@@QEAAXPEAV?$Controller@M@2@@Z 
?destroyEmitter@ParticleEmitterFactory@Ogre@@UEAAXPEAVParticleEmitter@2@@Z 
?destroyEntity@SceneManager@Ogre@@UEAAXPEAVEntity@2@@Z 
?destroyHardwareOcclusionQuery@RenderSystem@Ogre@@UEAAXPEAVHardwareOcclusionQuery@2@@Z 
?destroyInstance@BillboardChainFactory@Ogre@@UEAAXPEAVMovableObject@2@@Z 
?destroyInstance@BillboardParticleRendererFactory@Ogre@@UEAAXPEAVParticleSystemRenderer@2@@Z 
?destroyInstance@BillboardSetFactory@Ogre@@UEAAXPEAVMovableObject@2@@Z 
?destroyInstance@DefaultSceneManagerFactory@Ogre@@UEAAXPEAVSceneManager@2@@Z 
?destroyInstance@EntityFactory@Ogre@@UEAAXPEAVMovableObject@2@@Z 
?destroyInstance@FileSystemArchiveFactory@Ogre@@UEAAXPEAVArchive@2@@Z 
?destroyInstance@LightFactory@Ogre@@UEAAXPEAVMovableObject@2@@Z 
?destroyInstance@ManualObjectFactory@Ogre@@UEAAXPEAVMovableObject@2@@Z 
?destroyInstance@ParticleSystemFactory@Ogre@@UEAAXPEAVMovableObject@2@@Z 
?destroyInstance@RibbonTrailFactory@Ogre@@UEAAXPEAVMovableObject@2@@Z 
?destroyInstanceManager@SceneManager@Ogre@@UEAAXPEAVInstanceManager@2@@Z 
?destroyInstanceManager@SceneManager@Ogre@@UEAAXUIdString@2@@Z 
?destroyInstancedEntity@SceneManager@Ogre@@UEAAXPEAVInstancedEntity@2@@Z 
?destroyLight@SceneManager@Ogre@@UEAAXPEAVLight@2@@Z 
?destroyLog@LogManager@Ogre@@QEAAXAEBV?$basic_string@DU?$char_traits@D@std@@V?$allocator@D@2@@std@@@Z 
?destroyLog@LogManager@Ogre@@QEAAXPEAVLog@2@@Z 
?destroyManualObject@SceneManager@Ogre@@UEAAXPEAVManualObject@2@@Z 
?destroyMovableObject@SceneManager@Ogre@@UEAAXPEAVMovableObject@2@@Z 
?destroyMovableObject@SceneManager@Ogre@@UEAAXPEAVMovableObject@2@AEBV?$basic_string@DU?$char_traits@D@std@@V?$allocator@D@2@@std@@@Z 
?destroyNode@BoneArrayMemoryManager@Ogre@@QEAAXAEAUBoneTransform@2@@Z 
?destroyNode@NodeArrayMemoryManager@Ogre@@QEAAXAEAUTransform@2@@Z 
?destroyNode@ObjectDataArrayMemoryManager@Ogre@@QEAAXAEAUObjectData@2@@Z 
?destroyNumericTrack@Animation@Ogre@@QEAAXG@Z 
?destroyOldNodeTrack@Animation@Ogre@@QEAAXG@Z 
?destroyParticleSystem@SceneManager@Ogre@@UEAAXPEAVParticleSystem@2@@Z 
?destroyQuery@SceneManager@Ogre@@UEAAXPEAVSceneQuery@2@@Z 
?destroyRenderQueueInvocationSequence@Root@Ogre@@QEAAXAEBV?$basic_string@DU?$char_traits@D@std@@V?$allocator@D@2@@std@@@Z 
?destroyRenderTarget@RenderSystem@Ogre@@UEAAXAEBV?$basic_string@DU?$char_traits@D@std@@V?$allocator@D@2@@std@@@Z 
?destroyRenderTarget@Root@Ogre@@QEAAXAEBV?$basic_string@DU?$char_traits@D@std@@V?$allocator@D@2@@std@@@Z 
?destroyRenderTarget@Root@Ogre@@QEAAXPEAVRenderTarget@2@@Z 
?destroyRenderTexture@RenderSystem@Ogre@@UEAAXAEBV?$basic_string@DU?$char_traits@D@std@@V?$allocator@D@2@@std@@@Z 
?destroyRenderWindow@RenderSystem@Ogre@@UEAAXAEBV?$basic_string@DU?$char_traits@D@std@@V?$allocator@D@2@@std@@@Z 
?destroyResourceGroup@ResourceGroupManager@Ogre@@QEAAXAEBV?$basic_string@DU?$char_traits@D@std@@V?$allocator@D@2@@std@@@Z 
?destroyResourcePool@ResourceManager@Ogre@@QEAAXAEBV?$basic_string@DU?$char_traits@D@std@@V?$allocator@D@2@@std@@@Z 
?destroyResourcePool@ResourceManager@Ogre@@QEAAXPEAVResourcePool@12@@Z 
?destroyRibbonTrail@SceneManager@Ogre@@UEAAXPEAVRibbonTrail@2@@Z 
?destroySceneManager@Root@Ogre@@QEAAXPEAVSceneManager@2@@Z 
?destroySceneManager@SceneManagerEnumerator@Ogre@@QEAAXPEAVSceneManager@2@@Z 
?destroySceneNode@SceneManager@Ogre@@UEAAXPEAVSceneNode@2@@Z 
?destroySkeletonInstance@InstancedEntity@Ogre@@IEAAXXZ 
?destroySkeletonInstance@SceneManager@Ogre@@QEAAXPEAVSkeletonInstance@2@@Z 
?destroySlot@ArrayMemoryManager@Ogre@@IEAAXPEBDE@Z 
?destroyStaticGeometry@SceneManager@Ogre@@UEAAXAEBV?$basic_string@DU?$char_traits@D@std@@V?$allocator@D@2@@std@@@Z 
?destroyStaticGeometry@SceneManager@Ogre@@UEAAXPEAVStaticGeometry@2@@Z 
?destroySubMesh@Mesh@Ogre@@QEAAXAEBV?$basic_string@DU?$char_traits@D@std@@V?$allocator@D@2@@std@@@Z 
?destroySubMesh@Mesh@Ogre@@QEAAXG@Z 
?destroySystemImpl@ParticleSystemManager@Ogre@@IEAAXPEAVParticleSystem@2@@Z 
?destroyTextures@TextureDefinitionBase@Ogre@@SAXAEAV?$vector@UCompositorChannel@Ogre@@V?$STLAllocator@UCompositorChannel@Ogre@@V?$CategorisedAllocPolicy@$0A@@2@@2@@std@@PEAVRenderSystem@2@@Z 
?destroyVertexBufferBinding@HardwareBufferManager@Ogre@@UEAAXPEAVVertexBufferBinding@2@@Z 
?destroyVertexBufferBinding@HardwareBufferManagerBase@Ogre@@UEAAXPEAVVertexBufferBinding@2@@Z 
?destroyVertexBufferBindingImpl@HardwareBufferManagerBase@Ogre@@MEAAXPEAVVertexBufferBinding@2@@Z 
?destroyVertexDeclaration@HardwareBufferManager@Ogre@@UEAAXPEAVVertexDeclaration@2@@Z 
?destroyVertexDeclaration@HardwareBufferManagerBase@Ogre@@UEAAXPEAVVertexDeclaration@2@@Z 
?destroyVertexDeclarationImpl@HardwareBufferManagerBase@Ogre@@MEAAXPEAVVertexDeclaration@2@@Z 
?destroyVertexTrack@Animation@Ogre@@QEAAXG@Z 
?destroyVisualParticles@ParticleSystem@Ogre@@IEAAX_K0@Z 
?detachAllObjects@SceneNode@Ogre@@UEAAXXZ 
?detachAllObjectsFromBone@Entity@Ogre@@QEAAXXZ 
?detachAllObjectsImpl@Entity@Ogre@@IEAAXXZ 
?detachDepthBuffer@RenderTarget@Ogre@@UEAAXXZ 
?detachFromAllRenderTargets@DepthBuffer@Ogre@@IEAAXXZ 
?detachFromBone@MovableObject@Ogre@@QEAAXXZ 
?detachFromParent@MovableObject@Ogre@@QEAAXXZ 
?detachObject@SceneNode@Ogre@@QEAAXPEAVMovableObject@2@@Z 
?detachObjectFromBone@Entity@Ogre@@QEAAXPEAVMovableObject@2@@Z 
?detachRenderTarget@RenderSystem@Ogre@@UEAAPEAVRenderTarget@2@AEBV?$basic_string@DU?$char_traits@D@std@@V?$allocator@D@2@@std@@@Z 
?detachRenderTarget@Root@Ogre@@QEAAPEAVRenderTarget@2@AEBV?$basic_string@DU?$char_traits@D@std@@V?$allocator@D@2@@std@@@Z 
?detachRenderTarget@Root@Ogre@@QEAAPEAVRenderTarget@2@PEAV32@@Z 
?determinant@Matrix4@Ogre@@QEBAMXZ 
?determineAccess@FileStreamDataStream@Ogre@@IEAAXXZ 
?determineEndianness@Serializer@Ogre@@MEAAXAEAV?$SharedPtr@VDataStream@Ogre@@@2@@Z 
?determineEndianness@Serializer@Ogre@@MEAAXW4Endian@12@@Z 
?determineEndianness@StreamSerialiser@Ogre@@MEAAXXZ 
?determineGeometry@StaticGeometry@Ogre@@IEAAPEAV?$vector@USubMeshLodGeometryLink@StaticGeometry@Ogre@@V?$STLAllocator@USubMeshLodGeometryLink@StaticGeometry@Ogre@@V?$CategorisedAllocPolicy@$0A@@3@@3@@std@@PEAVSubMesh@2@@Z 
?directionEquals@Vector3@Ogre@@QEBA_NAEBV12@AEBVRadian@2@@Z 
?disableBone@OldSkeletonInstance@Ogre@@QEAAXV?$basic_string@DU?$char_traits@D@std@@V?$allocator@D@2@@std@@_N@Z 
?disableCustomNearClipPlane@Frustum@Ogre@@UEAAXXZ 
?disableProfile@Profiler@Ogre@@QEAAXAEBV?$basic_string@DU?$char_traits@D@std@@V?$allocator@D@2@@std@@@Z 
?disableReflection@Frustum@Ogre@@UEAAXXZ 
?disconnectHandler@RequestHandlerHolder@DefaultWorkQueueBase@Ogre@@QEAAXXZ 
?disconnectOutput@CompositorNode@Ogre@@IEAAXXZ 
?display@ConfigDialog@Ogre@@QEAA_NXZ 
?display@ErrorDialog@Ogre@@QEAAXAEBV?$basic_string@DU?$char_traits@D@std@@V?$allocator@D@2@@std@@V34@@Z 
?displayResults@ProfileSessionListener@Ogre@@UEAAXAEBVProfileInstance@2@K@Z 
?displayResults@Profiler@Ogre@@IEAAXXZ 
?distance@Aabb@Ogre@@QEBAMAEBVVector3@2@@Z 
?distance@ArrayAabb@Ogre@@QEBA?AT__m128@@AEBVArrayVector3@2@@Z 
?distance@ArrayVector3@Ogre@@QEBA?AT__m128@@AEBV12@@Z 
?distance@AxisAlignedBox@Ogre@@QEBAMAEBVVector3@2@@Z 
?distance@Vector2@Ogre@@QEBAMAEBV12@@Z 
?distance@Vector3@Ogre@@QEBAMAEBV12@@Z 
?distributeControlPoints@PatchSurface@Ogre@@IEAAXPEAX@Z 
?doGet@CmdAdjacency@GpuProgram@Ogre@@UEBA?AV?$basic_string@DU?$char_traits@D@std@@V?$allocator@D@2@@std@@PEBX@Z 
?doGet@CmdAngle@EmitterCommands@Ogre@@UEBA?AV?$basic_string@DU?$char_traits@D@std@@V?$allocator@D@2@@std@@PEBX@Z 
?doGet@CmdColour@EmitterCommands@Ogre@@UEBA?AV?$basic_string@DU?$char_traits@D@std@@V?$allocator@D@2@@std@@PEBX@Z 
?doGet@CmdColourRangeEnd@EmitterCommands@Ogre@@UEBA?AV?$basic_string@DU?$char_traits@D@std@@V?$allocator@D@2@@std@@PEBX@Z 
?doGet@CmdColourRangeStart@EmitterCommands@Ogre@@UEBA?AV?$basic_string@DU?$char_traits@D@std@@V?$allocator@D@2@@std@@PEBX@Z 
?doGet@CmdComputeGroupDims@GpuProgram@Ogre@@UEBA?AV?$basic_string@DU?$char_traits@D@std@@V?$allocator@D@2@@std@@PEBX@Z 
?doGet@CmdDirPositionRef@EmitterCommands@Ogre@@UEBA?AV?$basic_string@DU?$char_traits@D@std@@V?$allocator@D@2@@std@@PEBX@Z 
?doGet@CmdDirection@EmitterCommands@Ogre@@UEBA?AV?$basic_string@DU?$char_traits@D@std@@V?$allocator@D@2@@std@@PEBX@Z 
?doGet@CmdDuration@EmitterCommands@Ogre@@UEBA?AV?$basic_string@DU?$char_traits@D@std@@V?$allocator@D@2@@std@@PEBX@Z 
?doGet@CmdEmissionRate@EmitterCommands@Ogre@@UEBA?AV?$basic_string@DU?$char_traits@D@std@@V?$allocator@D@2@@std@@PEBX@Z 
?doGet@CmdEmittedEmitter@EmitterCommands@Ogre@@UEBA?AV?$basic_string@DU?$char_traits@D@std@@V?$allocator@D@2@@std@@PEBX@Z 
?doGet@CmdManualNamedConstsFile@GpuProgram@Ogre@@UEBA?AV?$basic_string@DU?$char_traits@D@std@@V?$allocator@D@2@@std@@PEBX@Z 
?doGet@CmdMaxDuration@EmitterCommands@Ogre@@UEBA?AV?$basic_string@DU?$char_traits@D@std@@V?$allocator@D@2@@std@@PEBX@Z 
?doGet@CmdMaxRepeatDelay@EmitterCommands@Ogre@@UEBA?AV?$basic_string@DU?$char_traits@D@std@@V?$allocator@D@2@@std@@PEBX@Z 
?doGet@CmdMaxTTL@EmitterCommands@Ogre@@UEBA?AV?$basic_string@DU?$char_traits@D@std@@V?$allocator@D@2@@std@@PEBX@Z 
?doGet@CmdMaxVelocity@EmitterCommands@Ogre@@UEBA?AV?$basic_string@DU?$char_traits@D@std@@V?$allocator@D@2@@std@@PEBX@Z 
?doGet@CmdMinDuration@EmitterCommands@Ogre@@UEBA?AV?$basic_string@DU?$char_traits@D@std@@V?$allocator@D@2@@std@@PEBX@Z 
?doGet@CmdMinRepeatDelay@EmitterCommands@Ogre@@UEBA?AV?$basic_string@DU?$char_traits@D@std@@V?$allocator@D@2@@std@@PEBX@Z 
?doGet@CmdMinTTL@EmitterCommands@Ogre@@UEBA?AV?$basic_string@DU?$char_traits@D@std@@V?$allocator@D@2@@std@@PEBX@Z 
?doGet@CmdMinVelocity@EmitterCommands@Ogre@@UEBA?AV?$basic_string@DU?$char_traits@D@std@@V?$allocator@D@2@@std@@PEBX@Z 
?doGet@CmdMorph@GpuProgram@Ogre@@UEBA?AV?$basic_string@DU?$char_traits@D@std@@V?$allocator@D@2@@std@@PEBX@Z 
?doGet@CmdName@EmitterCommands@Ogre@@UEBA?AV?$basic_string@DU?$char_traits@D@std@@V?$allocator@D@2@@std@@PEBX@Z 
?doGet@CmdPose@GpuProgram@Ogre@@UEBA?AV?$basic_string@DU?$char_traits@D@std@@V?$allocator@D@2@@std@@PEBX@Z 
?doGet@CmdPosition@EmitterCommands@Ogre@@UEBA?AV?$basic_string@DU?$char_traits@D@std@@V?$allocator@D@2@@std@@PEBX@Z 
?doGet@CmdRepeatDelay@EmitterCommands@Ogre@@UEBA?AV?$basic_string@DU?$char_traits@D@std@@V?$allocator@D@2@@std@@PEBX@Z 
?doGet@CmdSkeletal@GpuProgram@Ogre@@UEBA?AV?$basic_string@DU?$char_traits@D@std@@V?$allocator@D@2@@std@@PEBX@Z 
?doGet@CmdSyntax@GpuProgram@Ogre@@UEBA?AV?$basic_string@DU?$char_traits@D@std@@V?$allocator@D@2@@std@@PEBX@Z 
?doGet@CmdTTL@EmitterCommands@Ogre@@UEBA?AV?$basic_string@DU?$char_traits@D@std@@V?$allocator@D@2@@std@@PEBX@Z 
?doGet@CmdType@GpuProgram@Ogre@@UEBA?AV?$basic_string@DU?$char_traits@D@std@@V?$allocator@D@2@@std@@PEBX@Z 
?doGet@CmdUp@EmitterCommands@Ogre@@UEBA?AV?$basic_string@DU?$char_traits@D@std@@V?$allocator@D@2@@std@@PEBX@Z 
?doGet@CmdVTF@GpuProgram@Ogre@@UEBA?AV?$basic_string@DU?$char_traits@D@std@@V?$allocator@D@2@@std@@PEBX@Z 
?doGet@CmdVelocity@EmitterCommands@Ogre@@UEBA?AV?$basic_string@DU?$char_traits@D@std@@V?$allocator@D@2@@std@@PEBX@Z 
?doSet@CmdAdjacency@GpuProgram@Ogre@@UEAAXPEAXAEBV?$basic_string@DU?$char_traits@D@std@@V?$allocator@D@2@@std@@@Z 
?doSet@CmdAngle@EmitterCommands@Ogre@@UEAAXPEAXAEBV?$basic_string@DU?$char_traits@D@std@@V?$allocator@D@2@@std@@@Z 
?doSet@CmdColour@EmitterCommands@Ogre@@UEAAXPEAXAEBV?$basic_string@DU?$char_traits@D@std@@V?$allocator@D@2@@std@@@Z 
?doSet@CmdColourRangeEnd@EmitterCommands@Ogre@@UEAAXPEAXAEBV?$basic_string@DU?$char_traits@D@std@@V?$allocator@D@2@@std@@@Z 
?doSet@CmdColourRangeStart@EmitterCommands@Ogre@@UEAAXPEAXAEBV?$basic_string@DU?$char_traits@D@std@@V?$allocator@D@2@@std@@@Z 
?doSet@CmdComputeGroupDims@GpuProgram@Ogre@@UEAAXPEAXAEBV?$basic_string@DU?$char_traits@D@std@@V?$allocator@D@2@@std@@@Z 
?doSet@CmdDirPositionRef@EmitterCommands@Ogre@@UEAAXPEAXAEBV?$basic_string@DU?$char_traits@D@std@@V?$allocator@D@2@@std@@@Z 
?doSet@CmdDirection@EmitterCommands@Ogre@@UEAAXPEAXAEBV?$basic_string@DU?$char_traits@D@std@@V?$allocator@D@2@@std@@@Z 
?doSet@CmdDuration@EmitterCommands@Ogre@@UEAAXPEAXAEBV?$basic_string@DU?$char_traits@D@std@@V?$allocator@D@2@@std@@@Z 
?doSet@CmdEmissionRate@EmitterCommands@Ogre@@UEAAXPEAXAEBV?$basic_string@DU?$char_traits@D@std@@V?$allocator@D@2@@std@@@Z 
?doSet@CmdEmittedEmitter@EmitterCommands@Ogre@@UEAAXPEAXAEBV?$basic_string@DU?$char_traits@D@std@@V?$allocator@D@2@@std@@@Z 
?doSet@CmdManualNamedConstsFile@GpuProgram@Ogre@@UEAAXPEAXAEBV?$basic_string@DU?$char_traits@D@std@@V?$allocator@D@2@@std@@@Z 
?doSet@CmdMaxDuration@EmitterCommands@Ogre@@UEAAXPEAXAEBV?$basic_string@DU?$char_traits@D@std@@V?$allocator@D@2@@std@@@Z 
?doSet@CmdMaxRepeatDelay@EmitterCommands@Ogre@@UEAAXPEAXAEBV?$basic_string@DU?$char_traits@D@std@@V?$allocator@D@2@@std@@@Z 
?doSet@CmdMaxTTL@EmitterCommands@Ogre@@UEAAXPEAXAEBV?$basic_string@DU?$char_traits@D@std@@V?$allocator@D@2@@std@@@Z 
?doSet@CmdMaxVelocity@EmitterCommands@Ogre@@UEAAXPEAXAEBV?$basic_string@DU?$char_traits@D@std@@V?$allocator@D@2@@std@@@Z 
?doSet@CmdMinDuration@EmitterCommands@Ogre@@UEAAXPEAXAEBV?$basic_string@DU?$char_traits@D@std@@V?$allocator@D@2@@std@@@Z 
?doSet@CmdMinRepeatDelay@EmitterCommands@Ogre@@UEAAXPEAXAEBV?$basic_string@DU?$char_traits@D@std@@V?$allocator@D@2@@std@@@Z 
?doSet@CmdMinTTL@EmitterCommands@Ogre@@UEAAXPEAXAEBV?$basic_string@DU?$char_traits@D@std@@V?$allocator@D@2@@std@@@Z 
?doSet@CmdMinVelocity@EmitterCommands@Ogre@@UEAAXPEAXAEBV?$basic_string@DU?$char_traits@D@std@@V?$allocator@D@2@@std@@@Z 
?doSet@CmdMorph@GpuProgram@Ogre@@UEAAXPEAXAEBV?$basic_string@DU?$char_traits@D@std@@V?$allocator@D@2@@std@@@Z 
?doSet@CmdName@EmitterCommands@Ogre@@UEAAXPEAXAEBV?$basic_string@DU?$char_traits@D@std@@V?$allocator@D@2@@std@@@Z 
?doSet@CmdPose@GpuProgram@Ogre@@UEAAXPEAXAEBV?$basic_string@DU?$char_traits@D@std@@V?$allocator@D@2@@std@@@Z 
?doSet@CmdPosition@EmitterCommands@Ogre@@UEAAXPEAXAEBV?$basic_string@DU?$char_traits@D@std@@V?$allocator@D@2@@std@@@Z 
?doSet@CmdRepeatDelay@EmitterCommands@Ogre@@UEAAXPEAXAEBV?$basic_string@DU?$char_traits@D@std@@V?$allocator@D@2@@std@@@Z 
?doSet@CmdSkeletal@GpuProgram@Ogre@@UEAAXPEAXAEBV?$basic_string@DU?$char_traits@D@std@@V?$allocator@D@2@@std@@@Z 
?doSet@CmdSyntax@GpuProgram@Ogre@@UEAAXPEAXAEBV?$basic_string@DU?$char_traits@D@std@@V?$allocator@D@2@@std@@@Z 
?doSet@CmdTTL@EmitterCommands@Ogre@@UEAAXPEAXAEBV?$basic_string@DU?$char_traits@D@std@@V?$allocator@D@2@@std@@@Z 
?doSet@CmdType@GpuProgram@Ogre@@UEAAXPEAXAEBV?$basic_string@DU?$char_traits@D@std@@V?$allocator@D@2@@std@@@Z 
?doSet@CmdUp@EmitterCommands@Ogre@@UEAAXPEAXAEBV?$basic_string@DU?$char_traits@D@std@@V?$allocator@D@2@@std@@@Z 
?doSet@CmdVTF@GpuProgram@Ogre@@UEAAXPEAXAEBV?$basic_string@DU?$char_traits@D@std@@V?$allocator@D@2@@std@@@Z 
?doSet@CmdVelocity@EmitterCommands@Ogre@@UEAAXPEAXAEBV?$basic_string@DU?$char_traits@D@std@@V?$allocator@D@2@@std@@@Z 
?dotProduct@ArrayVector3@Ogre@@QEBA?AT__m128@@AEBV12@@Z 
?dotProduct@Vector2@Ogre@@QEBAMAEBV12@@Z 
?dotProduct@Vector3@Ogre@@QEBAMAEBV12@@Z 
?dotProduct@Vector4@Ogre@@QEBAMAEBV12@@Z 
?dropGroupContents@ResourceGroupManager@Ogre@@IEAAXPEAUResourceGroup@12@@Z 
?dump@GeometryBucket@StaticGeometry@Ogre@@QEBAXAEAV?$basic_ofstream@DU?$char_traits@D@std@@@std@@@Z 
?dump@LODBucket@StaticGeometry@Ogre@@QEBAXAEAV?$basic_ofstream@DU?$char_traits@D@std@@@std@@@Z 
?dump@MaterialBucket@StaticGeometry@Ogre@@QEBAXAEAV?$basic_ofstream@DU?$char_traits@D@std@@@std@@@Z 
?dump@Region@StaticGeometry@Ogre@@QEBAXAEAV?$basic_ofstream@DU?$char_traits@D@std@@@std@@@Z 
?dump@StaticGeometry@Ogre@@UEBAXAEBV?$basic_string@DU?$char_traits@D@std@@V?$allocator@D@2@@std@@@Z 
?dynlibError@DynLib@Ogre@@IEAA?AV?$basic_string@DU?$char_traits@D@std@@V?$allocator@D@2@@std@@XZ 
?empty@UTFString@Ogre@@QEBA_NXZ 
?enableCustomNearClipPlane@Frustum@Ogre@@UEAAXAEBVPlane@2@@Z 
?enableCustomNearClipPlane@Frustum@Ogre@@UEAAXPEBVMovablePlane@2@@Z 
?enableProfile@Profiler@Ogre@@QEAAXAEBV?$basic_string@DU?$char_traits@D@std@@V?$allocator@D@2@@std@@@Z 
?enableReflection@Frustum@Ogre@@UEAAXAEBVPlane@2@@Z 
?enableReflection@Frustum@Ogre@@UEAAXPEBVMovablePlane@2@@Z 
?encode@DDSCodec@Ogre@@UEBA?AV?$SharedPtr@VDataStream@Ogre@@@2@AEAV?$SharedPtr@VMemoryDataStream@Ogre@@@2@AEAV?$SharedPtr@VCodecData@Codec@Ogre@@@2@@Z 
?encode@FreeImageCodec@Ogre@@UEBA?AV?$SharedPtr@VDataStream@Ogre@@@2@AEAV?$SharedPtr@VMemoryDataStream@Ogre@@@2@AEAV?$SharedPtr@VCodecData@Codec@Ogre@@@2@@Z 
?encode@Image@Ogre@@QEAA?AV?$SharedPtr@VDataStream@Ogre@@@2@AEBV?$basic_string@DU?$char_traits@D@std@@V?$allocator@D@2@@std@@@Z 
?encodeBitmap@FreeImageCodec@Ogre@@AEBAPEAUFIBITMAP@@AEAV?$SharedPtr@VMemoryDataStream@Ogre@@@2@AEAV?$SharedPtr@VCodecData@Codec@Ogre@@@2@@Z 
?encodeTexSource@TextureDefinitionBase@Ogre@@KAI_KW4TextureSource@12@@Z 
?encodeToFile@DDSCodec@Ogre@@UEBAXAEAV?$SharedPtr@VMemoryDataStream@Ogre@@@2@AEBV?$basic_string@DU?$char_traits@D@std@@V?$allocator@D@2@@std@@AEAV?$SharedPtr@VCodecData@Codec@Ogre@@@2@@Z 
?encodeToFile@FreeImageCodec@Ogre@@UEBAXAEAV?$SharedPtr@VMemoryDataStream@Ogre@@@2@AEBV?$basic_string@DU?$char_traits@D@std@@V?$allocator@D@2@@std@@AEAV?$SharedPtr@VCodecData@Codec@Ogre@@@2@@Z 
?end@ManualObject@Ogre@@UEAAPEAVManualObjectSection@12@XZ 
?end@ParticleIterator@Ogre@@QEAA_NXZ 
?end@UTFString@Ogre@@QEAA?AV_fwd_iterator@12@XZ 
?end@UTFString@Ogre@@QEBA?AV_const_fwd_iterator@12@XZ 
?endBillboards@BillboardSet@Ogre@@QEAAXXZ 
?endGPUEvent@Profiler@Ogre@@QEAAXAEBV?$basic_string@DU?$char_traits@D@std@@V?$allocator@D@2@@std@@@Z 
?endProfile@Profiler@Ogre@@QEAAXAEBV?$basic_string@DU?$char_traits@D@std@@V?$allocator@D@2@@std@@I@Z 
?endRenderingQueued@Root@Ogre@@QEAA_NXZ 
?endSection@MaterialSerializer@Ogre@@QEAAXG_N@Z 
?endsWith@StringUtil@Ogre@@SA_NAEBV?$basic_string@DU?$char_traits@D@std@@V?$allocator@D@2@@std@@0_N@Z 
?ensureLoaded@TextureUnitState@Ogre@@IEBAX_K@Z 
?ensurePrepared@TextureUnitState@Ogre@@IEBAX_K@Z 
?enumeratePieceFiles@Hlms@Ogre@@IEAAXXZ 
?eof@DeflateStream@Ogre@@UEBA_NXZ 
?eof@FileHandleDataStream@Ogre@@UEBA_NXZ 
?eof@FileStreamDataStream@Ogre@@UEBA_NXZ 
?eof@MemoryDataStream@Ogre@@UEBA_NXZ 
?eof@StreamSerialiser@Ogre@@UEBA_NXZ 
?equals@Quaternion@Ogre@@QEBA_NAEBV12@AEBVRadian@2@@Z 
?erase@UTFString@Ogre@@QEAA?AV_fwd_iterator@12@V312@0@Z 
?erase@UTFString@Ogre@@QEAA?AV_fwd_iterator@12@V312@@Z 
?erase@UTFString@Ogre@@QEAAAEAV12@_K0@Z 
?eraseUserAny@UserObjectBindings@Ogre@@QEAAXAEBV?$basic_string@DU?$char_traits@D@std@@V?$allocator@D@2@@std@@@Z 
?escalateLoading@Resource@Ogre@@UEAAXXZ 
?escalateLoading@UnifiedHighLevelGpuProgram@Ogre@@UEAAXXZ 
?estimateIndexCount@ManualObject@Ogre@@UEAAX_K@Z 
?estimateVertexCount@ManualObject@Ogre@@UEAAX_K@Z 
?estimateWorldGeometry@SceneManager@Ogre@@UEAA_KAEAV?$SharedPtr@VDataStream@Ogre@@@2@AEBV?$basic_string@DU?$char_traits@D@std@@V?$allocator@D@2@@std@@@Z 
?estimateWorldGeometry@SceneManager@Ogre@@UEAA_KAEBV?$basic_string@DU?$char_traits@D@std@@V?$allocator@D@2@@std@@@Z 
?evaluateExpression@Hlms@Ogre@@IEBA_NAEAVSubStringRef@2@AEA_N@Z 
?evaluateExpressionEnd@Hlms@Ogre@@KA_KAEBVSubStringRef@2@@Z 
?evaluateExpressionRecursive@Hlms@Ogre@@IEBA_NAEAV?$vector@UExpression@Hlms@Ogre@@V?$allocator@UExpression@Hlms@Ogre@@@std@@@std@@AEA_N@Z 
?evaluateParamArgs@Hlms@Ogre@@KAXAEAVSubStringRef@2@AEAV?$vector@V?$basic_string@DU?$char_traits@D@std@@V?$allocator@D@2@@std@@V?$STLAllocator@V?$basic_string@DU?$char_traits@D@std@@V?$allocator@D@2@@std@@V?$CategorisedAllocPolicy@$0A@@Ogre@@@Ogre@@@std@@AEA_N@Z 
?eventType@CreateCompositorScriptCompilerEvent@Ogre@@2V?$basic_string@DU?$char_traits@D@std@@V?$allocator@D@2@@std@@A 
?eventType@CreateGpuProgramScriptCompilerEvent@Ogre@@2V?$basic_string@DU?$char_traits@D@std@@V?$allocator@D@2@@std@@A 
?eventType@CreateGpuSharedParametersScriptCompilerEvent@Ogre@@2V?$basic_string@DU?$char_traits@D@std@@V?$allocator@D@2@@std@@A 
?eventType@CreateHighLevelGpuProgramScriptCompilerEvent@Ogre@@2V?$basic_string@DU?$char_traits@D@std@@V?$allocator@D@2@@std@@A 
?eventType@CreateMaterialScriptCompilerEvent@Ogre@@2V?$basic_string@DU?$char_traits@D@std@@V?$allocator@D@2@@std@@A 
?eventType@CreateParticleSystemScriptCompilerEvent@Ogre@@2V?$basic_string@DU?$char_traits@D@std@@V?$allocator@D@2@@std@@A 
?eventType@PreApplyTextureAliasesScriptCompilerEvent@Ogre@@2V?$basic_string@DU?$char_traits@D@std@@V?$allocator@D@2@@std@@A 
?eventType@ProcessNameExclusionScriptCompilerEvent@Ogre@@2V?$basic_string@DU?$char_traits@D@std@@V?$allocator@D@2@@std@@A 
?eventType@ProcessResourceNameScriptCompilerEvent@Ogre@@2V?$basic_string@DU?$char_traits@D@std@@V?$allocator@D@2@@std@@A 
?execute@CompositorPassClear@Ogre@@UEAAXPEBVCamera@2@@Z 
?execute@CompositorPassQuad@Ogre@@UEAAXPEBVCamera@2@@Z 
?execute@CompositorPassScene@Ogre@@UEAAXPEBVCamera@2@@Z 
?execute@CompositorPassStencil@Ogre@@UEAAXPEBVCamera@2@@Z 
?execute@DefaultAxisAlignedBoxSceneQuery@Ogre@@QEAA_NUObjectData@2@_KPEAVSceneQueryListener@2@@Z 
?execute@DefaultAxisAlignedBoxSceneQuery@Ogre@@UEAAXPEAVSceneQueryListener@2@@Z 
?execute@DefaultIntersectionSceneQuery@Ogre@@UEAAXPEAVIntersectionSceneQueryListener@2@@Z 
?execute@DefaultPlaneBoundedVolumeListSceneQuery@Ogre@@QEAA_NUObjectData@2@_KPEAVSceneQueryListener@2@@Z 
?execute@DefaultPlaneBoundedVolumeListSceneQuery@Ogre@@UEAAXPEAVSceneQueryListener@2@@Z 
?execute@DefaultRaySceneQuery@Ogre@@QEAA_NUObjectData@2@_KPEAVRaySceneQueryListener@2@@Z 
?execute@DefaultRaySceneQuery@Ogre@@UEAAXPEAVRaySceneQueryListener@2@@Z 
?execute@DefaultSphereSceneQuery@Ogre@@QEAA_NUObjectData@2@_KPEAVSceneQueryListener@2@@Z 
?execute@DefaultSphereSceneQuery@Ogre@@UEAAXPEAVSceneQueryListener@2@@Z 
?execute@IntersectionSceneQuery@Ogre@@UEAAAEAUIntersectionSceneQueryResult@2@XZ 
?execute@RaySceneQuery@Ogre@@UEAAAEAV?$vector@URaySceneQueryResultEntry@Ogre@@V?$STLAllocator@URaySceneQueryResultEntry@Ogre@@V?$CategorisedAllocPolicy@$0A@@2@@2@@std@@XZ 
?execute@RegionSceneQuery@Ogre@@UEAAAEAUSceneQueryResult@2@XZ 
?executeUserScalableTask@SceneManager@Ogre@@QEAAXPEAVUniformScalableTask@2@_N@Z 
?exists@FileSystemArchive@Ogre@@UEAA_NAEBV?$basic_string@DU?$char_traits@D@std@@V?$allocator@D@2@@std@@@Z 
?exists@ZipArchive@Ogre@@UEAA_NAEBV?$basic_string@DU?$char_traits@D@std@@V?$allocator@D@2@@std@@@Z 
?exportMaterial@MaterialSerializer@Ogre@@QEAAXAEBV?$SharedPtr@VMaterial@Ogre@@@2@AEBV?$basic_string@DU?$char_traits@D@std@@V?$allocator@D@2@@std@@_N_N11@Z 
?exportMesh@MeshSerializer@Ogre@@QEAAXPEBVMesh@2@AEBV?$basic_string@DU?$char_traits@D@std@@V?$allocator@D@2@@std@@W4Endian@Serializer@2@@Z 
?exportMesh@MeshSerializer@Ogre@@QEAAXPEBVMesh@2@AEBV?$basic_string@DU?$char_traits@D@std@@V?$allocator@D@2@@std@@W4MeshVersion@2@W4Endian@Serializer@2@@Z 
?exportMesh@MeshSerializer@Ogre@@QEAAXPEBVMesh@2@V?$SharedPtr@VDataStream@Ogre@@@2@W4Endian@Serializer@2@@Z 
?exportMesh@MeshSerializer@Ogre@@QEAAXPEBVMesh@2@V?$SharedPtr@VDataStream@Ogre@@@2@W4MeshVersion@2@W4Endian@Serializer@2@@Z 
?exportNamedConstants@GpuNamedConstantsSerializer@Ogre@@QEAAXPEBUGpuNamedConstants@2@AEBV?$basic_string@DU?$char_traits@D@std@@V?$allocator@D@2@@std@@W4Endian@Serializer@2@@Z 
?exportNamedConstants@GpuNamedConstantsSerializer@Ogre@@QEAAXPEBUGpuNamedConstants@2@V?$SharedPtr@VDataStream@Ogre@@@2@W4Endian@Serializer@2@@Z 
?exportQueued@MaterialSerializer@Ogre@@QEAAXAEBV?$basic_string@DU?$char_traits@D@std@@V?$allocator@D@2@@std@@_N0@Z 
?exportSkeleton@SkeletonSerializer@Ogre@@QEAAXPEBVSkeleton@2@AEBV?$basic_string@DU?$char_traits@D@std@@V?$allocator@D@2@@std@@W4SkeletonVersion@2@W4Endian@Serializer@2@@Z 
?exportSkeleton@SkeletonSerializer@Ogre@@QEAAXPEBVSkeleton@2@V?$SharedPtr@VDataStream@Ogre@@@2@W4SkeletonVersion@2@W4Endian@Serializer@2@@Z 
?extend@ConvexBody@Ogre@@QEAAXAEBVVector3@2@@Z 
?extendBuffers@TangentSpaceCalc@Ogre@@IEAAXAEAV?$list@U?$pair@_K_K@std@@V?$STLAllocator@U?$pair@_K_K@std@@V?$CategorisedAllocPolicy@$0A@@Ogre@@@Ogre@@@std@@@Z 
?extract3x3Matrix@Matrix4@Ogre@@QEBAXAEAVMatrix3@2@@Z 
?extractAllMovableObjectsByType@SceneManager@Ogre@@UEAAXAEBV?$basic_string@DU?$char_traits@D@std@@V?$allocator@D@2@@std@@@Z 
?extractFrom@TempBlendedBufferInfo@Ogre@@QEAAXPEBVVertexData@2@@Z 
?extractMovableObject@SceneManager@Ogre@@UEAAXPEAVMovableObject@2@@Z 
?extractQuaternion@Matrix4@Ogre@@QEBA?AVQuaternion@2@XZ 
?extractTempBufferInfo@Entity@Ogre@@IEAAXPEAVVertexData@2@PEAVTempBlendedBufferInfo@2@@Z 
?fDeg2Rad@Math@Ogre@@2MB 
?fDeg2Rad@MathlibSSE2@Ogre@@2T__m128@@B 
?fEpsilon@MathlibSSE2@Ogre@@2T__m128@@B 
?fRad2Deg@Math@Ogre@@2MB 
?fRad2Deg@MathlibSSE2@Ogre@@2T__m128@@B 
?fSqEpsilon@MathlibSSE2@Ogre@@2T__m128@@B 
?fSquareZero@?1??perpendicular@Vector3@Ogre@@QEBA?AV23@XZ@4MB 
?fastForward@ParticleSystem@Ogre@@QEAAXMM@Z 
?fileExists@FileSystemLayer@Ogre@@SA_NAEBV?$basic_string@DU?$char_traits@D@std@@V?$allocator@D@2@@std@@@Z 
?fillVertexBufferLUT@InstanceBatchHW_VTF@Ogre@@IEAAXPEBV?$FastArray@PEAVMovableObject@Ogre@@@2@@Z 
?fillVertexBufferOffsets@InstanceBatchHW_VTF@Ogre@@IEAAXXZ 
?finalTargetResized@CompositorNode@Ogre@@UEAAXPEBVRenderTarget@2@@Z 
?finalTargetResized@CompositorShadowNode@Ogre@@UEAAXPEBVRenderTarget@2@@Z 
?finalisePoseNormals@Entity@Ogre@@IEAAXPEBVVertexData@2@PEAV32@@Z 
?find@FileSystemArchive@Ogre@@UEAA?AV?$SharedPtr@V?$vector@V?$basic_string@DU?$char_traits@D@std@@V?$allocator@D@2@@std@@V?$STLAllocator@V?$basic_string@DU?$char_traits@D@std@@V?$allocator@D@2@@std@@V?$CategorisedAllocPolicy@$0A@@Ogre@@@Ogre@@@std@@@2@AEBV?$basic_string@DU?$char_traits@D@std@@V?$allocator@D@2@@std@@_N1@Z 
?find@UTFString@Ogre@@QEBA_KAEBV12@_K@Z 
?find@UTFString@Ogre@@QEBA_KD_K@Z 
?find@UTFString@Ogre@@QEBA_KG_K@Z 
?find@UTFString@Ogre@@QEBA_KI_K@Z 
?find@UTFString@Ogre@@QEBA_KPEBD_K1@Z 
?find@UTFString@Ogre@@QEBA_KPEBG_K1@Z 
?find@UTFString@Ogre@@QEBA_KPEB_W_K1@Z 
?find@UTFString@Ogre@@QEBA_K_W_K@Z 
?find@ZipArchive@Ogre@@UEAA?AV?$SharedPtr@V?$vector@V?$basic_string@DU?$char_traits@D@std@@V?$allocator@D@2@@std@@V?$STLAllocator@V?$basic_string@DU?$char_traits@D@std@@V?$allocator@D@2@@std@@V?$CategorisedAllocPolicy@$0A@@Ogre@@@Ogre@@@std@@@2@AEBV?$basic_string@DU?$char_traits@D@std@@V?$allocator@D@2@@std@@_N1@Z 
?findAndEraseEdgePair@ConvexBody@Ogre@@IEBA_NAEBVVector3@2@AEAV?$multimap@VVector3@Ogre@@V12@U?$less@VVector3@Ogre@@@std@@V?$STLAllocator@U?$pair@$$CBVVector3@Ogre@@V12@@std@@V?$CategorisedAllocPolicy@$0A@@Ogre@@@2@@std@@AEAV32@@Z 
?findAutoConstantEntry@GpuProgramParameters@Ogre@@QEAAPEBVAutoConstantEntry@12@AEBV?$basic_string@DU?$char_traits@D@std@@V?$allocator@D@2@@std@@@Z 
?findBlendedVertexData@Entity@Ogre@@IEAAPEBVVertexData@2@PEBV32@@Z 
?findBlockEnd@Hlms@Ogre@@KAXAEAVSubStringRef@2@AEA_N@Z 
?findCamera@CompositorWorkspace@Ogre@@QEBAPEAVCamera@2@UIdString@2@@Z 
?findCamera@SceneManager@Ogre@@UEBAPEAVCamera@2@UIdString@2@@Z 
?findCameraNoThrow@SceneManager@Ogre@@UEBAPEAVCamera@2@UIdString@2@@Z 
?findCommandLineOpts@Ogre@@YAHHPEAPEADAEAV?$map@V?$basic_string@DU?$char_traits@D@std@@V?$allocator@D@2@@std@@_NU?$less@V?$basic_string@DU?$char_traits@D@std@@V?$allocator@D@2@@std@@@2@V?$STLAllocator@U?$pair@$$CBV?$basic_string@DU?$char_traits@D@std@@V?$allocator@D@2@@std@@_N@std@@V?$CategorisedAllocPolicy@$0A@@Ogre@@@Ogre@@@std@@AEAV?$map@V?$basic_string@DU?$char_traits@D@std@@V?$allocator@D@2@@std@@V12@U?$less@V?$basic_string@DU?$char_traits@D@std@@V?$allocator@D@2@@std@@@2@V?$STLAllocator@U?$pair@$$CBV?$basic_string@DU?$char_traits@D@std@@V?$allocator@D@2@@std@@V12@@std@@V?$CategorisedAllocPolicy@$0A@@Ogre@@@Ogre@@@3@@Z 
?findDoubleAutoConstantEntry@GpuProgramParameters@Ogre@@QEAAPEBVAutoConstantEntry@12@_K@Z 
?findElementBySemantic@VertexDeclaration@Ogre@@UEBAPEBVVertexElement@2@W4VertexElementSemantic@2@G@Z 
?findElementsBySource@VertexDeclaration@Ogre@@UEBA?AV?$list@VVertexElement@Ogre@@V?$STLAllocator@VVertexElement@Ogre@@V?$CategorisedAllocPolicy@$0A@@2@@2@@std@@G@Z 
?findFileInfo@FileSystemArchive@Ogre@@UEAA?AV?$SharedPtr@V?$vector@UFileInfo@Ogre@@V?$STLAllocator@UFileInfo@Ogre@@V?$CategorisedAllocPolicy@$0A@@2@@2@@std@@@2@AEBV?$basic_string@DU?$char_traits@D@std@@V?$allocator@D@2@@std@@_N1@Z 
?findFileInfo@ZipArchive@Ogre@@UEAA?AV?$SharedPtr@V?$vector@UFileInfo@Ogre@@V?$STLAllocator@UFileInfo@Ogre@@V?$CategorisedAllocPolicy@$0A@@2@@2@@std@@@2@AEBV?$basic_string@DU?$char_traits@D@std@@V?$allocator@D@2@@std@@_N1@Z 
?findFiles@FileSystemArchive@Ogre@@IEAAXAEBV?$basic_string@DU?$char_traits@D@std@@V?$allocator@D@2@@std@@_N1PEAV?$vector@V?$basic_string@DU?$char_traits@D@std@@V?$allocator@D@2@@std@@V?$STLAllocator@V?$basic_string@DU?$char_traits@D@std@@V?$allocator@D@2@@std@@V?$CategorisedAllocPolicy@$0A@@Ogre@@@Ogre@@@4@PEAV?$vector@UFileInfo@Ogre@@V?$STLAllocator@UFileInfo@Ogre@@V?$CategorisedAllocPolicy@$0A@@2@@2@@4@@Z 
?findFloatAutoConstantEntry@GpuProgramParameters@Ogre@@QEAAPEBVAutoConstantEntry@12@_K@Z 
?findFreeEmittedEmitter@ParticleSystem@Ogre@@IEAAPEAV?$list@PEAVParticleEmitter@Ogre@@V?$STLAllocator@PEAVParticleEmitter@Ogre@@V?$CategorisedAllocPolicy@$0A@@2@@2@@std@@AEBV?$basic_string@DU?$char_traits@D@std@@V?$allocator@D@2@@4@@Z 
?findGroupContainingResource@ResourceGroupManager@Ogre@@QEAAAEBV?$basic_string@DU?$char_traits@D@std@@V?$allocator@D@2@@std@@AEBV34@@Z 
?findGroupContainingResourceImpl@ResourceGroupManager@Ogre@@IEAAPEAUResourceGroup@12@AEBV?$basic_string@DU?$char_traits@D@std@@V?$allocator@D@2@@std@@@Z 
?findIntAutoConstantEntry@GpuProgramParameters@Ogre@@QEAAPEBVAutoConstantEntry@12@_K@Z 
?findLevel@PatchSurface@Ogre@@IEAA_KAEAVVector3@2@00@Z 
?findNode@CompositorWorkspace@Ogre@@QEBAPEAVCompositorNode@2@UIdString@2@_N@Z 
?findOrCreateCommonVertex@EdgeListBuilder@Ogre@@IEAA_KAEBVVector3@2@_K11@Z 
?findOrCreateShadowNode@CompositorWorkspace@Ogre@@QEAAPEAVCompositorShadowNode@2@UIdString@2@AEA_N@Z 
?findParamInVec@Hlms@Ogre@@KA_NAEBV?$vector@U?$pair@UIdString@Ogre@@V?$basic_string@DU?$char_traits@D@std@@V?$allocator@D@2@@std@@@std@@V?$STLAllocator@U?$pair@UIdString@Ogre@@V?$basic_string@DU?$char_traits@D@std@@V?$allocator@D@2@@std@@@std@@V?$CategorisedAllocPolicy@$0A@@Ogre@@@Ogre@@@std@@UIdString@2@AEAV?$basic_string@DU?$char_traits@D@std@@V?$allocator@D@2@@4@@Z 
?findResourceFileInfo@ResourceGroupManager@Ogre@@QEAA?AV?$SharedPtr@V?$vector@UFileInfo@Ogre@@V?$STLAllocator@UFileInfo@Ogre@@V?$CategorisedAllocPolicy@$0A@@2@@2@@std@@@2@AEBV?$basic_string@DU?$char_traits@D@std@@V?$allocator@D@2@@std@@0_N@Z 
?findResourceLocation@ResourceGroupManager@Ogre@@QEAA?AV?$SharedPtr@V?$vector@V?$basic_string@DU?$char_traits@D@std@@V?$allocator@D@2@@std@@V?$STLAllocator@V?$basic_string@DU?$char_traits@D@std@@V?$allocator@D@2@@std@@V?$CategorisedAllocPolicy@$0A@@Ogre@@@Ogre@@@std@@@2@AEBV?$basic_string@DU?$char_traits@D@std@@V?$allocator@D@2@@std@@0@Z 
?findResourceNames@ResourceGroupManager@Ogre@@QEAA?AV?$SharedPtr@V?$vector@V?$basic_string@DU?$char_traits@D@std@@V?$allocator@D@2@@std@@V?$STLAllocator@V?$basic_string@DU?$char_traits@D@std@@V?$allocator@D@2@@std@@V?$CategorisedAllocPolicy@$0A@@Ogre@@@Ogre@@@std@@@2@AEBV?$basic_string@DU?$char_traits@D@std@@V?$allocator@D@2@@std@@0_N@Z 
?findShadowNode@CompositorWorkspace@Ogre@@QEBAPEAVCompositorShadowNode@2@UIdString@2@@Z 
?findSubEntityForVertexData@Entity@Ogre@@IEAAPEAVSubEntity@2@PEBVVertexData@2@@Z 
?findUnsignedIntAutoConstantEntry@GpuProgramParameters@Ogre@@QEAAPEBVAutoConstantEntry@12@_K@Z 
?findVisible@InstancedEntity@Ogre@@IEBA_NPEAVCamera@2@@Z 
?find_first_not_of@UTFString@Ogre@@QEBA_KAEBV12@_K1@Z 
?find_first_not_of@UTFString@Ogre@@QEBA_KD_K@Z 
?find_first_not_of@UTFString@Ogre@@QEBA_KG_K@Z 
?find_first_not_of@UTFString@Ogre@@QEBA_KI_K@Z 
?find_first_not_of@UTFString@Ogre@@QEBA_K_W_K@Z 
?find_first_of@UTFString@Ogre@@QEBA_KAEBV12@_K1@Z 
?find_first_of@UTFString@Ogre@@QEBA_KD_K@Z 
?find_first_of@UTFString@Ogre@@QEBA_KG_K@Z 
?find_first_of@UTFString@Ogre@@QEBA_KI_K@Z 
?find_first_of@UTFString@Ogre@@QEBA_K_W_K@Z 
?find_last_not_of@UTFString@Ogre@@QEBA_KAEBV12@_K1@Z 
?find_last_not_of@UTFString@Ogre@@QEBA_KD_K@Z 
?find_last_not_of@UTFString@Ogre@@QEBA_KG_K@Z 
?find_last_not_of@UTFString@Ogre@@QEBA_KI_K@Z 
?find_last_not_of@UTFString@Ogre@@QEBA_K_W_K@Z 
?find_last_of@UTFString@Ogre@@QEBA_KAEBV12@_K1@Z 
?find_last_of@UTFString@Ogre@@QEBA_KD_K@Z 
?find_last_of@UTFString@Ogre@@QEBA_KG_K@Z 
?find_last_of@UTFString@Ogre@@QEBA_KI_K@Z 
?find_last_of@UTFString@Ogre@@QEBA_K_W_K@Z 
?finishProgramDefinition@MaterialSerializer@Ogre@@IEAAXXZ 
?fireCullFrustumInstanceBatchThreads@SceneManager@Ogre@@IEAAXAEBUInstanceBatchCullRequest@2@@Z 
?fireCullFrustumThreads@SceneManager@Ogre@@IEAAXAEBUCullFrustumRequest@2@@Z 
?fireEvent@RenderSystem@Ogre@@MEAAXAEBV?$basic_string@DU?$char_traits@D@std@@V?$allocator@D@2@@std@@PEBV?$map@V?$basic_string@DU?$char_traits@D@std@@V?$allocator@D@2@@std@@V12@U?$less@V?$basic_string@DU?$char_traits@D@std@@V?$allocator@D@2@@std@@@2@V?$STLAllocator@U?$pair@$$CBV?$basic_string@DU?$char_traits@D@std@@V?$allocator@D@2@@std@@V12@@std@@V?$CategorisedAllocPolicy@$0A@@Ogre@@@Ogre@@@4@@Z 
?fireGpuProgramRefEvent@MaterialSerializer@Ogre@@IEAAXW4SerializeEvent@12@AEA_NAEBV?$basic_string@DU?$char_traits@D@std@@V?$allocator@D@2@@std@@AEBV?$SharedPtr@VGpuProgram@Ogre@@@2@AEBV?$SharedPtr@VGpuProgramParameters@Ogre@@@2@PEAVGpuProgramParameters@2@@Z 
?fireMaterialEvent@MaterialSerializer@Ogre@@IEAAXW4SerializeEvent@12@AEA_NPEBVMaterial@2@@Z 
?firePassEvent@MaterialSerializer@Ogre@@IEAAXW4SerializeEvent@12@AEA_NPEBVPass@2@@Z 
?firePostFindVisibleObjects@SceneManager@Ogre@@MEAAXPEAVViewport@2@@Z 
?firePostRenderQueues@SceneManager@Ogre@@MEAAXXZ 
?firePostUpdate@RenderTarget@Ogre@@MEAAXXZ 
?firePreFindVisibleObjects@SceneManager@Ogre@@MEAAXPEAVViewport@2@@Z 
?firePreRenderQueues@SceneManager@Ogre@@MEAAXXZ 
?firePreUpdate@RenderTarget@Ogre@@MEAAXXZ 
?fireRenderQueueEnded@SceneManager@Ogre@@MEAA_NEAEBV?$basic_string@DU?$char_traits@D@std@@V?$allocator@D@2@@std@@@Z 
?fireRenderQueueStarted@SceneManager@Ogre@@MEAA_NEAEBV?$basic_string@DU?$char_traits@D@std@@V?$allocator@D@2@@std@@@Z 
?fireRenderSingleObject@SceneManager@Ogre@@MEAAXPEAVRenderable@2@PEBVPass@2@PEBVAutoParamDataSource@2@PEBV?$HashedVector@ULightClosest@Ogre@@@2@_N@Z 
?fireResourceCreated@ResourceGroupManager@Ogre@@IEAAXAEBV?$SharedPtr@VResource@Ogre@@@2@@Z 
?fireResourceGroupLoadEnded@ResourceGroupManager@Ogre@@IEAAXAEBV?$basic_string@DU?$char_traits@D@std@@V?$allocator@D@2@@std@@@Z 
?fireResourceGroupLoadStarted@ResourceGroupManager@Ogre@@IEAAXAEBV?$basic_string@DU?$char_traits@D@std@@V?$allocator@D@2@@std@@_K@Z 
?fireResourceGroupPrepareEnded@ResourceGroupManager@Ogre@@IEAAXAEBV?$basic_string@DU?$char_traits@D@std@@V?$allocator@D@2@@std@@@Z 
?fireResourceGroupPrepareStarted@ResourceGroupManager@Ogre@@IEAAXAEBV?$basic_string@DU?$char_traits@D@std@@V?$allocator@D@2@@std@@_K@Z 
?fireResourceGroupScriptingEnded@ResourceGroupManager@Ogre@@IEAAXAEBV?$basic_string@DU?$char_traits@D@std@@V?$allocator@D@2@@std@@@Z 
?fireResourceGroupScriptingStarted@ResourceGroupManager@Ogre@@IEAAXAEBV?$basic_string@DU?$char_traits@D@std@@V?$allocator@D@2@@std@@_K@Z 
?fireResourceLoadEnded@ResourceGroupManager@Ogre@@IEAAXXZ 
?fireResourceLoadStarted@ResourceGroupManager@Ogre@@IEAAXAEBV?$SharedPtr@VResource@Ogre@@@2@@Z 
?fireResourcePrepareEnded@ResourceGroupManager@Ogre@@IEAAXXZ 
?fireResourcePrepareStarted@ResourceGroupManager@Ogre@@IEAAXAEBV?$SharedPtr@VResource@Ogre@@@2@@Z 
?fireResourceRemove@ResourceGroupManager@Ogre@@IEAAXAEBV?$SharedPtr@VResource@Ogre@@@2@@Z 
?fireSceneManagerDestroyed@SceneManager@Ogre@@MEAAXXZ 
?fireScriptEnded@ResourceGroupManager@Ogre@@IEAAXAEBV?$basic_string@DU?$char_traits@D@std@@V?$allocator@D@2@@std@@_N@Z 
?fireScriptStarted@ResourceGroupManager@Ogre@@IEAAXAEBV?$basic_string@DU?$char_traits@D@std@@V?$allocator@D@2@@std@@AEA_N@Z 
?fireShadowTexturesPreCaster@SceneManager@Ogre@@MEAAXPEBVLight@2@PEAVCamera@2@_K@Z 
?fireShadowTexturesUpdated@SceneManager@Ogre@@MEAAX_K@Z 
?fireTechniqueEvent@MaterialSerializer@Ogre@@IEAAXW4SerializeEvent@12@AEA_NPEBVTechnique@2@@Z 
?fireTextureUnitStateEvent@MaterialSerializer@Ogre@@IEAAXW4SerializeEvent@12@AEA_NPEBVTextureUnitState@2@@Z 
?fireViewportAdded@RenderTarget@Ogre@@MEAAXPEAVViewport@2@@Z 
?fireViewportPostUpdate@RenderTarget@Ogre@@MEAAXPEAVViewport@2@@Z 
?fireViewportPreUpdate@RenderTarget@Ogre@@MEAAXPEAVViewport@2@@Z 
?fireViewportRemoved@RenderTarget@Ogre@@MEAAXPEAVViewport@2@@Z 
?flipAroundX@Image@Ogre@@QEAAAEAV12@XZ 
?flipAroundY@Image@Ogre@@QEAAAEAV12@XZ 
?flipEndian@DDSCodec@Ogre@@CAXPEAX_K1@Z 
?flipEndian@DDSCodec@Ogre@@CAXPEAX_K@Z 
?flipFromLittleEndian@Serializer@Ogre@@MEAAXPEAX_K1@Z 
?flipToLittleEndian@Serializer@Ogre@@MEAAXPEAX_K1@Z 
?flipVisibility@SceneNode@Ogre@@UEAAX_N@Z 
?flush@VertexCacheProfiler@Ogre@@QEAAXXZ 
?forceOneWeight@BaseInstanceBatchVTF@Ogre@@QEBA_NXZ 
?formatErrorCode@ScriptCompiler@Ogre@@SA?AV?$basic_string@DU?$char_traits@D@std@@V?$allocator@D@2@@std@@I@Z 
?forwardIntersect@Camera@Ogre@@UEBAXAEBVPlane@2@PEAV?$vector@VVector4@Ogre@@V?$STLAllocator@VVector4@Ogre@@V?$CategorisedAllocPolicy@$0A@@2@@2@@std@@@Z 
?frameEnded@FrameListener@Ogre@@UEAA_NAEBUFrameEvent@2@@Z 
?frameEnded@FrameTimeControllerValue@Ogre@@UEAA_NAEBUFrameEvent@2@@Z 
?framePostAnimationUpdates@FrameListener@Ogre@@UEAAXXZ 
?frameRenderingQueued@FrameListener@Ogre@@UEAA_NAEBUFrameEvent@2@@Z 
?frameStarted@FrameListener@Ogre@@UEAA_NAEBUFrameEvent@2@@Z 
?frameStarted@FrameTimeControllerValue@Ogre@@UEAA_NAEBUFrameEvent@2@@Z 
?freeEdgeList@Mesh@Ogre@@QEAAXXZ 
?freeInternalResources@Texture@Ogre@@UEAAXXZ 
?freeMemory@Image@Ogre@@QEAAXXZ 
?freePolygon@ConvexBody@Ogre@@KAXPEAVPolygon@2@@Z 
?freeTagPoint@OldSkeletonInstance@Ogre@@QEAAXPEAVMovableObject@2@@Z 
?freeTagPoint@OldSkeletonInstance@Ogre@@QEAAXPEAVTagPoint@2@@Z 
?frgProgramName@ShadowVolumeExtrudeProgram@Ogre@@2V?$basic_string@DU?$char_traits@D@std@@V?$allocator@D@2@@std@@A 
?fromQuaternion@ArrayMatrix4@Ogre@@QEAAXAEBVArrayQuaternion@2@@Z 
?fromQuaternion@ArrayMatrixAf4x3@Ogre@@QEAAXAEBVArrayQuaternion@2@@Z 
?fromRotationTranslation@DualQuaternion@Ogre@@QEAAXAEBVQuaternion@2@AEBVVector3@2@@Z 
?fromString@DriverVersion@Ogre@@QEAAXAEBV?$basic_string@DU?$char_traits@D@std@@V?$allocator@D@2@@std@@@Z 
?fromTransformationMatrix@DualQuaternion@Ogre@@QEAAXAEBVMatrix4@2@@Z 
?gaussianDistribution@Math@Ogre@@SAMMMM@Z 
?genBillboardAxes@BillboardSet@Ogre@@IEAAXPEAVVector3@2@0PEBVBillboard@2@@Z 
?genConstantEmissionCount@ParticleEmitter@Ogre@@MEAAGM@Z 
?genEmissionColour@ParticleEmitter@Ogre@@MEAAXAEAVColourValue@2@@Z 
?genEmissionDirection@ParticleEmitter@Ogre@@MEAAXAEBVVector3@2@AEAV32@@Z 
?genEmissionTTL@ParticleEmitter@Ogre@@MEAAMXZ 
?genEmissionVelocity@ParticleEmitter@Ogre@@MEAAXAEAVVector3@2@@Z 
?genVertOffsets@BillboardSet@Ogre@@IEAAXMMMMMMAEBVVector3@2@0PEAV32@@Z 
?genVertices@BillboardSet@Ogre@@IEAAXQEBVVector3@2@AEBVBillboard@2@@Z 
?generate@NameGenerator@Ogre@@QEAA?AV?$basic_string@DU?$char_traits@D@std@@V?$allocator@D@2@@std@@XZ 
?generateConstantDefinitionArrayEntries@GpuNamedConstants@Ogre@@QEAAXAEBV?$basic_string@DU?$char_traits@D@std@@V?$allocator@D@2@@std@@AEBUGpuConstantDefinition@2@@Z 
?generateExtremes@SubMesh@Ogre@@QEAAX_K@Z 
?generateInstancedEntity@BaseInstanceBatchVTF@Ogre@@MEAAPEAVInstancedEntity@2@_K@Z 
?generateInstancedEntity@InstanceBatch@Ogre@@MEAAPEAVInstancedEntity@2@_K@Z 
?generateStack@Exception@Ogre@@2_NA 
?generateStackTrace@Exception@Ogre@@SA?AV?$basic_string@DU?$char_traits@D@std@@V?$allocator@D@2@@std@@H@Z 
?get32BitIndices@ManualObjectSection@ManualObject@Ogre@@QEBA_NXZ 
?get@?$SharedPtr@VHardwareCounterBuffer@Ogre@@@Ogre@@QEBAPEAVHardwareCounterBuffer@2@XZ 
?get@?$SharedPtr@VHardwareIndexBuffer@Ogre@@@Ogre@@QEBAPEAVHardwareIndexBuffer@2@XZ 
?get@?$SharedPtr@VHardwarePixelBuffer@Ogre@@@Ogre@@QEBAPEAVHardwarePixelBuffer@2@XZ 
?get@?$SharedPtr@VHardwareUniformBuffer@Ogre@@@Ogre@@QEBAPEAVHardwareUniformBuffer@2@XZ 
?get@?$SharedPtr@VHardwareVertexBuffer@Ogre@@@Ogre@@QEBAPEAVHardwareVertexBuffer@2@XZ 
?get@RenderQueueInvocationSequence@Ogre@@QEAAPEAVRenderQueueInvocation@2@_K@Z 
?getAABB@ConvexBody@Ogre@@QEBA?AVAxisAlignedBox@2@XZ 
?getAborted@Request@WorkQueue@Ogre@@QEBA_NXZ 
?getAccessMode@DataStream@Ogre@@QEBAGXZ 
?getActiveScheme@MaterialManager@Ogre@@UEBAAEBV?$basic_string@DU?$char_traits@D@std@@V?$allocator@D@2@@std@@XZ 
?getActualDimensions@Viewport@Ogre@@QEBAXAEAH000@Z 
?getActualHeight@Viewport@Ogre@@QEBAHXZ 
?getActualLeft@Viewport@Ogre@@QEBAHXZ 
?getActualTop@Viewport@Ogre@@QEBAHXZ 
?getActualWidth@Viewport@Ogre@@QEBAHXZ 
?getAdjustedInput@?$ControllerFunction@M@Ogre@@IEAAMM@Z 
?getAdjustedInput@WaveformControllerFunction@Ogre@@IEAAMM@Z 
?getAffector@ParticleSystem@Ogre@@QEBAPEAVParticleAffector@2@G@Z 
?getAffectorFactoryIterator@ParticleSystemManager@Ogre@@QEAA?AV?$MapIterator@V?$map@V?$basic_string@DU?$char_traits@D@std@@V?$allocator@D@2@@std@@PEAVParticleAffectorFactory@Ogre@@U?$less@V?$basic_string@DU?$char_traits@D@std@@V?$allocator@D@2@@std@@@2@V?$STLAllocator@U?$pair@$$CBV?$basic_string@DU?$char_traits@D@std@@V?$allocator@D@2@@std@@PEAVParticleAffectorFactory@Ogre@@@std@@V?$CategorisedAllocPolicy@$0A@@Ogre@@@4@@std@@@2@XZ 
?getAliasTextureIterator@SubMesh@Ogre@@QEBA?AV?$ConstMapIterator@V?$map@V?$basic_string@DU?$char_traits@D@std@@V?$allocator@D@2@@std@@V12@U?$less@V?$basic_string@DU?$char_traits@D@std@@V?$allocator@D@2@@std@@@2@V?$STLAllocator@U?$pair@$$CBV?$basic_string@DU?$char_traits@D@std@@V?$allocator@D@2@@std@@V12@@std@@V?$CategorisedAllocPolicy@$0A@@Ogre@@@Ogre@@@std@@@2@XZ 
?getAllAnimationStates@Entity@Ogre@@QEBAPEAVAnimationStateSet@2@XZ 
?getAllAnimationStates@InstancedEntity@Ogre@@QEBAPEAVAnimationStateSet@2@XZ 
?getAllCorners@AxisAlignedBox@Ogre@@QEBAPEBVVector3@2@XZ 
?getAllMemory@ArrayMemoryManager@Ogre@@QEBA_KXZ 
?getAllShadowTextures@ShadowTextureManager@Ogre@@UEAAXAEAV?$vector@V?$SharedPtr@VTexture@Ogre@@@Ogre@@V?$STLAllocator@V?$SharedPtr@VTexture@Ogre@@@Ogre@@V?$CategorisedAllocPolicy@$0A@@2@@2@@std@@@Z 
?getAlphaBlendMode@TextureUnitState@Ogre@@QEBAAEBVLayerBlendModeEx@2@XZ 
?getAlphaRejectFunction@Pass@Ogre@@QEBA?AW4CompareFunction@2@XZ 
?getAlphaRejectValue@Pass@Ogre@@QEBAEXZ 
?getAlwaysUpdateMainSkeleton@Entity@Ogre@@QEBA_NXZ 
?getAmbient@Pass@Ogre@@QEBAAEBVColourValue@2@XZ 
?getAmbientLight@SceneManager@Ogre@@QEBAAEBVColourValue@2@XZ 
?getAmbientLightColour@AutoParamDataSource@Ogre@@QEBAAEBVColourValue@2@XZ 
?getAngle@ParticleEmitter@Ogre@@UEBAAEBVRadian@2@XZ 
?getAngleUnit@Math@Ogre@@SA?AW4AngleUnit@12@XZ 
?getAnimableDictionaryName@AnimableObject@Ogre@@MEBAAEBV?$basic_string@DU?$char_traits@D@std@@V?$allocator@D@2@@std@@XZ 
?getAnimableValueNames@AnimableObject@Ogre@@QEBAAEBV?$vector@V?$basic_string@DU?$char_traits@D@std@@V?$allocator@D@2@@std@@V?$STLAllocator@V?$basic_string@DU?$char_traits@D@std@@V?$allocator@D@2@@std@@V?$CategorisedAllocPolicy@$0A@@Ogre@@@Ogre@@@std@@XZ 
?getAnimation@Mesh@Ogre@@UEBAPEAVAnimation@2@G@Z 
?getAnimation@Mesh@Ogre@@UEBAPEAVAnimation@2@I@Z 
?getAnimation@OldSkeletonInstance@Ogre@@UEBAPEAVAnimation@2@G@Z 
?getAnimation@OldSkeletonInstance@Ogre@@UEBAPEAVAnimation@2@IPEAPEBULinkedSkeletonAnimationSource@2@@Z 
?getAnimation@SceneManager@Ogre@@UEBAPEAVAnimation@2@AEBV?$basic_string@DU?$char_traits@D@std@@V?$allocator@D@2@@std@@@Z 
?getAnimation@Skeleton@Ogre@@UEBAPEAVAnimation@2@G@Z 
?getAnimation@Skeleton@Ogre@@UEBAPEAVAnimation@2@I@Z 
?getAnimation@Skeleton@Ogre@@UEBAPEAVAnimation@2@IPEAPEBULinkedSkeletonAnimationSource@2@@Z 
?getAnimation@SkeletonInstance@Ogre@@QEAAPEAVSkeletonAnimation@2@UIdString@2@@Z 
?getAnimationDefs@SkeletonDef@Ogre@@QEBAAEBV?$vector@VSkeletonAnimationDef@Ogre@@V?$STLAllocator@VSkeletonAnimationDef@Ogre@@V?$CategorisedAllocPolicy@$0A@@2@@2@@std@@XZ 
?getAnimationDuration@TextureUnitState@Ogre@@QEBAMXZ 
?getAnimationID@AnimationNameIDMapper@Ogre@@QEAAIAEBV?$basic_string@DU?$char_traits@D@std@@V?$allocator@D@2@@std@@@Z 
?getAnimationIterator@SceneManager@Ogre@@QEAA?AV?$MapIterator@V?$map@V?$basic_string@DU?$char_traits@D@std@@V?$allocator@D@2@@std@@PEAVAnimation@Ogre@@U?$less@V?$basic_string@DU?$char_traits@D@std@@V?$allocator@D@2@@std@@@2@V?$STLAllocator@U?$pair@$$CBV?$basic_string@DU?$char_traits@D@std@@V?$allocator@D@2@@std@@PEAVAnimation@Ogre@@@std@@V?$CategorisedAllocPolicy@$0A@@Ogre@@@4@@std@@@2@XZ 
?getAnimationName@AnimationNameIDMapper@Ogre@@QEAAAEBV?$basic_string@DU?$char_traits@D@std@@V?$allocator@D@2@@std@@I@Z 
?getAnimationName@AnimationState@Ogre@@QEBAAEBV?$basic_string@DU?$char_traits@D@std@@V?$allocator@D@2@@std@@XZ 
?getAnimationState@AnimationStateSet@Ogre@@QEBAPEAVAnimationState@2@I@Z 
?getAnimationState@Entity@Ogre@@QEBAPEAVAnimationState@2@I@Z 
?getAnimationState@InstancedEntity@Ogre@@QEBAPEAVAnimationState@2@I@Z 
?getAnimationState@SceneManager@Ogre@@UEBAPEAVAnimationState@2@AEBV?$basic_string@DU?$char_traits@D@std@@V?$allocator@D@2@@std@@@Z 
?getAnimationStateIterator@AnimationStateSet@Ogre@@QEAA?AV?$MapIterator@V?$map@IPEAVAnimationState@Ogre@@U?$less@I@std@@V?$STLAllocator@U?$pair@$$CBIPEAVAnimationState@Ogre@@@std@@V?$CategorisedAllocPolicy@$0A@@Ogre@@@2@@std@@@2@XZ 
?getAnimationStateIterator@AnimationStateSet@Ogre@@QEBA?AV?$ConstMapIterator@V?$map@IPEAVAnimationState@Ogre@@U?$less@I@std@@V?$STLAllocator@U?$pair@$$CBIPEAVAnimationState@Ogre@@@std@@V?$CategorisedAllocPolicy@$0A@@Ogre@@@2@@std@@@2@XZ 
?getAnimationStateIterator@SceneManager@Ogre@@QEAA?AV?$MapIterator@V?$map@IPEAVAnimationState@Ogre@@U?$less@I@std@@V?$STLAllocator@U?$pair@$$CBIPEAVAnimationState@Ogre@@@std@@V?$CategorisedAllocPolicy@$0A@@Ogre@@@2@@std@@@2@XZ 
?getAnimationType@VertexAnimationTrack@Ogre@@QEBA?AW4VertexAnimationType@2@XZ 
?getAnimations@SceneManager@Ogre@@QEBAAEBV?$map@V?$basic_string@DU?$char_traits@D@std@@V?$allocator@D@2@@std@@PEAVAnimation@Ogre@@U?$less@V?$basic_string@DU?$char_traits@D@std@@V?$allocator@D@2@@std@@@2@V?$STLAllocator@U?$pair@$$CBV?$basic_string@DU?$char_traits@D@std@@V?$allocator@D@2@@std@@PEAVAnimation@Ogre@@@std@@V?$CategorisedAllocPolicy@$0A@@Ogre@@@4@@std@@XZ 
?getArchiveIterator@ArchiveManager@Ogre@@QEAA?AV?$MapIterator@V?$map@V?$basic_string@DU?$char_traits@D@std@@V?$allocator@D@2@@std@@PEAVArchive@Ogre@@U?$less@V?$basic_string@DU?$char_traits@D@std@@V?$allocator@D@2@@std@@@2@V?$STLAllocator@U?$pair@$$CBV?$basic_string@DU?$char_traits@D@std@@V?$allocator@D@2@@std@@PEAVArchive@Ogre@@@std@@V?$CategorisedAllocPolicy@$0A@@Ogre@@@4@@std@@@2@XZ 
?getAs4DVector@Light@Ogre@@QEBA?AVVector4@2@XZ 
?getAsABGR@ColourValue@Ogre@@QEBAIXZ 
?getAsARGB@ColourValue@Ogre@@QEBAIXZ 
?getAsAabb@ArrayAabb@Ogre@@QEBA?AUAabb@2@_K@Z 
?getAsAabb@ArrayAabb@Ogre@@QEBAXAEAUAabb@2@_K@Z 
?getAsBGRA@ColourValue@Ogre@@QEBAIXZ 
?getAsMatrix4@ArrayMatrix4@Ogre@@QEBA?AVMatrix4@2@_K@Z 
?getAsMatrix4@ArrayMatrix4@Ogre@@QEBAXAEAVMatrix4@2@_K@Z 
?getAsQuaternion@ArrayQuaternion@Ogre@@QEBA?AVQuaternion@2@_K@Z 
?getAsQuaternion@ArrayQuaternion@Ogre@@QEBAXAEAVQuaternion@2@_K@Z 
?getAsRGBA@ColourValue@Ogre@@QEBAIXZ 
?getAsSphere@ArraySphere@Ogre@@QEBA?AVSphere@2@_K@Z 
?getAsSphere@ArraySphere@Ogre@@QEBAXAEAVSphere@2@_K@Z 
?getAsString@DataStream@Ogre@@UEAA?AV?$basic_string@DU?$char_traits@D@std@@V?$allocator@D@2@@std@@XZ 
?getAsVector3@ArrayVector3@Ogre@@QEBA?AVVector3@2@_K@Z 
?getAsVector3@ArrayVector3@Ogre@@QEBAXAEAVVector3@2@_K@Z 
?getAspectRatio@Frustum@Ogre@@UEBAMXZ 
?getAssociatedAnimable@NumericAnimationTrack@Ogre@@UEBAAEBV?$SharedPtr@VAnimableValue@Ogre@@@2@XZ 
?getAssociatedNode@NodeAnimationTrack@Ogre@@QEBAPEAVNode@2@XZ 
?getAssociatedNode@OldNodeAnimationTrack@Ogre@@QEBAPEAVOldNode@2@XZ 
?getAssociatedVertexData@VertexAnimationTrack@Ogre@@QEBAPEAVVertexData@2@XZ 
?getAttachedObject@SceneNode@Ogre@@QEAAPEAVMovableObject@2@AEBV?$basic_string@DU?$char_traits@D@std@@V?$allocator@D@2@@std@@@Z 
?getAttachedObject@SceneNode@Ogre@@QEAAPEAVMovableObject@2@_K@Z 
?getAttachedObjectIt@SceneNode@Ogre@@IEAA?AV?$_Vector_iterator@V?$_Vector_val@PEAVMovableObject@Ogre@@V?$STLAllocator@PEAVMovableObject@Ogre@@V?$CategorisedAllocPolicy@$0A@@2@@2@@std@@@std@@AEBV?$basic_string@DU?$char_traits@D@std@@V?$allocator@D@2@@4@@Z 
?getAttachedObjectIt@SceneNode@Ogre@@IEBA?AV?$_Vector_const_iterator@V?$_Vector_val@PEAVMovableObject@Ogre@@V?$STLAllocator@PEAVMovableObject@Ogre@@V?$CategorisedAllocPolicy@$0A@@2@@2@@std@@@std@@AEBV?$basic_string@DU?$char_traits@D@std@@V?$allocator@D@2@@4@@Z 
?getAttachedObjectIterator@SceneNode@Ogre@@UEAA?AV?$VectorIterator@V?$vector@PEAVMovableObject@Ogre@@V?$STLAllocator@PEAVMovableObject@Ogre@@V?$CategorisedAllocPolicy@$0A@@2@@2@@std@@@2@XZ 
?getAttachedObjectIterator@SceneNode@Ogre@@UEBA?AV?$ConstVectorIterator@V?$vector@PEAVMovableObject@Ogre@@V?$STLAllocator@PEAVMovableObject@Ogre@@V?$CategorisedAllocPolicy@$0A@@2@@2@@std@@@2@XZ 
?getAttenuationConstant@Light@Ogre@@QEBAMXZ 
?getAttenuationLinear@Light@Ogre@@QEBAMXZ 
?getAttenuationQuadric@Light@Ogre@@QEBAMXZ 
?getAttenuationRange@Light@Ogre@@QEBAMXZ 
?getAutoAspectRatio@Camera@Ogre@@QEBA_NXZ 
?getAutoBuildEdgeLists@Mesh@Ogre@@QEBA_NXZ 
?getAutoConstantCount@GpuProgramParameters@Ogre@@QEBA_KXZ 
?getAutoConstantDefinition@GpuProgramParameters@Ogre@@SAPEBUAutoConstantDefinition@12@AEBV?$basic_string@DU?$char_traits@D@std@@V?$allocator@D@2@@std@@@Z 
?getAutoConstantDefinition@GpuProgramParameters@Ogre@@SAPEBUAutoConstantDefinition@12@_K@Z 
?getAutoConstantEntry@GpuProgramParameters@Ogre@@QEAAPEAVAutoConstantEntry@12@_K@Z 
?getAutoConstantIterator@GpuProgramParameters@Ogre@@QEBA?AV?$ConstVectorIterator@V?$vector@VAutoConstantEntry@GpuProgramParameters@Ogre@@V?$STLAllocator@VAutoConstantEntry@GpuProgramParameters@Ogre@@V?$CategorisedAllocPolicy@$0A@@3@@3@@std@@@2@XZ 
?getAutoConstantList@GpuProgramParameters@Ogre@@QEBAAEBV?$vector@VAutoConstantEntry@GpuProgramParameters@Ogre@@V?$STLAllocator@VAutoConstantEntry@GpuProgramParameters@Ogre@@V?$CategorisedAllocPolicy@$0A@@3@@3@@std@@XZ 
?getAutoCreatedWindow@Root@Ogre@@QEAAPEAVRenderWindow@2@XZ 
?getAutoOrganisedDeclaration@VertexDeclaration@Ogre@@QEBAPEAV12@_N00@Z 
?getAutoTrackOffset@Camera@Ogre@@QEBAAEBVVector3@2@XZ 
?getAutoTrackTarget@Camera@Ogre@@QEBAPEAVSceneNode@2@XZ 
?getAutoULevel@PatchSurface@Ogre@@IEAA_K_N@Z 
?getAutoUpdate@BillboardSet@Ogre@@QEBA_NXZ 
?getAutoVLevel@PatchSurface@Ogre@@IEAA_K_N@Z 
?getAutoextend@BillboardSet@Ogre@@UEBA_NXZ 
?getAvailInForSinglePass@DeflateStream@Ogre@@IEAA_KXZ 
?getAvailableRenderers@Root@Ogre@@QEAAAEBV?$vector@PEAVRenderSystem@Ogre@@V?$STLAllocator@PEAVRenderSystem@Ogre@@V?$CategorisedAllocPolicy@$0A@@2@@2@@std@@XZ 
?getAvailableSharedParameters@GpuProgramManager@Ogre@@UEBAAEBV?$map@V?$basic_string@DU?$char_traits@D@std@@V?$allocator@D@2@@std@@V?$SharedPtr@VGpuSharedParameters@Ogre@@@Ogre@@U?$less@V?$basic_string@DU?$char_traits@D@std@@V?$allocator@D@2@@std@@@2@V?$STLAllocator@U?$pair@$$CBV?$basic_string@DU?$char_traits@D@std@@V?$allocator@D@2@@std@@V?$SharedPtr@VGpuSharedParameters@Ogre@@@Ogre@@@std@@V?$CategorisedAllocPolicy@$0A@@Ogre@@@4@@std@@XZ 
?getAvgFps@FrameStats@Ogre@@QEBAMXZ 
?getAvgTime@FrameStats@Ogre@@QEBAMXZ 
?getBNFExpressionOfPixelFormats@PixelUtil@Ogre@@SA?AV?$basic_string@DU?$char_traits@D@std@@V?$allocator@D@2@@std@@_N@Z 
?getBPP@Image@Ogre@@QEBAEXZ 
?getBaseKeyFrameAnimationName@Animation@Ogre@@QEBAIXZ 
?getBaseKeyFrameTime@Animation@Ogre@@QEBAMXZ 
?getBaseType@GpuConstantDefinition@Ogre@@SA?AW4BaseConstantType@2@W4GpuConstantType@2@@Z 
?getBaseType@VertexElement@Ogre@@SA?AW4VertexElementType@2@W432@@Z 
?getBaseValue@DistanceLodStrategyBase@Ogre@@UEBAMXZ 
?getBaseValue@PixelCountLodStrategyBase@Ogre@@UEBAMXZ 
?getBatchCount@RenderTarget@Ogre@@UEBA_KXZ 
?getBestColourVertexElementType@VertexElement@Ogre@@SA?AW4VertexElementType@2@XZ 
?getBestTechnique@Material@Ogre@@QEAAPEAVTechnique@2@GPEBVRenderable@2@@Z 
?getBestTime@FrameStats@Ogre@@QEBAMXZ 
?getBillboard@BillboardSet@Ogre@@UEBAPEAVBillboard@2@I@Z 
?getBillboardOrigin@BillboardParticleRenderer@Ogre@@QEBA?AW4BillboardOrigin@2@XZ 
?getBillboardOrigin@BillboardSet@Ogre@@UEBA?AW4BillboardOrigin@2@XZ 
?getBillboardRotationType@BillboardParticleRenderer@Ogre@@QEBA?AW4BillboardRotationType@2@XZ 
?getBillboardRotationType@BillboardSet@Ogre@@UEBA?AW4BillboardRotationType@2@XZ 
?getBillboardSet@BillboardParticleRenderer@Ogre@@QEBAPEAVBillboardSet@2@XZ 
?getBillboardType@BillboardParticleRenderer@Ogre@@QEBA?AW4BillboardType@2@XZ 
?getBillboardType@BillboardSet@Ogre@@UEBA?AW4BillboardType@2@XZ 
?getBillboardsInWorldSpace@BillboardSet@Ogre@@QEAA_NXZ 
?getBindPose@SkeletonDef@Ogre@@QEBAPEBUKfTransform@2@XZ 
?getBindingType@TextureUnitState@Ogre@@QEBA?AW4BindingType@12@XZ 
?getBindings@VertexBufferBinding@Ogre@@UEBAAEBV?$map@GVHardwareVertexBufferSharedPtr@Ogre@@U?$less@G@std@@V?$STLAllocator@U?$pair@$$CBGVHardwareVertexBufferSharedPtr@Ogre@@@std@@V?$CategorisedAllocPolicy@$0A@@Ogre@@@2@@std@@XZ 
?getBitDepth@DepthBuffer@Ogre@@UEBAGXZ 
?getBitDepths@PixelUtil@Ogre@@SAXW4PixelFormat@2@QEAH@Z 
?getBitMasks@PixelUtil@Ogre@@SAXW4PixelFormat@2@QEA_K@Z 
?getBitShifts@PixelUtil@Ogre@@SAXW4PixelFormat@2@QEAE@Z 
?getBlendMask@AnimationState@Ogre@@QEBAPEBV?$vector@MV?$STLAllocator@MV?$CategorisedAllocPolicy@$0A@@Ogre@@@Ogre@@@std@@XZ 
?getBlendMaskEntry@AnimationState@Ogre@@QEBAM_K@Z 
?getBlendMode@Skeleton@Ogre@@UEBA?AW4SkeletonAnimationBlendMode@2@XZ 
?getBone@Skeleton@Ogre@@UEBAPEAVOldBone@2@AEBV?$basic_string@DU?$char_traits@D@std@@V?$allocator@D@2@@std@@@Z 
?getBone@Skeleton@Ogre@@UEBAPEAVOldBone@2@G@Z 
?getBone@SkeletonInstance@Ogre@@QEAAPEAVBone@2@UIdString@2@@Z 
?getBone@SkeletonInstance@Ogre@@QEAAPEAVBone@2@_K@Z 
?getBoneAssignmentIterator@Mesh@Ogre@@QEAA?AV?$MapIterator@V?$multimap@_KUVertexBoneAssignment_s@Ogre@@U?$less@_K@std@@V?$STLAllocator@U?$pair@$$CB_KUVertexBoneAssignment_s@Ogre@@@std@@V?$CategorisedAllocPolicy@$0A@@Ogre@@@2@@std@@@2@XZ 
?getBoneAssignmentIterator@SubMesh@Ogre@@QEAA?AV?$MapIterator@V?$multimap@_KUVertexBoneAssignment_s@Ogre@@U?$less@_K@std@@V?$STLAllocator@U?$pair@$$CB_KUVertexBoneAssignment_s@Ogre@@@std@@V?$CategorisedAllocPolicy@$0A@@Ogre@@@2@@std@@@2@XZ 
?getBoneAssignments@Mesh@Ogre@@QEBAAEBV?$multimap@_KUVertexBoneAssignment_s@Ogre@@U?$less@_K@std@@V?$STLAllocator@U?$pair@$$CB_KUVertexBoneAssignment_s@Ogre@@@std@@V?$CategorisedAllocPolicy@$0A@@Ogre@@@2@@std@@XZ 
?getBoneAssignments@SubMesh@Ogre@@QEAAAEBV?$multimap@_KUVertexBoneAssignment_s@Ogre@@U?$less@_K@std@@V?$STLAllocator@U?$pair@$$CB_KUVertexBoneAssignment_s@Ogre@@@std@@V?$CategorisedAllocPolicy@$0A@@Ogre@@@2@@std@@XZ 
?getBoneBlockIdx@SkeletonTrack@Ogre@@QEBAIXZ 
?getBoneBoundingRadius@Mesh@Ogre@@QEBAMXZ 
?getBoneIterator@Skeleton@Ogre@@UEAA?AV?$VectorIterator@V?$vector@PEAVOldBone@Ogre@@V?$STLAllocator@PEAVOldBone@Ogre@@V?$CategorisedAllocPolicy@$0A@@2@@2@@std@@@2@XZ 
?getBoneIteratorConst@Skeleton@Ogre@@QEBA?AV?$ConstVectorIterator@V?$vector@PEAVOldBone@Ogre@@V?$STLAllocator@PEAVOldBone@Ogre@@V?$CategorisedAllocPolicy@$0A@@2@@2@@std@@@2@XZ 
?getBonePositionalSize@OldBone@Ogre@@QEBAAEBVVector3@2@XZ 
?getBoneSize@OldBone@Ogre@@QEBAAEBVVector3@2@XZ 
?getBoneToSlot@SkeletonDef@Ogre@@QEBAAEBV?$vector@IV?$STLAllocator@IV?$CategorisedAllocPolicy@$0A@@Ogre@@@Ogre@@@std@@XZ 
?getBoneWeight@SkeletonAnimation@Ogre@@QEBAMUIdString@2@@Z 
?getBoneWeightPtr@SkeletonAnimation@Ogre@@QEAAPEAMUIdString@2@@Z 
?getBones@SkeletonDef@Ogre@@QEBAAEBV?$vector@UBoneData@SkeletonDef@Ogre@@V?$STLAllocator@UBoneData@SkeletonDef@Ogre@@V?$CategorisedAllocPolicy@$0A@@3@@3@@std@@XZ 
?getBonesPerDepth@SkeletonDef@Ogre@@QEBAXAEAV?$vector@_KV?$STLAllocator@_KV?$CategorisedAllocPolicy@$0A@@Ogre@@@Ogre@@@std@@@Z 
?getBoolLogicalBufferStruct@GpuProgramParameters@Ogre@@QEBAAEBV?$SharedPtr@UGpuLogicalBufferStruct@Ogre@@@2@XZ 
?getBoolLogicalIndexForPhysicalIndex@GpuProgramParameters@Ogre@@QEAA_K_K@Z 
?getBoolean@ScriptTranslator@Ogre@@KA_NAEBV?$SharedPtr@VAbstractNode@Ogre@@@2@PEA_N@Z 
?getBooleans@ScriptTranslator@Ogre@@KA_NV?$_List_const_iterator@V?$_List_val@V?$SharedPtr@VAbstractNode@Ogre@@@Ogre@@V?$STLAllocator@V?$SharedPtr@VAbstractNode@Ogre@@@Ogre@@V?$CategorisedAllocPolicy@$0A@@2@@2@@std@@@std@@0PEAIH@Z 
?getBoundSurface@MultiRenderTarget@Ogre@@QEAAPEAVRenderTexture@2@_K@Z 
?getBoundSurfaceList@MultiRenderTarget@Ogre@@QEBAAEBV?$vector@PEAVRenderTexture@Ogre@@V?$STLAllocator@PEAVRenderTexture@Ogre@@V?$CategorisedAllocPolicy@$0A@@2@@2@@std@@XZ 
?getBoundingBox@BillboardChain@Ogre@@QEBAAEBVAxisAlignedBox@2@XZ 
?getBoundingBox@Frustum@Ogre@@QEBAAEBVAxisAlignedBox@2@XZ 
?getBoundingBox@InstancedEntity@Ogre@@QEBAAEBVAxisAlignedBox@2@XZ 
?getBoundingBox@MovablePlane@Ogre@@QEBAAEBVAxisAlignedBox@2@XZ 
?getBoundingBox@SimpleRenderable@Ogre@@UEBAAEBVAxisAlignedBox@2@XZ 
?getBoundingSphereRadius@Mesh@Ogre@@QEBAMXZ 
?getBoundingSphereRadius@PatchSurface@Ogre@@QEBAMXZ 
?getBounds@Mesh@Ogre@@QEBAAEBVAxisAlignedBox@2@XZ 
?getBounds@PatchSurface@Ogre@@QEBAAEBVAxisAlignedBox@2@XZ 
?getBoundsPaddingFactor@MeshManager@Ogre@@QEAAMXZ 
?getBox@AxisAlignedBoxSceneQuery@Ogre@@QEBAAEBVAxisAlignedBox@2@XZ 
?getBuffer@VertexBufferBinding@Ogre@@UEBAAEBVHardwareVertexBufferSharedPtr@2@G@Z 
?getBufferCount@VertexBufferBinding@Ogre@@UEBA_KXZ 
?getBuiltinHashFunction@Pass@Ogre@@SAPEAUHashFunc@12@W4BuiltinHashFunction@12@@Z 
?getByHandle@ResourceManager@Ogre@@UEAA?AV?$SharedPtr@VResource@Ogre@@@2@_K@Z 
?getByName@GpuProgramManager@Ogre@@QEAA?AV?$SharedPtr@VGpuProgram@Ogre@@@2@AEBV?$basic_string@DU?$char_traits@D@std@@V?$allocator@D@2@@std@@_N@Z 
?getByName@HighLevelGpuProgramManager@Ogre@@QEAA?AV?$SharedPtr@VHighLevelGpuProgram@Ogre@@@2@AEBV?$basic_string@DU?$char_traits@D@std@@V?$allocator@D@2@@std@@0@Z 
?getByName@MaterialManager@Ogre@@QEAA?AV?$SharedPtr@VMaterial@Ogre@@@2@AEBV?$basic_string@DU?$char_traits@D@std@@V?$allocator@D@2@@std@@0@Z 
?getByName@MeshManager@Ogre@@QEAA?AV?$SharedPtr@VMesh@Ogre@@@2@AEBV?$basic_string@DU?$char_traits@D@std@@V?$allocator@D@2@@std@@0@Z 
?getByName@OldSkeletonManager@Ogre@@QEAA?AV?$SharedPtr@VSkeleton@Ogre@@@2@AEBV?$basic_string@DU?$char_traits@D@std@@V?$allocator@D@2@@std@@0@Z 
?getByName@TextureManager@Ogre@@QEAA?AV?$SharedPtr@VTexture@Ogre@@@2@AEBV?$basic_string@DU?$char_traits@D@std@@V?$allocator@D@2@@std@@0@Z 
?getCamera@CompositorPassScene@Ogre@@QEBAPEAVCamera@2@XZ 
?getCameraInProgress@SceneManager@Ogre@@QEBAPEAVCamera@2@XZ 
?getCameraIterator@SceneManager@Ogre@@QEAA?AV?$VectorIterator@V?$vector@PEAVCamera@Ogre@@V?$STLAllocator@PEAVCamera@Ogre@@V?$CategorisedAllocPolicy@$0A@@2@@2@@std@@@2@XZ 
?getCameraPosition@AutoParamDataSource@Ogre@@QEBAAEBVVector4@2@XZ 
?getCameraPositionObjectSpace@AutoParamDataSource@Ogre@@QEBAAEBVVector4@2@XZ 
?getCameraToViewportBoxVolume@Camera@Ogre@@QEAA?AVPlaneBoundedVolume@2@MMMM_N@Z 
?getCameraToViewportBoxVolume@Camera@Ogre@@QEAAXMMMMPEAVPlaneBoundedVolume@2@_N@Z 
?getCameraToViewportRay@Camera@Ogre@@QEBA?AVRay@2@MM@Z 
?getCameraToViewportRay@Camera@Ogre@@QEBAXMMPEAVRay@2@@Z 
?getCameras@SceneManager@Ogre@@QEBAAEBV?$vector@PEAVCamera@Ogre@@V?$STLAllocator@PEAVCamera@Ogre@@V?$CategorisedAllocPolicy@$0A@@2@@2@@std@@XZ 
?getCapabilities@RenderSystem@Ogre@@QEBAPEBVRenderSystemCapabilities@2@XZ 
?getCapabilities@RenderSystemCapabilitiesManager@Ogre@@QEBAAEBV?$map@V?$basic_string@DU?$char_traits@D@std@@V?$allocator@D@2@@std@@PEAVRenderSystemCapabilities@Ogre@@U?$less@V?$basic_string@DU?$char_traits@D@std@@V?$allocator@D@2@@std@@@2@V?$STLAllocator@U?$pair@$$CBV?$basic_string@DU?$char_traits@D@std@@V?$allocator@D@2@@std@@PEAVRenderSystemCapabilities@Ogre@@@std@@V?$CategorisedAllocPolicy@$0A@@Ogre@@@4@@std@@XZ 
?getCastShadows@MovableObject@Ogre@@QEBA_NXZ 
?getCastShadows@StaticGeometry@Ogre@@UEAA_NXZ 
?getCastersBox@CompositorShadowNode@Ogre@@QEBAAEBVAxisAlignedBox@2@XZ 
?getCastsShadows@GeometryBucket@StaticGeometry@Ogre@@UEBA_NXZ 
?getCastsShadows@Renderable@Ogre@@UEBA_NXZ 
?getCastsShadows@SubEntity@Ogre@@UEBA_NXZ 
?getCenter@AxisAlignedBox@Ogre@@QEBA?AVVector3@2@XZ 
?getCenter@Sphere@Ogre@@QEBAAEBVVector3@2@XZ 
?getCentre@Region@StaticGeometry@Ogre@@QEBAAEBVVector3@3@XZ 
?getChainElement@BillboardChain@Ogre@@UEBAAEBVElement@12@_K0@Z 
?getChainIndexForNode@RibbonTrail@Ogre@@UEAA_KPEBVNode@2@@Z 
?getChannel@Request@WorkQueue@Ogre@@QEBAGXZ 
?getChannel@WorkQueue@Ogre@@UEAAGAEBV?$basic_string@DU?$char_traits@D@std@@V?$allocator@D@2@@std@@@Z 
?getChar@UTFString@Ogre@@QEBAI_K@Z 
?getCharacter@_const_fwd_iterator@UTFString@Ogre@@QEBAIXZ 
?getCharacter@_fwd_iterator@UTFString@Ogre@@QEBAIXZ 
?getChild@Node@Ogre@@QEAAPEAV12@_K@Z 
?getChild@Node@Ogre@@QEBAPEBV12@_K@Z 
?getChild@OldNode@Ogre@@UEBAPEAV12@AEBV?$basic_string@DU?$char_traits@D@std@@V?$allocator@D@2@@std@@@Z 
?getChild@OldNode@Ogre@@UEBAPEAV12@G@Z 
?getChildIterator@Node@Ogre@@QEAA?AV?$VectorIterator@V?$vector@PEAVNode@Ogre@@V?$STLAllocator@PEAVNode@Ogre@@V?$CategorisedAllocPolicy@$0A@@2@@2@@std@@@2@XZ 
?getChildIterator@Node@Ogre@@QEBA?AV?$ConstVectorIterator@V?$vector@PEAVNode@Ogre@@V?$STLAllocator@PEAVNode@Ogre@@V?$CategorisedAllocPolicy@$0A@@2@@2@@std@@@2@XZ 
?getChildIterator@OldNode@Ogre@@UEAA?AV?$VectorIterator@V?$vector@PEAVOldNode@Ogre@@V?$STLAllocator@PEAVOldNode@Ogre@@V?$CategorisedAllocPolicy@$0A@@2@@2@@std@@@2@XZ 
?getChildIterator@OldNode@Ogre@@UEBA?AV?$ConstVectorIterator@V?$vector@PEAVOldNode@Ogre@@V?$STLAllocator@PEAVOldNode@Ogre@@V?$CategorisedAllocPolicy@$0A@@2@@2@@std@@@2@XZ 
?getChildObject@TagPoint@Ogre@@QEBAPEAVMovableObject@2@XZ 
?getCodec@Codec@Ogre@@SAPEAV12@AEBV?$basic_string@DU?$char_traits@D@std@@V?$allocator@D@2@@std@@@Z 
?getCodec@Codec@Ogre@@SAPEAV12@PEAD_K@Z 
?getCodecIterator@Codec@Ogre@@SA?AV?$ConstMapIterator@V?$map@V?$basic_string@DU?$char_traits@D@std@@V?$allocator@D@2@@std@@PEAVCodec@Ogre@@U?$less@V?$basic_string@DU?$char_traits@D@std@@V?$allocator@D@2@@std@@@2@V?$STLAllocator@U?$pair@$$CBV?$basic_string@DU?$char_traits@D@std@@V?$allocator@D@2@@std@@PEAVCodec@Ogre@@@std@@V?$CategorisedAllocPolicy@$0A@@Ogre@@@4@@std@@@2@XZ 
?getColour@Billboard@Ogre@@QEBAAEBVColourValue@2@XZ 
?getColour@ParticleEmitter@Ogre@@UEBAAEBVColourValue@2@XZ 
?getColour@ScriptTranslator@Ogre@@KA_NV?$_List_const_iterator@V?$_List_val@V?$SharedPtr@VAbstractNode@Ogre@@@Ogre@@V?$STLAllocator@V?$SharedPtr@VAbstractNode@Ogre@@@Ogre@@V?$CategorisedAllocPolicy@$0A@@2@@2@@std@@@std@@0PEAVColourValue@2@H@Z 
?getColourAt@Image@Ogre@@QEBA?AVColourValue@2@_K00@Z 
?getColourAt@PixelBox@Ogre@@QEAA?AVColourValue@2@_K00@Z 
?getColourBlendFallbackDest@TextureUnitState@Ogre@@QEBA?AW4SceneBlendFactor@2@XZ 
?getColourBlendFallbackSrc@TextureUnitState@Ogre@@QEBA?AW4SceneBlendFactor@2@XZ 
?getColourBlendMode@TextureUnitState@Ogre@@QEBAAEBVLayerBlendModeEx@2@XZ 
?getColourChange@RibbonTrail@Ogre@@UEBAAEBVColourValue@2@_K@Z 
?getColourDepth@RenderTarget@Ogre@@UEBAIXZ 
?getColourRangeEnd@ParticleEmitter@Ogre@@UEBAAEBVColourValue@2@XZ 
?getColourRangeStart@ParticleEmitter@Ogre@@UEBAAEBVColourValue@2@XZ 
?getColourWriteEnabled@Pass@Ogre@@QEBAEXZ 
?getCommonDirection@BillboardParticleRenderer@Ogre@@QEBAAEBVVector3@2@XZ 
?getCommonDirection@BillboardSet@Ogre@@UEBAAEBVVector3@2@XZ 
?getCommonUpVector@BillboardParticleRenderer@Ogre@@QEBAAEBVVector3@2@XZ 
?getCommonUpVector@BillboardSet@Ogre@@UEBAAEBVVector3@2@XZ 
?getCompareFunction@ScriptTranslator@Ogre@@KA_NAEBV?$SharedPtr@VAbstractNode@Ogre@@@2@PEAW4CompareFunction@2@@Z 
?getCompilationRequired@Material@Ogre@@QEBA_NXZ 
?getComponentCount@PixelUtil@Ogre@@SA_KW4PixelFormat@2@@Z 
?getComponentType@PixelUtil@Ogre@@SA?AW4PixelComponentType@2@W4PixelFormat@2@@Z 
?getCompositorManager2@Root@Ogre@@QEBAPEAVCompositorManager2@2@XZ 
?getCompositorManager@CompositorNodeDef@Ogre@@QEBAPEAVCompositorManager2@2@XZ 
?getCompositorManager@CompositorWorkspace@Ogre@@QEAAPEAVCompositorManager2@2@XZ 
?getCompositorManager@CompositorWorkspace@Ogre@@QEBAPEBVCompositorManager2@2@XZ 
?getCompositorPassProvider@CompositorManager2@Ogre@@QEBAPEAVCompositorPassProvider@2@XZ 
?getCompositorPasses@CompositorTargetDef@Ogre@@QEBAAEBV?$vector@PEAVCompositorPassDef@Ogre@@V?$STLAllocator@PEAVCompositorPassDef@Ogre@@V?$CategorisedAllocPolicy@$0A@@2@@2@@std@@XZ 
?getCompositorPassesNonConst@CompositorTargetDef@Ogre@@QEAAAEAV?$vector@PEAVCompositorPassDef@Ogre@@V?$STLAllocator@PEAVCompositorPassDef@Ogre@@V?$CategorisedAllocPolicy@$0A@@2@@2@@std@@XZ 
?getComputeGroupDimensions@GpuProgram@Ogre@@UEBA?AVVector3@2@XZ 
?getComputeProgram@Pass@Ogre@@QEBAAEBV?$SharedPtr@VGpuProgram@Ogre@@@2@XZ 
?getComputeProgramConstantBoolCount@RenderSystemCapabilities@Ogre@@QEBAGXZ 
?getComputeProgramConstantFloatCount@RenderSystemCapabilities@Ogre@@QEBAGXZ 
?getComputeProgramConstantIntCount@RenderSystemCapabilities@Ogre@@QEBAGXZ 
?getComputeProgramName@Pass@Ogre@@QEBAAEBV?$basic_string@DU?$char_traits@D@std@@V?$allocator@D@2@@std@@XZ 
?getComputeProgramParameters@Pass@Ogre@@QEBA?AV?$SharedPtr@VGpuProgramParameters@Ogre@@@2@XZ 
?getConfigFilePath@FileSystemLayer@Ogre@@QEBA?BV?$basic_string@DU?$char_traits@D@std@@V?$allocator@D@2@@std@@V34@@Z 
?getConfigPaths@FileSystemLayer@Ogre@@AEAAXXZ 
?getConsecutiveSize@PixelBox@Ogre@@QEBA_KXZ 
?getConstantDefinition@GpuProgramParameters@Ogre@@QEBAAEBUGpuConstantDefinition@2@AEBV?$basic_string@DU?$char_traits@D@std@@V?$allocator@D@2@@std@@@Z 
?getConstantDefinition@GpuSharedParameters@Ogre@@QEBAAEBUGpuConstantDefinition@2@AEBV?$basic_string@DU?$char_traits@D@std@@V?$allocator@D@2@@std@@@Z 
?getConstantDefinitionIterator@GpuProgramParameters@Ogre@@QEBA?AV?$ConstMapIterator@V?$map@V?$basic_string@DU?$char_traits@D@std@@V?$allocator@D@2@@std@@UGpuConstantDefinition@Ogre@@U?$less@V?$basic_string@DU?$char_traits@D@std@@V?$allocator@D@2@@std@@@2@V?$STLAllocator@U?$pair@$$CBV?$basic_string@DU?$char_traits@D@std@@V?$allocator@D@2@@std@@UGpuConstantDefinition@Ogre@@@std@@V?$CategorisedAllocPolicy@$0A@@Ogre@@@4@@std@@@2@XZ 
?getConstantDefinitionIterator@GpuSharedParameters@Ogre@@QEBA?AV?$ConstMapIterator@V?$map@V?$basic_string@DU?$char_traits@D@std@@V?$allocator@D@2@@std@@UGpuConstantDefinition@Ogre@@U?$less@V?$basic_string@DU?$char_traits@D@std@@V?$allocator@D@2@@std@@@2@V?$STLAllocator@U?$pair@$$CBV?$basic_string@DU?$char_traits@D@std@@V?$allocator@D@2@@std@@UGpuConstantDefinition@Ogre@@@std@@V?$CategorisedAllocPolicy@$0A@@Ogre@@@4@@std@@@2@XZ 
?getConstantDefinitions@GpuProgram@Ogre@@UEBAAEBUGpuNamedConstants@2@XZ 
?getConstantDefinitions@GpuProgramParameters@Ogre@@QEBAAEBUGpuNamedConstants@2@XZ 
?getConstantDefinitions@GpuSharedParameters@Ogre@@QEBAAEBUGpuNamedConstants@2@XZ 
?getConstantDefinitions@HighLevelGpuProgram@Ogre@@UEBAAEBUGpuNamedConstants@2@XZ 
?getConstantType@ScriptTranslator@Ogre@@KA_NV?$_List_const_iterator@V?$_List_val@V?$SharedPtr@VAbstractNode@Ogre@@@Ogre@@V?$STLAllocator@V?$SharedPtr@VAbstractNode@Ogre@@@Ogre@@V?$CategorisedAllocPolicy@$0A@@2@@2@@std@@@std@@PEAW4GpuConstantType@2@@Z 
?getContainer@Animation@Ogre@@QEAAPEAVAnimationContainer@2@XZ 
?getContentType@TextureUnitState@Ogre@@QEBA?AW4ContentType@12@XZ 
?getControlPointBuffer@PatchSurface@Ogre@@QEBAPEAXXZ 
?getCorner@AxisAlignedBox@Ogre@@QEBA?AVVector3@2@W4CornerEnum@12@@Z 
?getCosTime_0_1@AutoParamDataSource@Ogre@@QEBAMM@Z 
?getCosTime_0_2Pi@AutoParamDataSource@Ogre@@QEBAMM@Z 
?getCosTime_0_X@AutoParamDataSource@Ogre@@QEBAMM@Z 
?getCpuFeatures@PlatformInformation@Ogre@@SAIXZ 
?getCpuIdentifier@PlatformInformation@Ogre@@SAAEBV?$basic_string@DU?$char_traits@D@std@@V?$allocator@D@2@@std@@XZ 
?getCreator@Resource@Ogre@@UEAAPEAVResourceManager@2@XZ 
?getCreator@SceneNode@Ogre@@QEBAPEAVSceneManager@2@XZ 
?getCullIndividually@BillboardSet@Ogre@@UEBA_NXZ 
?getCullIndividually@ParticleSystem@Ogre@@UEBA_NXZ 
?getCullingFrustum@Camera@Ogre@@QEBAPEAVFrustum@2@XZ 
?getCullingMode@Pass@Ogre@@QEBA?AW4CullingMode@2@XZ 
?getCurrentCamera@AutoParamDataSource@Ogre@@QEBAPEBVCamera@2@XZ 
?getCurrentCastersBox@SceneManager@Ogre@@QEBAAEBVAxisAlignedBox@2@XZ 
?getCurrentChunk@StreamSerialiser@Ogre@@UEBAPEBUChunk@12@XZ 
?getCurrentChunkDepth@StreamSerialiser@Ogre@@QEBA_KXZ 
?getCurrentChunkID@StreamSerialiser@Ogre@@QEBAIXZ 
?getCurrentFrame@SkeletonAnimation@Ogre@@QEBAMXZ 
?getCurrentFrame@TextureUnitState@Ogre@@QEBAIXZ 
?getCurrentIndexCount@ManualObject@Ogre@@UEBA_KXZ 
?getCurrentIndexCount@PatchSurface@Ogre@@QEBA_KXZ 
?getCurrentLock@HardwarePixelBuffer@Ogre@@QEAAAEBVPixelBox@2@XZ 
?getCurrentMaterialLod@MovableObject@Ogre@@QEBAAEBV?$FastArray@E@2@XZ 
?getCurrentPass@AutoParamDataSource@Ogre@@QEBAPEBVPass@2@XZ 
?getCurrentPlugIn@ExternalTextureSourceManager@Ogre@@QEBAPEAVExternalTextureSource@2@XZ 
?getCurrentPtr@MemoryDataStream@Ogre@@QEAAPEAEXZ 
?getCurrentRenderTarget@AutoParamDataSource@Ogre@@QEBAPEBVRenderTarget@2@XZ 
?getCurrentRenderable@AutoParamDataSource@Ogre@@QEBAPEBVRenderable@2@XZ 
?getCurrentTechnique@MaterialBucket@StaticGeometry@Ogre@@QEBAPEAVTechnique@3@XZ 
?getCurrentTime@SkeletonAnimation@Ogre@@QEBAMXZ 
?getCurrentVertexCount@ManualObject@Ogre@@UEBA_KXZ 
?getCurrentViewport@SceneManager@Ogre@@QEBAPEAVViewport@2@XZ 
?getCustomAttribute@RenderSystem@Ogre@@UEAAXAEBV?$basic_string@DU?$char_traits@D@std@@V?$allocator@D@2@@std@@PEAX@Z 
?getCustomAttribute@RenderTarget@Ogre@@UEAAXAEBV?$basic_string@DU?$char_traits@D@std@@V?$allocator@D@2@@std@@PEAX@Z 
?getCustomAttribute@Texture@Ogre@@UEAAXAEBV?$basic_string@DU?$char_traits@D@std@@V?$allocator@D@2@@std@@PEAX@Z 
?getCustomParam@InstancedEntity@Ogre@@QEAAAEBVVector4@2@E@Z 
?getCustomParameter@Light@Ogre@@QEBAAEBVVector4@2@G@Z 
?getCustomParameter@Renderable@Ogre@@QEBAAEBVVector4@2@_K@Z 
?getCustomWorldSpaceCorners@Frustum@Ogre@@QEBAXQEAVArrayVector3@2@M@Z 
?getData@Image@Ogre@@QEAAPEAEXZ 
?getData@Image@Ogre@@QEBAPEBEXZ 
?getData@Request@WorkQueue@Ogre@@QEBAAEBVAny@3@XZ 
?getData@Response@WorkQueue@Ogre@@QEBAAEBVAny@3@XZ 
?getDataType@ImageCodec@Ogre@@UEBA?AV?$basic_string@DU?$char_traits@D@std@@V?$allocator@D@2@@std@@XZ 
?getDebugRenderable@Node@Ogre@@UEAAPEAVDebugRenderable@12@M@Z 
?getDebugRenderable@OldNode@Ogre@@UEAAPEAVDebugRenderable@12@M@Z 
?getDefaultAnisotropy@MaterialManager@Ogre@@QEBAIXZ 
?getDefaultCamera@CompositorWorkspace@Ogre@@QEBAPEAVCamera@2@XZ 
?getDefaultHeight@BillboardSet@Ogre@@UEBAMXZ 
?getDefaultHeight@ParticleSystem@Ogre@@UEBAMXZ 
?getDefaultInterpolationMode@Animation@Ogre@@SA?AW4InterpolationMode@12@XZ 
?getDefaultIterationInterval@ParticleSystem@Ogre@@SAMXZ 
?getDefaultLog@LogManager@Ogre@@QEAAPEAVLog@2@XZ 
?getDefaultMinPixelSize@Root@Ogre@@QEAAMXZ 
?getDefaultNonVisibleUpdateTimeout@ParticleSystem@Ogre@@SAMXZ 
?getDefaultNumMipmaps@TextureManager@Ogre@@UEAA_KXZ 
?getDefaultOrientationMode@Viewport@Ogre@@SA?AW4OrientationMode@2@XZ 
?getDefaultParameters@GpuProgram@Ogre@@UEAA?AV?$SharedPtr@VGpuProgramParameters@Ogre@@@2@XZ 
?getDefaultParameters@UnifiedHighLevelGpuProgram@Ogre@@UEAA?AV?$SharedPtr@VGpuProgramParameters@Ogre@@@2@XZ 
?getDefaultQueryFlags@MovableObject@Ogre@@SAIXZ 
?getDefaultQueueGroup@RenderQueue@Ogre@@QEBAEXZ 
?getDefaultRenderablePriority@RenderQueue@Ogre@@QEBAGXZ 
?getDefaultRotationInterpolationMode@Animation@Ogre@@SA?AW4RotationInterpolationMode@12@XZ 
?getDefaultSettings@MaterialManager@Ogre@@UEBA?AV?$SharedPtr@VMaterial@Ogre@@@2@XZ 
?getDefaultStrategy@LodStrategyManager@Ogre@@QEAAPEAVLodStrategy@2@XZ 
?getDefaultStringLocale@StringConverter@Ogre@@SA?AV?$basic_string@DU?$char_traits@D@std@@V?$allocator@D@2@@std@@XZ 
?getDefaultTextureFiltering@MaterialManager@Ogre@@UEBA?AW4FilterOptions@2@W4FilterType@2@@Z 
?getDefaultVisibilityFlags@MovableObject@Ogre@@SAIXZ 
?getDefaultWidth@BillboardSet@Ogre@@UEBAMXZ 
?getDefaultWidth@ParticleSystem@Ogre@@UEBAMXZ 
?getDefinedTexture@CompositorNode@Ogre@@QEBA?AV?$SharedPtr@VTexture@Ogre@@@2@UIdString@2@_K@Z 
?getDefinition@CompositorNode@Ogre@@QEBAPEBVCompositorNodeDef@2@XZ 
?getDefinition@CompositorPass@Ogre@@QEBAPEBVCompositorPassDef@2@XZ 
?getDefinition@CompositorPassScene@Ogre@@QEBAPEBVCompositorPassSceneDef@2@XZ 
?getDefinition@SkeletonAnimation@Ogre@@QEBAPEBVSkeletonAnimationDef@2@XZ 
?getDefinition@SkeletonInstance@Ogre@@QEBAPEBVSkeletonDef@2@XZ 
?getDefinitionName@CompositorWorkspace@Ogre@@QEBA?BUIdString@2@XZ 
?getDepth@HardwarePixelBuffer@Ogre@@QEBAIXZ 
?getDepth@Image@Ogre@@QEBAIXZ 
?getDepth@Texture@Ogre@@UEBAIXZ 
?getDepthBiasConstant@Pass@Ogre@@QEBAMXZ 
?getDepthBiasSlopeScale@Pass@Ogre@@QEBAMXZ 
?getDepthBuffer@RenderTarget@Ogre@@QEBAPEAVDepthBuffer@2@XZ 
?getDepthBufferPool@RenderTarget@Ogre@@QEBAGXZ 
?getDepthCheckEnabled@Pass@Ogre@@QEBA_NXZ 
?getDepthFunction@Pass@Ogre@@QEBA?AW4CompareFunction@2@XZ 
?getDepthLevel@Bone@Ogre@@QEBAGXZ 
?getDepthLevel@Node@Ogre@@QEBAGXZ 
?getDepthLevelInfo@SkeletonDef@Ogre@@QEBAAEBV?$vector@UDepthLevelInfo@SkeletonDef@Ogre@@V?$STLAllocator@UDepthLevelInfo@SkeletonDef@Ogre@@V?$CategorisedAllocPolicy@$0A@@3@@3@@std@@XZ 
?getDepthWriteEnabled@Pass@Ogre@@QEBA_NXZ 
?getDerivedAmbientLightColour@AutoParamDataSource@Ogre@@QEBA?AVColourValue@2@XZ 
?getDerivedDirection@Camera@Ogre@@QEBA?AVVector3@2@XZ 
?getDerivedDirection@Light@Ogre@@QEBA?AVVector3@2@XZ 
?getDerivedDirectionUpdated@Light@Ogre@@QEBA?AVVector3@2@XZ 
?getDerivedOrientation@Camera@Ogre@@QEBAAEBVQuaternion@2@XZ 
?getDerivedPosition@Camera@Ogre@@QEBAAEBVVector3@2@XZ 
?getDerivedRight@Camera@Ogre@@QEBA?AVVector3@2@XZ 
?getDerivedSceneColour@AutoParamDataSource@Ogre@@QEBA?AVColourValue@2@XZ 
?getDerivedUp@Camera@Ogre@@QEBA?AVVector3@2@XZ 
?getDescription@Exception@Ogre@@UEBAAEBV?$basic_string@DU?$char_traits@D@std@@V?$allocator@D@2@@std@@XZ 
?getDesiredFloatBitDepth@Texture@Ogre@@UEBAGXZ 
?getDesiredFormat@Texture@Ogre@@UEBA?AW4PixelFormat@2@XZ 
?getDesiredFormat@TextureUnitState@Ogre@@QEBA?AW4PixelFormat@2@XZ 
?getDesiredIntegerBitDepth@Texture@Ogre@@UEBAGXZ 
?getDestBlendFactor@Pass@Ogre@@QEBA?AW4SceneBlendFactor@2@XZ 
?getDestBlendFactorAlpha@Pass@Ogre@@QEBA?AW4SceneBlendFactor@2@XZ 
?getDestinationRenderSystem@SceneManager@Ogre@@QEAAPEAVRenderSystem@2@XZ 
?getDeviceName@RenderSystemCapabilities@Ogre@@QEBA?AV?$basic_string@DU?$char_traits@D@std@@V?$allocator@D@2@@std@@XZ 
?getDictionaryStringName@ExternalTextureSource@Ogre@@QEBAAEBV?$basic_string@DU?$char_traits@D@std@@V?$allocator@D@2@@std@@XZ 
?getDiffuse@Pass@Ogre@@QEBAAEBVColourValue@2@XZ 
?getDiffuseColour@Light@Ogre@@QEBAAEBVColourValue@2@XZ 
?getDirPositionReference@ParticleEmitter@Ogre@@UEBAAEBVVector3@2@XZ 
?getDirPositionReferenceEnabled@ParticleEmitter@Ogre@@UEBA_NXZ 
?getDirection@Camera@Ogre@@QEBA?AVVector3@2@XZ 
?getDirection@Light@Ogre@@QEBA?AVVector3@2@XZ 
?getDirection@ParticleEmitter@Ogre@@UEBAAEBVVector3@2@XZ 
?getDirection@Ray@Ogre@@QEBAAEBVVector3@2@XZ 
?getDirectionalLightExtruderArbvp1@ShadowVolumeExtrudeProgram@Ogre@@SAAEBV?$basic_string@DU?$char_traits@D@std@@V?$allocator@D@2@@std@@XZ 
?getDirectionalLightExtruderArbvp1Debug@ShadowVolumeExtrudeProgram@Ogre@@SAAEBV?$basic_string@DU?$char_traits@D@std@@V?$allocator@D@2@@std@@XZ 
?getDirectionalLightExtruderArbvp1Finite@ShadowVolumeExtrudeProgram@Ogre@@SAAEBV?$basic_string@DU?$char_traits@D@std@@V?$allocator@D@2@@std@@XZ 
?getDirectionalLightExtruderArbvp1FiniteDebug@ShadowVolumeExtrudeProgram@Ogre@@SAAEBV?$basic_string@DU?$char_traits@D@std@@V?$allocator@D@2@@std@@XZ 
?getDirectionalLightExtruderVs_1_1@ShadowVolumeExtrudeProgram@Ogre@@SAAEBV?$basic_string@DU?$char_traits@D@std@@V?$allocator@D@2@@std@@XZ 
?getDirectionalLightExtruderVs_1_1Debug@ShadowVolumeExtrudeProgram@Ogre@@SAAEBV?$basic_string@DU?$char_traits@D@std@@V?$allocator@D@2@@std@@XZ 
?getDirectionalLightExtruderVs_1_1Finite@ShadowVolumeExtrudeProgram@Ogre@@SAAEBV?$basic_string@DU?$char_traits@D@std@@V?$allocator@D@2@@std@@XZ 
?getDirectionalLightExtruderVs_1_1FiniteDebug@ShadowVolumeExtrudeProgram@Ogre@@SAAEBV?$basic_string@DU?$char_traits@D@std@@V?$allocator@D@2@@std@@XZ 
?getDirectionalLightExtruderVs_4_0@ShadowVolumeExtrudeProgram@Ogre@@SAAEBV?$basic_string@DU?$char_traits@D@std@@V?$allocator@D@2@@std@@XZ 
?getDirectionalLightExtruderVs_4_0Debug@ShadowVolumeExtrudeProgram@Ogre@@SAAEBV?$basic_string@DU?$char_traits@D@std@@V?$allocator@D@2@@std@@XZ 
?getDirectionalLightExtruderVs_4_0Finite@ShadowVolumeExtrudeProgram@Ogre@@SAAEBV?$basic_string@DU?$char_traits@D@std@@V?$allocator@D@2@@std@@XZ 
?getDirectionalLightExtruderVs_4_0FiniteDebug@ShadowVolumeExtrudeProgram@Ogre@@SAAEBV?$basic_string@DU?$char_traits@D@std@@V?$allocator@D@2@@std@@XZ 
?getDirectionalLightExtruderVs_glsl@ShadowVolumeExtrudeProgram@Ogre@@SAAEBV?$basic_string@DU?$char_traits@D@std@@V?$allocator@D@2@@std@@XZ 
?getDirectionalLightExtruderVs_glslDebug@ShadowVolumeExtrudeProgram@Ogre@@SAAEBV?$basic_string@DU?$char_traits@D@std@@V?$allocator@D@2@@std@@XZ 
?getDirectionalLightExtruderVs_glslFinite@ShadowVolumeExtrudeProgram@Ogre@@SAAEBV?$basic_string@DU?$char_traits@D@std@@V?$allocator@D@2@@std@@XZ 
?getDirectionalLightExtruderVs_glslFiniteDebug@ShadowVolumeExtrudeProgram@Ogre@@SAAEBV?$basic_string@DU?$char_traits@D@std@@V?$allocator@D@2@@std@@XZ 
?getDirectionalLightExtruderVs_glsles@ShadowVolumeExtrudeProgram@Ogre@@SAAEBV?$basic_string@DU?$char_traits@D@std@@V?$allocator@D@2@@std@@XZ 
?getDirectionalLightExtruderVs_glslesDebug@ShadowVolumeExtrudeProgram@Ogre@@SAAEBV?$basic_string@DU?$char_traits@D@std@@V?$allocator@D@2@@std@@XZ 
?getDirectionalLightExtruderVs_glslesFinite@ShadowVolumeExtrudeProgram@Ogre@@SAAEBV?$basic_string@DU?$char_traits@D@std@@V?$allocator@D@2@@std@@XZ 
?getDirectionalLightExtruderVs_glslesFiniteDebug@ShadowVolumeExtrudeProgram@Ogre@@SAAEBV?$basic_string@DU?$char_traits@D@std@@V?$allocator@D@2@@std@@XZ 
?getDirtyFrameNumber@AnimationStateSet@Ogre@@QEBAKXZ 
?getDirtyHashList@Pass@Ogre@@SAAEBV?$set@PEAVPass@Ogre@@U?$less@PEAVPass@Ogre@@@std@@V?$STLAllocator@PEAVPass@Ogre@@V?$CategorisedAllocPolicy@$0A@@2@@2@@std@@XZ 
?getDisableTranslation@AnimationState@Ogre@@QEBA_NXZ 
?getDisplayMode@ProfileSessionListener@Ogre@@QEBA?AW4DisplayMode@12@XZ 
?getDisplayMonitorCount@Root@Ogre@@QEBAIXZ 
?getDisplaySceneNodes@SceneManager@Ogre@@UEBA_NXZ 
?getDisplaySkeleton@Entity@Ogre@@QEBA_NXZ 
?getDistance@Plane@Ogre@@QEBAMAEBVVector3@2@@Z 
?getDouble@ScriptTranslator@Ogre@@KA_NAEBV?$SharedPtr@VAbstractNode@Ogre@@@2@PEAN@Z 
?getDoubleConstantList@GpuProgramParameters@Ogre@@QEBAAEBV?$vector@NV?$STLAllocator@NV?$CategorisedAllocPolicy@$0A@@Ogre@@@Ogre@@@std@@XZ 
?getDoubleConstantList@GpuSharedParameters@Ogre@@QEBAAEBV?$vector@NV?$STLAllocator@NV?$CategorisedAllocPolicy@$0A@@Ogre@@@Ogre@@@std@@XZ 
?getDoubleLogicalBufferStruct@GpuProgramParameters@Ogre@@QEBAAEBV?$SharedPtr@UGpuLogicalBufferStruct@Ogre@@@2@XZ 
?getDoubleLogicalIndexForPhysicalIndex@GpuProgramParameters@Ogre@@QEAA_K_K@Z 
?getDoublePointer@GpuProgramParameters@Ogre@@QEAAPEAN_K@Z 
?getDoublePointer@GpuProgramParameters@Ogre@@QEBAPEBN_K@Z 
?getDoublePointer@GpuSharedParameters@Ogre@@QEAAPEAN_K@Z 
?getDoublePointer@GpuSharedParameters@Ogre@@QEBAPEBN_K@Z 
?getDoubles@ScriptTranslator@Ogre@@KA_NV?$_List_const_iterator@V?$_List_val@V?$SharedPtr@VAbstractNode@Ogre@@@Ogre@@V?$STLAllocator@V?$SharedPtr@VAbstractNode@Ogre@@@Ogre@@V?$CategorisedAllocPolicy@$0A@@2@@2@@std@@@std@@0PEANH@Z 
?getDrawBuffer@Viewport@Ogre@@QEBA?AW4ColourBufferType@2@XZ 
?getDriverVersion@RenderSystem@Ogre@@UEBAAEBUDriverVersion@2@XZ 
?getDriverVersion@RenderSystemCapabilities@Ogre@@QEBA?AUDriverVersion@2@XZ 
?getDuration@ParticleEmitter@Ogre@@UEBAMXZ 
?getDuration@SkeletonAnimation@Ogre@@QEBAMXZ 
?getDynamic@BillboardChain@Ogre@@UEBA_NXZ 
?getDynamic@ManualObject@Ogre@@UEBA_NXZ 
?getEdgeList@Entity@Ogre@@QEAAPEAVEdgeData@2@XZ 
?getEdgeList@LODBucket@StaticGeometry@Ogre@@QEBAPEAVEdgeData@3@XZ 
?getEdgeList@ManualObject@Ogre@@QEAAPEAVEdgeData@2@XZ 
?getEdgeList@Mesh@Ogre@@QEAAPEAVEdgeData@2@G@Z 
?getEdgeList@Mesh@Ogre@@QEBAPEBVEdgeData@2@G@Z 
?getEdgeList@Region@StaticGeometry@Ogre@@QEAAPEAVEdgeData@3@XZ 
?getEffects@TextureUnitState@Ogre@@QEBAAEBV?$multimap@W4TextureEffectType@TextureUnitState@Ogre@@UTextureEffect@23@U?$less@W4TextureEffectType@TextureUnitState@Ogre@@@std@@V?$STLAllocator@U?$pair@$$CBW4TextureEffectType@TextureUnitState@Ogre@@UTextureEffect@23@@std@@V?$CategorisedAllocPolicy@$0A@@Ogre@@@3@@std@@XZ 
?getElapsedTime@ControllerManager@Ogre@@QEBAMXZ 
?getElapsedTime@FrameTimeControllerValue@Ogre@@QEBAMXZ 
?getElement@VertexDeclaration@Ogre@@QEBAPEBVVertexElement@2@G@Z 
?getElementCount@VertexDeclaration@Ogre@@QEBA_KXZ 
?getElementSize@GpuConstantDefinition@Ogre@@SA_KW4GpuConstantType@2@_N@Z 
?getElements@VertexDeclaration@Ogre@@QEBAAEBV?$list@VVertexElement@Ogre@@V?$STLAllocator@VVertexElement@Ogre@@V?$CategorisedAllocPolicy@$0A@@2@@2@@std@@XZ 
?getEmissionRate@ParticleEmitter@Ogre@@UEBAMXZ 
?getEmissive@Pass@Ogre@@QEBAAEBVColourValue@2@XZ 
?getEmittedEmitter@ParticleEmitter@Ogre@@QEBAAEBV?$basic_string@DU?$char_traits@D@std@@V?$allocator@D@2@@std@@XZ 
?getEmittedEmitterQuota@ParticleSystem@Ogre@@QEBA_KXZ 
?getEmitter@ParticleSystem@Ogre@@QEBAPEAVParticleEmitter@2@G@Z 
?getEmitterFactoryIterator@ParticleSystemManager@Ogre@@QEAA?AV?$MapIterator@V?$map@V?$basic_string@DU?$char_traits@D@std@@V?$allocator@D@2@@std@@PEAVParticleEmitterFactory@Ogre@@U?$less@V?$basic_string@DU?$char_traits@D@std@@V?$allocator@D@2@@std@@@2@V?$STLAllocator@U?$pair@$$CBV?$basic_string@DU?$char_traits@D@std@@V?$allocator@D@2@@std@@PEAVParticleEmitterFactory@Ogre@@@std@@V?$CategorisedAllocPolicy@$0A@@Ogre@@@4@@std@@@2@XZ 
?getEmitting@ParticleSystem@Ogre@@QEBA_NXZ 
?getEmptyUserAny@UserObjectBindings@Ogre@@SAAEBVAny@2@XZ 
?getEnabled@AnimationState@Ogre@@QEBA_NXZ 
?getEnabled@CompositorNode@Ogre@@QEBA_NXZ 
?getEnabled@CompositorWorkspace@Ogre@@QEBA_NXZ 
?getEnabled@ParticleEmitter@Ogre@@UEBA_NXZ 
?getEnabled@Profiler@Ogre@@QEBA_NXZ 
?getEnabled@SkeletonAnimation@Ogre@@QEBA_NXZ 
?getEnabledAnimationStateIterator@AnimationStateSet@Ogre@@QEBA?AV?$ConstVectorIterator@V?$list@PEAVAnimationState@Ogre@@V?$STLAllocator@PEAVAnimationState@Ogre@@V?$CategorisedAllocPolicy@$0A@@2@@2@@std@@@2@XZ 
?getEndian@StreamSerialiser@Ogre@@UEBA?AW4Endian@12@XZ 
?getErrorDescription@Root@Ogre@@QEAA?AV?$basic_string@DU?$char_traits@D@std@@V?$allocator@D@2@@std@@J@Z 
?getExtensions@Codec@Ogre@@SA?AV?$vector@V?$basic_string@DU?$char_traits@D@std@@V?$allocator@D@2@@std@@V?$STLAllocator@V?$basic_string@DU?$char_traits@D@std@@V?$allocator@D@2@@std@@V?$CategorisedAllocPolicy@$0A@@Ogre@@@Ogre@@@std@@XZ 
?getExternalTextureSource@ExternalTextureSourceManager@Ogre@@QEAAPEAVExternalTextureSource@2@AEBV?$basic_string@DU?$char_traits@D@std@@V?$allocator@D@2@@std@@@Z 
?getFOV@AutoParamDataSource@Ogre@@QEBAMXZ 
?getFOVy@Frustum@Ogre@@UEBAAEBVRadian@2@XZ 
?getFPS@AutoParamDataSource@Ogre@@QEBAMXZ 
?getFPS@ExternalTextureSource@Ogre@@QEBAHXZ 
?getFSAA@RenderTarget@Ogre@@UEBAIXZ 
?getFSAA@Texture@Ogre@@UEBAIXZ 
?getFSAAHint@RenderTarget@Ogre@@UEBAAEBV?$basic_string@DU?$char_traits@D@std@@V?$allocator@D@2@@std@@XZ 
?getFSAAHint@Texture@Ogre@@UEBAAEBV?$basic_string@DU?$char_traits@D@std@@V?$allocator@D@2@@std@@XZ 
?getFactory@HighLevelGpuProgramManager@Ogre@@IEAAPEAVHighLevelGpuProgramFactory@2@AEBV?$basic_string@DU?$char_traits@D@std@@V?$allocator@D@2@@std@@@Z 
?getFarClipDistance@AutoParamDataSource@Ogre@@QEBAMXZ 
?getFarClipDistance@Camera@Ogre@@UEBAMXZ 
?getFarClipDistance@Frustum@Ogre@@UEBAMXZ 
?getFile@Exception@Ogre@@UEBAAEBV?$basic_string@DU?$char_traits@D@std@@V?$allocator@D@2@@std@@XZ 
?getFileExtFromMagic@Image@Ogre@@SA?AV?$basic_string@DU?$char_traits@D@std@@V?$allocator@D@2@@std@@V?$SharedPtr@VDataStream@Ogre@@@2@@Z 
?getFinalTarget@CompositorWorkspace@Ogre@@QEBAPEAVRenderTarget@2@XZ 
?getFindVisibleObjects@SceneManager@Ogre@@UEAA_NXZ 
?getFirstNode@BoneArrayMemoryManager@Ogre@@QEAA_KAEAUBoneTransform@2@@Z 
?getFirstNode@BoneMemoryManager@Ogre@@QEAA_KAEAUBoneTransform@2@_K@Z 
?getFirstNode@NodeArrayMemoryManager@Ogre@@QEAA_KAEAUTransform@2@@Z 
?getFirstNode@ObjectDataArrayMemoryManager@Ogre@@QEAA_KAEAUObjectData@2@@Z 
?getFirstObjectData@ObjectMemoryManager@Ogre@@QEAA_KAEAUObjectData@2@_K@Z 
?getFixedPipelineEnabled@RenderSystem@Ogre@@QEBA_NXZ 
?getFlags@PixelUtil@Ogre@@SAIW4PixelFormat@2@@Z 
?getFlipCullingOnNegativeScale@SceneManager@Ogre@@UEBA_NXZ 
?getFloat@ScriptTranslator@Ogre@@KA_NAEBV?$SharedPtr@VAbstractNode@Ogre@@@2@PEAM@Z 
?getFloatConstantList@GpuProgramParameters@Ogre@@QEBAAEBV?$vector@MV?$STLAllocator@MV?$CategorisedAllocPolicy@$0A@@Ogre@@@Ogre@@@std@@XZ 
?getFloatConstantList@GpuSharedParameters@Ogre@@QEBAAEBV?$vector@MV?$STLAllocator@MV?$CategorisedAllocPolicy@$0A@@Ogre@@@Ogre@@@std@@XZ 
?getFloatLogicalBufferStruct@GpuProgramParameters@Ogre@@QEBAAEBV?$SharedPtr@UGpuLogicalBufferStruct@Ogre@@@2@XZ 
?getFloatLogicalIndexForPhysicalIndex@GpuProgramParameters@Ogre@@QEAA_K_K@Z 
?getFloatPointer@GpuProgramParameters@Ogre@@QEAAPEAM_K@Z 
?getFloatPointer@GpuProgramParameters@Ogre@@QEBAPEBM_K@Z 
?getFloatPointer@GpuSharedParameters@Ogre@@QEAAPEAM_K@Z 
?getFloatPointer@GpuSharedParameters@Ogre@@QEBAPEBM_K@Z 
?getFloats@ScriptTranslator@Ogre@@KA_NV?$_List_const_iterator@V?$_List_val@V?$SharedPtr@VAbstractNode@Ogre@@@Ogre@@V?$STLAllocator@V?$SharedPtr@VAbstractNode@Ogre@@@Ogre@@V?$CategorisedAllocPolicy@$0A@@2@@2@@std@@@std@@0PEAMH@Z 
?getFocalLength@Frustum@Ogre@@UEBAMXZ 
?getFogColour@AutoParamDataSource@Ogre@@QEBAAEBVColourValue@2@XZ 
?getFogColour@Pass@Ogre@@QEBAAEBVColourValue@2@XZ 
?getFogColour@SceneManager@Ogre@@UEBAAEBVColourValue@2@XZ 
?getFogDensity@Pass@Ogre@@QEBAMXZ 
?getFogDensity@SceneManager@Ogre@@UEBAMXZ 
?getFogEnd@Pass@Ogre@@QEBAMXZ 
?getFogEnd@SceneManager@Ogre@@UEBAMXZ 
?getFogMode@Pass@Ogre@@QEBA?AW4FogMode@2@XZ 
?getFogMode@SceneManager@Ogre@@UEBA?AW4FogMode@2@XZ 
?getFogOverride@Pass@Ogre@@QEBA_NXZ 
?getFogParams@AutoParamDataSource@Ogre@@QEBAAEBVVector4@2@XZ 
?getFogStart@Pass@Ogre@@QEBAMXZ 
?getFogStart@SceneManager@Ogre@@UEBAMXZ 
?getFormat@HardwarePixelBuffer@Ogre@@QEBA?AW4PixelFormat@2@XZ 
?getFormat@Image@Ogre@@QEBA?AW4PixelFormat@2@XZ 
?getFormat@Texture@Ogre@@UEBA?AW4PixelFormat@2@XZ 
?getFormatForBitDepths@PixelUtil@Ogre@@SA?AW4PixelFormat@2@W432@GG@Z 
?getFormatFromName@PixelUtil@Ogre@@SA?AW4PixelFormat@2@AEBV?$basic_string@DU?$char_traits@D@std@@V?$allocator@D@2@@std@@_N1@Z 
?getFormatName@PixelUtil@Ogre@@SA?AV?$basic_string@DU?$char_traits@D@std@@V?$allocator@D@2@@std@@W4PixelFormat@2@@Z 
?getFps@FrameStats@Ogre@@QEBAMXZ 
?getFragmentProgram@Pass@Ogre@@QEBAAEBV?$SharedPtr@VGpuProgram@Ogre@@@2@XZ 
?getFragmentProgramConstantBoolCount@RenderSystemCapabilities@Ogre@@QEBAGXZ 
?getFragmentProgramConstantFloatCount@RenderSystemCapabilities@Ogre@@QEBAGXZ 
?getFragmentProgramConstantIntCount@RenderSystemCapabilities@Ogre@@QEBAGXZ 
?getFragmentProgramName@Pass@Ogre@@QEBAAEBV?$basic_string@DU?$char_traits@D@std@@V?$allocator@D@2@@std@@XZ 
?getFragmentProgramParameters@Pass@Ogre@@QEBA?AV?$SharedPtr@VGpuProgramParameters@Ogre@@@2@XZ 
?getFrameCount@CompositorManager2@Ogre@@QEBA_KXZ 
?getFrameCount@CompositorWorkspace@Ogre@@QEBA_KXZ 
?getFrameDelay@ControllerManager@Ogre@@QEBAMXZ 
?getFrameDelay@FrameTimeControllerValue@Ogre@@QEBAMXZ 
?getFrameLastUpdated@GpuSharedParameters@Ogre@@QEBA_KXZ 
?getFrameSmoothingPeriod@Root@Ogre@@QEBAMXZ 
?getFrameStats@Root@Ogre@@QEBAPEBVFrameStats@2@XZ 
?getFrameTextureName@TextureUnitState@Ogre@@QEBAAEBV?$basic_string@DU?$char_traits@D@std@@V?$allocator@D@2@@std@@I@Z 
?getFrameTime@AutoParamDataSource@Ogre@@QEBAMXZ 
?getFrameTimeSource@ControllerManager@Ogre@@QEBAAEBV?$SharedPtr@V?$ControllerValue@M@Ogre@@@2@XZ 
?getFreeBatch@InstanceManager@Ogre@@AEAAPEAVInstanceBatch@2@AEBV?$basic_string@DU?$char_traits@D@std@@V?$allocator@D@2@@std@@W4SceneMemoryMgrTypes@2@@Z 
?getFreeMemory@ArrayMemoryManager@Ogre@@QEBA_KXZ 
?getFreqUpdatedBuffersUploadOption@Root@Ogre@@QEBA?AW4UploadOptions@HardwareBuffer@2@XZ 
?getFrustumExtents@Frustum@Ogre@@UEBAXAEAM000@Z 
?getFrustumOffset@Frustum@Ogre@@UEBAAEBVVector2@2@XZ 
?getFrustumPlane@Camera@Ogre@@UEBAAEBVPlane@2@G@Z 
?getFrustumPlane@Frustum@Ogre@@UEBAAEBVPlane@2@G@Z 
?getFrustumPlanes@Frustum@Ogre@@UEBAPEBVPlane@2@XZ 
?getFsaa@DepthBuffer@Ogre@@UEBAIXZ 
?getFsaaHint@DepthBuffer@Ogre@@UEBAAEBV?$basic_string@DU?$char_traits@D@std@@V?$allocator@D@2@@std@@XZ 
?getFullDescription@Exception@Ogre@@UEBAAEBV?$basic_string@DU?$char_traits@D@std@@V?$allocator@D@2@@std@@XZ 
?getFullDescription@RenderingAPIException@Ogre@@UEBAAEBV?$basic_string@DU?$char_traits@D@std@@V?$allocator@D@2@@std@@XZ 
?getGPUDeviceNameRuleIterator@Technique@Ogre@@QEBA?AV?$ConstVectorIterator@V?$vector@UGPUDeviceNameRule@Technique@Ogre@@V?$STLAllocator@UGPUDeviceNameRule@Technique@Ogre@@V?$CategorisedAllocPolicy@$0A@@3@@3@@std@@@2@XZ 
?getGPUVendorRuleIterator@Technique@Ogre@@QEBA?AV?$ConstVectorIterator@V?$vector@UGPUVendorRule@Technique@Ogre@@V?$STLAllocator@UGPUVendorRule@Technique@Ogre@@V?$CategorisedAllocPolicy@$0A@@3@@3@@std@@@2@XZ 
?getGamma@Texture@Ogre@@UEBAMXZ 
?getGamma@TextureUnitState@Ogre@@QEBAMXZ 
?getGenerateAllConstantDefinitionArrayEntries@GpuNamedConstants@Ogre@@SA_NXZ 
?getGeometryFormatString@MaterialBucket@StaticGeometry@Ogre@@IEAA?AV?$basic_string@DU?$char_traits@D@std@@V?$allocator@D@2@@std@@PEAUSubMeshLodGeometryLink@23@@Z 
?getGeometryIterator@MaterialBucket@StaticGeometry@Ogre@@QEAA?AV?$VectorIterator@V?$vector@PEAVGeometryBucket@StaticGeometry@Ogre@@V?$STLAllocator@PEAVGeometryBucket@StaticGeometry@Ogre@@V?$CategorisedAllocPolicy@$0A@@3@@3@@std@@@3@XZ 
?getGeometryProgram@Pass@Ogre@@QEBAAEBV?$SharedPtr@VGpuProgram@Ogre@@@2@XZ 
?getGeometryProgramConstantBoolCount@RenderSystemCapabilities@Ogre@@QEBAGXZ 
?getGeometryProgramConstantFloatCount@RenderSystemCapabilities@Ogre@@QEBAGXZ 
?getGeometryProgramConstantIntCount@RenderSystemCapabilities@Ogre@@QEBAGXZ 
?getGeometryProgramName@Pass@Ogre@@QEBAAEBV?$basic_string@DU?$char_traits@D@std@@V?$allocator@D@2@@std@@XZ 
?getGeometryProgramNumOutputVertices@RenderSystemCapabilities@Ogre@@QEBAHXZ 
?getGeometryProgramParameters@Pass@Ogre@@QEBA?AV?$SharedPtr@VGpuProgramParameters@Ogre@@@2@XZ 
?getGlobalInstanceVertexBuffer@RenderSystem@Ogre@@QEBA?AVHardwareVertexBufferSharedPtr@2@XZ 
?getGlobalInstanceVertexBufferVertexDeclaration@RenderSystem@Ogre@@QEBAPEAVVertexDeclaration@2@XZ 
?getGlobalLightList@SceneManager@Ogre@@QEBAAEBULightListInfo@2@XZ 
?getGlobalNumberOfInstances@RenderSystem@Ogre@@QEBA_KXZ 
?getGlobalTexture@CompositorWorkspace@Ogre@@QEBAAEBUCompositorChannel@2@UIdString@2@@Z 
?getGroup@OldSkeletonInstance@Ogre@@UEBAAEBV?$basic_string@DU?$char_traits@D@std@@V?$allocator@D@2@@std@@XZ 
?getGroup@Resource@Ogre@@UEBAAEBV?$basic_string@DU?$char_traits@D@std@@V?$allocator@D@2@@std@@XZ 
?getHSB@ColourValue@Ogre@@QEBAXPEAM00@Z 
?getHalfSize@AxisAlignedBox@Ogre@@QEBA?AVVector3@2@XZ 
?getHandle@AnimationTrack@Ogre@@QEBAGXZ 
?getHandle@OldBone@Ogre@@QEBAGXZ 
?getHandle@OldSkeletonInstance@Ogre@@UEBA_KXZ 
?getHandle@Resource@Ogre@@UEBA_KXZ 
?getHandler@RequestHandlerHolder@DefaultWorkQueueBase@Ogre@@QEAAPEAVRequestHandler@WorkQueue@3@XZ 
?getHasAlpha@Image@Ogre@@QEBA_NXZ 
?getHasInstanceData@VertexBufferBinding@Ogre@@UEBA_NXZ 
?getHash@Pass@Ogre@@QEBAIXZ 
?getHashFunction@Pass@Ogre@@SAPEAUHashFunc@12@XZ 
?getHeight@DepthBuffer@Ogre@@UEBAIXZ 
?getHeight@HardwarePixelBuffer@Ogre@@QEBAIXZ 
?getHeight@Image@Ogre@@QEBAIXZ 
?getHeight@RenderTarget@Ogre@@UEBAIXZ 
?getHeight@Texture@Ogre@@UEBAIXZ 
?getHeight@Viewport@Ogre@@QEBAMXZ 
?getHex@ScriptTranslator@Ogre@@KA_NAEBV?$SharedPtr@VAbstractNode@Ogre@@@2@PEAI@Z 
?getHits@VertexCacheProfiler@Ogre@@QEAAIXZ 
?getHlmsCasterHash@Renderable@Ogre@@QEBAIXZ 
?getHlmsHash@Renderable@Ogre@@QEBAIXZ 
?getID@Region@StaticGeometry@Ogre@@QEBAIXZ 
?getID@Request@WorkQueue@Ogre@@QEBA_KXZ 
?getId@IdObject@Ogre@@QEBAIXZ 
?getIdString@ScriptTranslator@Ogre@@KA_NAEBV?$SharedPtr@VAbstractNode@Ogre@@@2@PEAUIdString@2@@Z 
?getIgnoreHidden@FileSystemArchive@Ogre@@SA_NXZ 
?getIlluminationPassIterator@Technique@Ogre@@QEAA?BV?$VectorIterator@V?$vector@PEAUIlluminationPass@Ogre@@V?$STLAllocator@PEAUIlluminationPass@Ogre@@V?$CategorisedAllocPolicy@$0A@@2@@2@@std@@@2@XZ 
?getIlluminationStage@Pass@Ogre@@QEBA?AW4IlluminationStage@2@XZ 
?getImplementation@OptimisedUtil@Ogre@@SAPEAV12@XZ 
?getIncludesNormals@Pose@Ogre@@QEBA_NXZ 
?getIndex@LodStrategy@Ogre@@SAGMAEBV?$FastArray@M@2@@Z 
?getIndex@LodStrategy@Ogre@@SAGMAEBV?$vector@UMeshLodUsage@Ogre@@V?$STLAllocator@UMeshLodUsage@Ogre@@V?$CategorisedAllocPolicy@$0A@@2@@2@@std@@@Z 
?getIndex@Pass@Ogre@@QEBAGXZ 
?getIndex@VertexElement@Ogre@@QEBAGXZ 
?getIndexBufferUsage@Mesh@Ogre@@QEBA?AW4Usage@HardwareBuffer@2@XZ 
?getIndexData@GeometryBucket@StaticGeometry@Ogre@@QEBAPEBVIndexData@3@XZ 
?getIndexDataEndIndex@SubEntity@Ogre@@QEBA_KXZ 
?getIndexDataStartIndex@SubEntity@Ogre@@QEBA_KXZ 
?getIndexOffset@PatchSurface@Ogre@@QEBA_KXZ 
?getIndexSize@HardwareIndexBuffer@Ogre@@QEBA_KXZ 
?getInheritOrientation@Bone@Ogre@@QEBA_NXZ 
?getInheritOrientation@Node@Ogre@@QEBA_NXZ 
?getInheritOrientation@OldNode@Ogre@@UEBA_NXZ 
?getInheritScale@Bone@Ogre@@QEBA_NXZ 
?getInheritScale@Node@Ogre@@QEBA_NXZ 
?getInheritScale@OldNode@Ogre@@UEBA_NXZ 
?getInitialColour@RibbonTrail@Ogre@@UEBAAEBVColourValue@2@_K@Z 
?getInitialOrientation@OldNode@Ogre@@UEBAAEBVQuaternion@2@XZ 
?getInitialPosition@OldNode@Ogre@@UEBAAEBVVector3@2@XZ 
?getInitialScale@OldNode@Ogre@@UEBAAEBVVector3@2@XZ 
?getInitialState@NodeAnimationTrack@Ogre@@QEAAXPEAVVector3@2@PEAVQuaternion@2@0@Z 
?getInitialWidth@RibbonTrail@Ogre@@UEBAM_K@Z 
?getInputChannel@CompositorNode@Ogre@@QEBAAEBV?$vector@UCompositorChannel@Ogre@@V?$STLAllocator@UCompositorChannel@Ogre@@V?$CategorisedAllocPolicy@$0A@@2@@2@@std@@XZ 
?getInputName@ExternalTextureSource@Ogre@@QEBAAEBV?$basic_string@DU?$char_traits@D@std@@V?$allocator@D@2@@std@@XZ 
?getInstalledPlugins@Root@Ogre@@QEBAAEBV?$vector@PEAVPlugin@Ogre@@V?$STLAllocator@PEAVPlugin@Ogre@@V?$CategorisedAllocPolicy@$0A@@2@@2@@std@@XZ 
?getInstanceBatchIterator@InstanceManager@Ogre@@QEBA?AV?$ConstVectorIterator@V?$vector@PEAVInstanceBatch@Ogre@@V?$STLAllocator@PEAVInstanceBatch@Ogre@@V?$CategorisedAllocPolicy@$0A@@2@@2@@std@@@2@AEBV?$basic_string@DU?$char_traits@D@std@@V?$allocator@D@2@@std@@W4SceneMemoryMgrTypes@2@@Z 
?getInstanceBatchMapIterator@InstanceManager@Ogre@@QEBA?AV?$ConstMapIterator@V?$map@UIdString@Ogre@@V?$vector@PEAVInstanceBatch@Ogre@@V?$STLAllocator@PEAVInstanceBatch@Ogre@@V?$CategorisedAllocPolicy@$0A@@2@@2@@std@@U?$less@UIdString@Ogre@@@4@V?$STLAllocator@U?$pair@$$CBUIdString@Ogre@@V?$vector@PEAVInstanceBatch@Ogre@@V?$STLAllocator@PEAVInstanceBatch@Ogre@@V?$CategorisedAllocPolicy@$0A@@2@@2@@std@@@std@@V?$CategorisedAllocPolicy@$0A@@Ogre@@@2@@std@@@2@XZ 
?getInstanceDataStepRate@HardwareVertexBuffer@Ogre@@QEBA_KXZ 
?getInstanceManager@SceneManager@Ogre@@UEBAPEAVInstanceManager@2@UIdString@2@@Z 
?getInstancedEntitiesInUse@InstanceBatch@Ogre@@QEAAXAEAV?$vector@PEAVInstancedEntity@Ogre@@V?$STLAllocator@PEAVInstancedEntity@Ogre@@V?$CategorisedAllocPolicy@$0A@@2@@2@@std@@AEAV?$vector@VVector4@Ogre@@V?$STLAllocator@VVector4@Ogre@@V?$CategorisedAllocPolicy@$0A@@2@@2@@4@@Z 
?getInstancingTechnique@InstanceManager@Ogre@@QEBA?AW4InstancingTechnique@12@XZ 
?getInstancingThreadedCullingMethod@SceneManager@Ogre@@QEBA?AW4InstancingThreadedCullingMethod@2@XZ 
?getInt@ScriptTranslator@Ogre@@KA_NAEBV?$SharedPtr@VAbstractNode@Ogre@@@2@PEAH@Z 
?getIntConstantList@GpuProgramParameters@Ogre@@QEBAAEBV?$vector@HV?$STLAllocator@HV?$CategorisedAllocPolicy@$0A@@Ogre@@@Ogre@@@std@@XZ 
?getIntConstantList@GpuSharedParameters@Ogre@@QEBAAEBV?$vector@HV?$STLAllocator@HV?$CategorisedAllocPolicy@$0A@@Ogre@@@Ogre@@@std@@XZ 
?getIntLogicalBufferStruct@GpuProgramParameters@Ogre@@QEBAAEBV?$SharedPtr@UGpuLogicalBufferStruct@Ogre@@@2@XZ 
?getIntLogicalIndexForPhysicalIndex@GpuProgramParameters@Ogre@@QEAA_K_K@Z 
?getIntPointer@GpuProgramParameters@Ogre@@QEAAPEAH_K@Z 
?getIntPointer@GpuProgramParameters@Ogre@@QEBAPEBH_K@Z 
?getIntPointer@GpuSharedParameters@Ogre@@QEAAPEAH_K@Z 
?getIntPointer@GpuSharedParameters@Ogre@@QEBAPEBH_K@Z 
?getInterpolatedKeyFrame@NodeAnimationTrack@Ogre@@UEBAXAEBVTimeIndex@2@PEAVKeyFrame@2@@Z 
?getInterpolatedKeyFrame@NumericAnimationTrack@Ogre@@UEBAXAEBVTimeIndex@2@PEAVKeyFrame@2@@Z 
?getInterpolatedKeyFrame@OldNodeAnimationTrack@Ogre@@UEBAXAEBVTimeIndex@2@PEAVKeyFrame@2@@Z 
?getInterpolatedKeyFrame@VertexAnimationTrack@Ogre@@UEBAXAEBVTimeIndex@2@PEAVKeyFrame@2@@Z 
?getInterpolationMode@Animation@Ogre@@QEBA?AW4InterpolationMode@12@XZ 
?getInts@ScriptTranslator@Ogre@@KA_NV?$_List_const_iterator@V?$_List_val@V?$SharedPtr@VAbstractNode@Ogre@@@Ogre@@V?$STLAllocator@V?$SharedPtr@VAbstractNode@Ogre@@@Ogre@@V?$CategorisedAllocPolicy@$0A@@2@@2@@std@@@std@@0PEAHH@Z 
?getInverseProjectionMatrix@AutoParamDataSource@Ogre@@QEBA?AVMatrix4@2@XZ 
?getInverseTextureSize@AutoParamDataSource@Ogre@@QEBA?AVVector4@2@_K@Z 
?getInverseTransposeProjectionMatrix@AutoParamDataSource@Ogre@@QEBA?AVMatrix4@2@XZ 
?getInverseTransposeViewMatrix@AutoParamDataSource@Ogre@@QEBA?AVMatrix4@2@XZ 
?getInverseTransposeViewProjMatrix@AutoParamDataSource@Ogre@@QEBA?AVMatrix4@2@XZ 
?getInverseTransposeWorldMatrix@AutoParamDataSource@Ogre@@QEBAAEBVMatrix4@2@XZ 
?getInverseTransposeWorldViewMatrix@AutoParamDataSource@Ogre@@QEBAAEBVMatrix4@2@XZ 
?getInverseTransposeWorldViewProjMatrix@AutoParamDataSource@Ogre@@QEBA?AVMatrix4@2@XZ 
?getInverseViewMatrix@AutoParamDataSource@Ogre@@QEBAAEBVMatrix4@2@XZ 
?getInverseViewProjMatrix@AutoParamDataSource@Ogre@@QEBA?AVMatrix4@2@XZ 
?getInverseViewportHeight@AutoParamDataSource@Ogre@@QEBAMXZ 
?getInverseViewportWidth@AutoParamDataSource@Ogre@@QEBAMXZ 
?getInverseWorldMatrix@AutoParamDataSource@Ogre@@QEBAAEBVMatrix4@2@XZ 
?getInverseWorldViewMatrix@AutoParamDataSource@Ogre@@QEBAAEBVMatrix4@2@XZ 
?getInverseWorldViewProjMatrix@AutoParamDataSource@Ogre@@QEBA?AVMatrix4@2@XZ 
?getInvertVertexWinding@RenderSystem@Ogre@@UEBA_NXZ 
?getInvocationName@RenderQueueInvocation@Ogre@@UEBAAEBV?$basic_string@DU?$char_traits@D@std@@V?$allocator@D@2@@std@@XZ 
?getIsAlpha@TextureUnitState@Ogre@@QEBA_NXZ 
?getIsInstanceData@HardwareVertexBuffer@Ogre@@QEBA_NXZ 
?getIteratePerLight@Pass@Ogre@@QEBA_NXZ 
?getIterationDepthBias@Pass@Ogre@@QEBAMXZ 
?getIterationInterval@ParticleSystem@Ogre@@QEBAMXZ 
?getIterator@LodStrategyManager@Ogre@@QEAA?AV?$MapIterator@V?$map@V?$basic_string@DU?$char_traits@D@std@@V?$allocator@D@2@@std@@PEAVLodStrategy@Ogre@@U?$less@V?$basic_string@DU?$char_traits@D@std@@V?$allocator@D@2@@std@@@2@V?$STLAllocator@U?$pair@$$CBV?$basic_string@DU?$char_traits@D@std@@V?$allocator@D@2@@std@@PEAVLodStrategy@Ogre@@@std@@V?$CategorisedAllocPolicy@$0A@@Ogre@@@4@@std@@@2@XZ 
?getIterator@RenderQueueGroup@Ogre@@QEAA?AV?$MapIterator@V?$map@GPEAVRenderPriorityGroup@Ogre@@U?$less@G@std@@V?$STLAllocator@U?$pair@$$CBGPEAVRenderPriorityGroup@Ogre@@@std@@V?$CategorisedAllocPolicy@$0A@@Ogre@@@2@@std@@@2@XZ 
?getIterator@RenderQueueGroup@Ogre@@QEBA?AV?$ConstMapIterator@V?$map@GPEAVRenderPriorityGroup@Ogre@@U?$less@G@std@@V?$STLAllocator@U?$pair@$$CBGPEAVRenderPriorityGroup@Ogre@@@std@@V?$CategorisedAllocPolicy@$0A@@Ogre@@@2@@std@@@2@XZ 
?getKeepDeclarationOrder@ManualObject@Ogre@@QEBA_NXZ 
?getKeepParticlesInLocalSpace@ParticleSystem@Ogre@@QEBA_NXZ 
?getKeyFrame@AnimationTrack@Ogre@@UEBAPEAVKeyFrame@2@G@Z 
?getKeyFrameRigAt@SkeletonTrack@Ogre@@QEBAXAEAV?$_Vector_const_iterator@V?$_Vector_val@UKeyFrameRig@Ogre@@V?$STLAllocator@UKeyFrameRig@Ogre@@V?$CategorisedAllocPolicy@$0A@@2@@2@@std@@@std@@0M@Z 
?getKeyFrames@SkeletonTrack@Ogre@@QEBAAEBV?$vector@UKeyFrameRig@Ogre@@V?$STLAllocator@UKeyFrameRig@Ogre@@V?$CategorisedAllocPolicy@$0A@@2@@2@@std@@XZ 
?getKeyFramesAtTime@AnimationTrack@Ogre@@UEBAMAEBVTimeIndex@2@PEAPEAVKeyFrame@2@1PEAG@Z 
?getKeyIndex@TimeIndex@Ogre@@QEBAIXZ 
?getKeywordType@RenderSystemCapabilitiesSerializer@Ogre@@IEBA?AW4CapabilityKeywordType@12@AEBV?$basic_string@DU?$char_traits@D@std@@V?$allocator@D@2@@std@@@Z 
?getLODIterator@Region@StaticGeometry@Ogre@@QEAA?AV?$VectorIterator@V?$vector@PEAVLODBucket@StaticGeometry@Ogre@@V?$STLAllocator@PEAVLODBucket@StaticGeometry@Ogre@@V?$CategorisedAllocPolicy@$0A@@3@@3@@std@@@3@XZ 
?getLanguage@GpuProgram@Ogre@@UEBAAEBV?$basic_string@DU?$char_traits@D@std@@V?$allocator@D@2@@std@@XZ 
?getLanguage@UnifiedHighLevelGpuProgram@Ogre@@UEBAAEBV?$basic_string@DU?$char_traits@D@std@@V?$allocator@D@2@@std@@XZ 
?getLastBoundIndex@VertexBufferBinding@Ogre@@UEBAGXZ 
?getLastQuerysPixelcount@HardwareOcclusionQuery@Ogre@@QEBAIXZ 
?getLastResults@IntersectionSceneQuery@Ogre@@UEBAAEAUIntersectionSceneQueryResult@2@XZ 
?getLastResults@RaySceneQuery@Ogre@@UEAAAEAV?$vector@URaySceneQueryResultEntry@Ogre@@V?$STLAllocator@URaySceneQueryResultEntry@Ogre@@V?$CategorisedAllocPolicy@$0A@@2@@2@@std@@XZ 
?getLastResults@RegionSceneQuery@Ogre@@UEBAAEAUSceneQueryResult@2@XZ 
?getLastTime@FrameStats@Ogre@@QEBAMXZ 
?getLastViewport@Camera@Ogre@@QEBAPEAVViewport@2@XZ 
?getLeft@Viewport@Ogre@@QEBAMXZ 
?getLength@Animation@Ogre@@QEBAMXZ 
?getLength@AnimationState@Ogre@@QEBAMXZ 
?getLight@AutoParamDataSource@Ogre@@IEBAAEBVLight@2@_K@Z 
?getLightAs4DVector@AutoParamDataSource@Ogre@@QEBA?AVVector4@2@_K@Z 
?getLightAttenuation@AutoParamDataSource@Ogre@@QEBA?AVVector4@2@_K@Z 
?getLightCastsShadows@AutoParamDataSource@Ogre@@QEBAM_K@Z 
?getLightClipPlanesEnabled@Pass@Ogre@@QEBA_NXZ 
?getLightClippingPlanes@SceneManager@Ogre@@UEAAAEBV?$vector@VPlane@Ogre@@V?$STLAllocator@VPlane@Ogre@@V?$CategorisedAllocPolicy@$0A@@2@@2@@std@@PEBVLight@2@@Z 
?getLightCount@AutoParamDataSource@Ogre@@QEBAMXZ 
?getLightCountPerIteration@Pass@Ogre@@QEBAGXZ 
?getLightDiffuseColour@AutoParamDataSource@Ogre@@QEBAAEBVColourValue@2@_K@Z 
?getLightDiffuseColourWithPower@AutoParamDataSource@Ogre@@QEBA?BVColourValue@2@_K@Z 
?getLightDirection@AutoParamDataSource@Ogre@@QEBA?AVVector3@2@_K@Z 
?getLightMask@MovableObject@Ogre@@QEBAIXZ 
?getLightMask@Pass@Ogre@@QEBAIXZ 
?getLightPosition@AutoParamDataSource@Ogre@@QEBA?AVVector3@2@_K@Z 
?getLightPowerScale@AutoParamDataSource@Ogre@@QEBAM_K@Z 
?getLightScissorRect@SceneManager@Ogre@@UEAAAEBU?$TRect@M@2@PEBVLight@2@PEBVCamera@2@@Z 
?getLightScissoringEnabled@Pass@Ogre@@QEBA_NXZ 
?getLightSpecularColour@AutoParamDataSource@Ogre@@QEBAAEBVColourValue@2@_K@Z 
?getLightSpecularColourWithPower@AutoParamDataSource@Ogre@@QEBA?BVColourValue@2@_K@Z 
?getLightingEnabled@Pass@Ogre@@QEBA_NXZ 
?getLights@BillboardChain@Ogre@@UEBAAEBV?$HashedVector@ULightClosest@Ogre@@@2@XZ 
?getLights@BillboardSet@Ogre@@UEBAAEBV?$HashedVector@ULightClosest@Ogre@@@2@XZ 
?getLights@Frustum@Ogre@@UEBAAEBV?$HashedVector@ULightClosest@Ogre@@@2@XZ 
?getLights@GeometryBucket@StaticGeometry@Ogre@@UEBAAEBV?$HashedVector@ULightClosest@Ogre@@@3@XZ 
?getLights@InstanceBatch@Ogre@@UEBAAEBV?$HashedVector@ULightClosest@Ogre@@@2@XZ 
?getLights@ManualObjectSection@ManualObject@Ogre@@UEBAAEBV?$HashedVector@ULightClosest@Ogre@@@3@XZ 
?getLights@Rectangle2D@Ogre@@UEBAAEBV?$HashedVector@ULightClosest@Ogre@@@2@XZ 
?getLights@SimpleRenderable@Ogre@@UEBAAEBV?$HashedVector@ULightClosest@Ogre@@@2@XZ 
?getLights@SubEntity@Ogre@@UEBAAEBV?$HashedVector@ULightClosest@Ogre@@@2@XZ 
?getLine@DataStream@Ogre@@UEAA?AV?$basic_string@DU?$char_traits@D@std@@V?$allocator@D@2@@std@@_N@Z 
?getLine@Exception@Ogre@@UEBAJXZ 
?getLinkedSkeletonAnimationSourceIterator@OldSkeletonInstance@Ogre@@UEBA?AV?$ConstVectorIterator@V?$vector@ULinkedSkeletonAnimationSource@Ogre@@V?$STLAllocator@ULinkedSkeletonAnimationSource@Ogre@@V?$CategorisedAllocPolicy@$0A@@2@@2@@std@@@2@XZ 
?getLinkedSkeletonAnimationSourceIterator@Skeleton@Ogre@@UEBA?AV?$ConstVectorIterator@V?$vector@ULinkedSkeletonAnimationSource@Ogre@@V?$STLAllocator@ULinkedSkeletonAnimationSource@Ogre@@V?$CategorisedAllocPolicy@$0A@@2@@2@@std@@@2@XZ 
?getListener@CompositorWorkspace@Ogre@@QEBAPEAVCompositorWorkspaceListener@2@XZ 
?getListener@MeshManager@Ogre@@QEAAPEAVMeshSerializerListener@2@XZ 
?getListener@MeshSerializer@Ogre@@QEAAPEAVMeshSerializerListener@2@XZ 
?getListener@MovableObject@Ogre@@QEBAPEAVListener@12@XZ 
?getListener@Node@Ogre@@QEBAPEAVListener@12@XZ 
?getListener@OldNode@Ogre@@UEBAPEAVListener@12@XZ 
?getListener@ScriptCompiler@Ogre@@QEAAPEAVScriptCompilerListener@2@XZ 
?getListener@ScriptCompilerManager@Ogre@@QEAAPEAVScriptCompilerListener@2@XZ 
?getLoadingListener@ResourceGroupManager@Ogre@@QEAAPEAVResourceLoadingListener@2@XZ 
?getLoadingOrder@ParticleSystemManager@Ogre@@UEBAMXZ 
?getLoadingOrder@ResourceManager@Ogre@@UEBAMXZ 
?getLoadingOrder@ScriptCompilerManager@Ogre@@UEBAMXZ 
?getLoadingState@Resource@Ogre@@UEBA?AW4LoadingState@12@XZ 
?getLoadingState@UnifiedHighLevelGpuProgram@Ogre@@UEBA?AW4LoadingState@Resource@2@XZ 
?getLocalAabb@MovableObject@Ogre@@QEBA?AUAabb@2@XZ 
?getLocalAxes@Node@Ogre@@QEBA?AVMatrix3@2@XZ 
?getLocalAxes@OldNode@Ogre@@UEBA?AVMatrix3@2@XZ 
?getLocalTextureDefinitions@TextureDefinitionBase@Ogre@@QEBAAEBV?$vector@VTextureDefinition@TextureDefinitionBase@Ogre@@V?$STLAllocator@VTextureDefinition@TextureDefinitionBase@Ogre@@V?$CategorisedAllocPolicy@$0A@@3@@3@@std@@XZ 
?getLocalTextureDefinitionsNonConst@TextureDefinitionBase@Ogre@@QEAAAEAV?$vector@VTextureDefinition@TextureDefinitionBase@Ogre@@V?$STLAllocator@VTextureDefinition@TextureDefinitionBase@Ogre@@V?$CategorisedAllocPolicy@$0A@@3@@3@@std@@XZ 
?getLocalTextures@CompositorNode@Ogre@@QEBAAEBV?$vector@UCompositorChannel@Ogre@@V?$STLAllocator@UCompositorChannel@Ogre@@V?$CategorisedAllocPolicy@$0A@@2@@2@@std@@XZ 
?getLod@LODBucket@StaticGeometry@Ogre@@QEBAGXZ 
?getLodBias@Camera@Ogre@@QEBAMXZ 
?getLodCamera@Camera@Ogre@@UEBAPEBV12@XZ 
?getLodCameraPosition@AutoParamDataSource@Ogre@@QEBAAEBVVector4@2@XZ 
?getLodCameraPositionObjectSpace@AutoParamDataSource@Ogre@@QEBAAEBVVector4@2@XZ 
?getLodIndex@Technique@Ogre@@QEBAGXZ 
?getLodLevel@Mesh@Ogre@@QEBAAEBUMeshLodUsage@2@G@Z 
?getLodStrategyName@Mesh@Ogre@@QEBAAEBV?$basic_string@DU?$char_traits@D@std@@V?$allocator@D@2@@std@@XZ 
?getLodValue@LODBucket@StaticGeometry@Ogre@@QEBAMXZ 
?getLodValueIterator@Material@Ogre@@QEBA?AV?$ConstVectorIterator@V?$FastArray@M@Ogre@@@2@XZ 
?getLog@LogManager@Ogre@@QEAAPEAVLog@2@AEBV?$basic_string@DU?$char_traits@D@std@@V?$allocator@D@2@@std@@@Z 
?getLogDetail@Log@Ogre@@QEBA?AW4LoggingLevel@2@XZ 
?getLoop@AnimationState@Ogre@@QEBA_NXZ 
?getLoop@SkeletonAnimation@Ogre@@QEBA_NXZ 
?getManager@HardwareCounterBuffer@Ogre@@QEBAPEAVHardwareBufferManagerBase@2@XZ 
?getManager@HardwareIndexBuffer@Ogre@@QEBAPEAVHardwareBufferManagerBase@2@XZ 
?getManager@HardwareUniformBuffer@Ogre@@QEBAPEAVHardwareBufferManagerBase@2@XZ 
?getManager@HardwareVertexBuffer@Ogre@@QEBAPEAVHardwareBufferManagerBase@2@XZ 
?getManualBonesDirty@Skeleton@Ogre@@UEBA_NXZ 
?getManualCullingMode@Pass@Ogre@@QEBA?AW4ManualCullingMode@2@XZ 
?getManualLodLevel@Entity@Ogre@@QEBAPEAV12@_K@Z 
?getManualNamedConstantsFile@GpuProgram@Ogre@@UEBAAEBV?$basic_string@DU?$char_traits@D@std@@V?$allocator@D@2@@std@@XZ 
?getMaterial@BillboardChain@Ogre@@UEBAAEBV?$SharedPtr@VMaterial@Ogre@@@2@XZ 
?getMaterial@BillboardSet@Ogre@@UEBAAEBV?$SharedPtr@VMaterial@Ogre@@@2@XZ 
?getMaterial@Frustum@Ogre@@UEBAAEBV?$SharedPtr@VMaterial@Ogre@@@2@XZ 
?getMaterial@GeometryBucket@StaticGeometry@Ogre@@UEBAAEBV?$SharedPtr@VMaterial@Ogre@@@3@XZ 
?getMaterial@Hlms@Ogre@@QEAAPEBUHlmsCache@2@AEBU32@PEAVRenderable@2@PEAVMovableObject@2@_N@Z 
?getMaterial@InstanceBatch@Ogre@@UEBAAEBV?$SharedPtr@VMaterial@Ogre@@@2@XZ 
?getMaterial@ManualObjectSection@ManualObject@Ogre@@UEBAAEBV?$SharedPtr@VMaterial@Ogre@@@3@XZ 
?getMaterial@MaterialBucket@StaticGeometry@Ogre@@QEBAAEBV?$SharedPtr@VMaterial@Ogre@@@3@XZ 
?getMaterial@Rectangle2D@Ogre@@UEBAAEBV?$SharedPtr@VMaterial@Ogre@@@2@XZ 
?getMaterial@SimpleRenderable@Ogre@@UEBAAEBV?$SharedPtr@VMaterial@Ogre@@@2@XZ 
?getMaterial@SubEntity@Ogre@@UEBAAEBV?$SharedPtr@VMaterial@Ogre@@@2@XZ 
?getMaterialGroup@ManualObjectSection@ManualObject@Ogre@@QEBAAEBV?$basic_string@DU?$char_traits@D@std@@V?$allocator@D@2@@std@@XZ 
?getMaterialIterator@LODBucket@StaticGeometry@Ogre@@QEAA?AV?$MapIterator@V?$map@V?$basic_string@DU?$char_traits@D@std@@V?$allocator@D@2@@std@@PEAVMaterialBucket@StaticGeometry@Ogre@@U?$less@V?$basic_string@DU?$char_traits@D@std@@V?$allocator@D@2@@std@@@2@V?$STLAllocator@U?$pair@$$CBV?$basic_string@DU?$char_traits@D@std@@V?$allocator@D@2@@std@@PEAVMaterialBucket@StaticGeometry@Ogre@@@std@@V?$CategorisedAllocPolicy@$0A@@Ogre@@@5@@std@@@3@XZ 
?getMaterialName@BillboardChain@Ogre@@UEBAAEBV?$basic_string@DU?$char_traits@D@std@@V?$allocator@D@2@@std@@XZ 
?getMaterialName@BillboardSet@Ogre@@UEBAAEBV?$basic_string@DU?$char_traits@D@std@@V?$allocator@D@2@@std@@XZ 
?getMaterialName@ManualObjectSection@ManualObject@Ogre@@QEBAAEBV?$basic_string@DU?$char_traits@D@std@@V?$allocator@D@2@@std@@XZ 
?getMaterialName@MaterialBucket@StaticGeometry@Ogre@@QEBAAEBV?$basic_string@DU?$char_traits@D@std@@V?$allocator@D@2@@std@@XZ 
?getMaterialName@ParticleSystem@Ogre@@UEBAAEBV?$basic_string@DU?$char_traits@D@std@@V?$allocator@D@2@@std@@XZ 
?getMaterialName@SubEntity@Ogre@@QEBAAEBV?$basic_string@DU?$char_traits@D@std@@V?$allocator@D@2@@std@@XZ 
?getMaterialName@SubMesh@Ogre@@QEBAAEBV?$basic_string@DU?$char_traits@D@std@@V?$allocator@D@2@@std@@XZ 
?getMaterialScheme@Viewport@Ogre@@QEBAAEBV?$basic_string@DU?$char_traits@D@std@@V?$allocator@D@2@@std@@XZ 
?getMatrix4@ScriptTranslator@Ogre@@KA_NV?$_List_const_iterator@V?$_List_val@V?$SharedPtr@VAbstractNode@Ogre@@@Ogre@@V?$STLAllocator@V?$SharedPtr@VAbstractNode@Ogre@@@Ogre@@V?$CategorisedAllocPolicy@$0A@@2@@2@@std@@@std@@0PEAVMatrix4@2@@Z 
?getMaxAllocationSize@NedPoolingPolicy@Ogre@@SA_KXZ 
?getMaxChainElements@BillboardChain@Ogre@@UEBA_KXZ 
?getMaxComponent@ArrayVector3@Ogre@@QEBA?AT__m128@@XZ 
?getMaxDistance@ShadowCameraSetup@Ogre@@QEBAMXZ 
?getMaxDuration@ParticleEmitter@Ogre@@UEBAMXZ 
?getMaxLookupTableInstances@BaseInstanceBatchVTF@Ogre@@UEBA_KXZ 
?getMaxOrBestNumInstancesPerBatch@InstanceManager@Ogre@@QEAA_KAEBV?$basic_string@DU?$char_traits@D@std@@V?$allocator@D@2@@std@@_KG@Z 
?getMaxParticleVelocity@ParticleEmitter@Ogre@@UEBAMXZ 
?getMaxPointSize@RenderSystemCapabilities@Ogre@@QEBAMXZ 
?getMaxRepeatDelay@ParticleEmitter@Ogre@@UEBAMXZ 
?getMaxResults@RaySceneQuery@Ogre@@UEBAGXZ 
?getMaxSimultaneousLights@Pass@Ogre@@QEBAGXZ 
?getMaxSource@VertexDeclaration@Ogre@@QEBAGXZ 
?getMaxSupportedAnisotropy@RenderSystemCapabilities@Ogre@@QEAAMXZ 
?getMaxTimeToLive@ParticleEmitter@Ogre@@UEBAMXZ 
?getMaxVertexCount@RenderToVertexBuffer@Ogre@@QEBAIXZ 
?getMaximum@Aabb@Ogre@@QEBA?AVVector3@2@XZ 
?getMaximum@ArrayAabb@Ogre@@QEBA?AVArrayVector3@2@XZ 
?getMaximum@AxisAlignedBox@Ogre@@QEAAAEAVVector3@2@XZ 
?getMaximum@AxisAlignedBox@Ogre@@QEBAAEBVVector3@2@XZ 
?getMemoryBudget@ResourceManager@Ogre@@UEBA_KXZ 
?getMemoryManagerType@ObjectMemoryManager@Ogre@@QEBA?AW4SceneMemoryMgrTypes@2@XZ 
?getMemorySize@PixelUtil@Ogre@@SA_KIIIW4PixelFormat@2@@Z 
?getMemoryUsage@ResourceManager@Ogre@@UEBA_KXZ 
?getMesh@Entity@Ogre@@QEBAAEBV?$SharedPtr@VMesh@Ogre@@@2@XZ 
?getMeshManager@Root@Ogre@@QEAAPEAVMeshManager@2@XZ 
?getMessages@Response@WorkQueue@Ogre@@QEBAAEBV?$basic_string@DU?$char_traits@D@std@@V?$allocator@D@2@@std@@XZ 
?getMetaData@SceneManagerEnumerator@Ogre@@QEBAPEBUSceneManagerMetaData@2@AEBV?$basic_string@DU?$char_traits@D@std@@V?$allocator@D@2@@std@@@Z 
?getMetaData@SceneManagerFactory@Ogre@@UEBAAEBUSceneManagerMetaData@2@XZ 
?getMetaDataIterator@SceneManagerEnumerator@Ogre@@QEBA?AV?$ConstVectorIterator@V?$vector@PEBUSceneManagerMetaData@Ogre@@V?$STLAllocator@PEBUSceneManagerMetaData@Ogre@@V?$CategorisedAllocPolicy@$0A@@2@@2@@std@@@2@XZ 
?getMetrics@RenderTarget@Ogre@@UEAAXAEAI00@Z 
?getMetrics@RenderWindow@Ogre@@UEBAXAEAI00AEAH1@Z 
?getMicrocodeFromCache@GpuProgramManager@Ogre@@UEBAAEBV?$SharedPtr@VMemoryDataStream@Ogre@@@2@AEBV?$basic_string@DU?$char_traits@D@std@@V?$allocator@D@2@@std@@@Z 
?getMicroseconds@Timer@Ogre@@QEAAKXZ 
?getMicrosecondsCPU@Timer@Ogre@@QEAAKXZ 
?getMilliseconds@Timer@Ogre@@QEAAKXZ 
?getMillisecondsCPU@Timer@Ogre@@QEAAKXZ 
?getMinComponent@ArrayVector3@Ogre@@QEBA?AT__m128@@XZ 
?getMinDistance@ShadowCameraSetup@Ogre@@QEBAMXZ 
?getMinDuration@ParticleEmitter@Ogre@@UEBAMXZ 
?getMinMaxDepthRange@CompositorShadowNode@Ogre@@QEBAXPEBVFrustum@2@AEAM1@Z 
?getMinMaxDepthRange@SceneManager@Ogre@@QEBAXPEBVFrustum@2@AEAM1@Z 
?getMinParticleVelocity@ParticleEmitter@Ogre@@UEBAMXZ 
?getMinRepeatDelay@ParticleEmitter@Ogre@@UEBAMXZ 
?getMinTimeToLive@ParticleEmitter@Ogre@@UEBAMXZ 
?getMinimum@Aabb@Ogre@@QEBA?AVVector3@2@XZ 
?getMinimum@ArrayAabb@Ogre@@QEBA?AVArrayVector3@2@XZ 
?getMinimum@AxisAlignedBox@Ogre@@QEAAAEAVVector3@2@XZ 
?getMinimum@AxisAlignedBox@Ogre@@QEBAAEBVVector3@2@XZ 
?getMipmapsHardwareGenerated@Texture@Ogre@@UEBA_NXZ 
?getMisses@VertexCacheProfiler@Ogre@@QEAAIXZ 
?getModifiedTime@FileSystemArchive@Ogre@@UEAA_JAEBV?$basic_string@DU?$char_traits@D@std@@V?$allocator@D@2@@std@@@Z 
?getModifiedTime@ZipArchive@Ogre@@UEAA_JAEBV?$basic_string@DU?$char_traits@D@std@@V?$allocator@D@2@@std@@@Z 
?getMovableObjectCollection@SceneManager@Ogre@@IEAAPEAUMovableObjectCollection@12@AEBV?$basic_string@DU?$char_traits@D@std@@V?$allocator@D@2@@std@@@Z 
?getMovableObjectCollection@SceneManager@Ogre@@IEBAPEBUMovableObjectCollection@12@AEBV?$basic_string@DU?$char_traits@D@std@@V?$allocator@D@2@@std@@@Z 
?getMovableObjectFactory@Root@Ogre@@QEAAPEAVMovableObjectFactory@2@AEBV?$basic_string@DU?$char_traits@D@std@@V?$allocator@D@2@@std@@@Z 
?getMovableObjectFactoryIterator@Root@Ogre@@QEBA?AV?$ConstMapIterator@V?$map@V?$basic_string@DU?$char_traits@D@std@@V?$allocator@D@2@@std@@PEAVMovableObjectFactory@Ogre@@U?$less@V?$basic_string@DU?$char_traits@D@std@@V?$allocator@D@2@@std@@@2@V?$STLAllocator@U?$pair@$$CBV?$basic_string@DU?$char_traits@D@std@@V?$allocator@D@2@@std@@PEAVMovableObjectFactory@Ogre@@@std@@V?$CategorisedAllocPolicy@$0A@@Ogre@@@4@@std@@@2@XZ 
?getMovableObjectIterator@SceneManager@Ogre@@UEAA?AV?$VectorIterator@V?$vector@PEAVMovableObject@Ogre@@V?$STLAllocator@PEAVMovableObject@Ogre@@V?$CategorisedAllocPolicy@$0A@@2@@2@@std@@@2@AEBV?$basic_string@DU?$char_traits@D@std@@V?$allocator@D@2@@std@@@Z 
?getMovableType@BillboardChain@Ogre@@UEBAAEBV?$basic_string@DU?$char_traits@D@std@@V?$allocator@D@2@@std@@XZ 
?getMovableType@BillboardSet@Ogre@@UEBAAEBV?$basic_string@DU?$char_traits@D@std@@V?$allocator@D@2@@std@@XZ 
?getMovableType@Camera@Ogre@@UEBAAEBV?$basic_string@DU?$char_traits@D@std@@V?$allocator@D@2@@std@@XZ 
?getMovableType@Entity@Ogre@@UEBAAEBV?$basic_string@DU?$char_traits@D@std@@V?$allocator@D@2@@std@@XZ 
?getMovableType@Frustum@Ogre@@UEBAAEBV?$basic_string@DU?$char_traits@D@std@@V?$allocator@D@2@@std@@XZ 
?getMovableType@InstanceBatch@Ogre@@UEBAAEBV?$basic_string@DU?$char_traits@D@std@@V?$allocator@D@2@@std@@XZ 
?getMovableType@InstancedEntity@Ogre@@UEBAAEBV?$basic_string@DU?$char_traits@D@std@@V?$allocator@D@2@@std@@XZ 
?getMovableType@Light@Ogre@@UEBAAEBV?$basic_string@DU?$char_traits@D@std@@V?$allocator@D@2@@std@@XZ 
?getMovableType@ManualObject@Ogre@@UEBAAEBV?$basic_string@DU?$char_traits@D@std@@V?$allocator@D@2@@std@@XZ 
?getMovableType@MovablePlane@Ogre@@UEBAAEBV?$basic_string@DU?$char_traits@D@std@@V?$allocator@D@2@@std@@XZ 
?getMovableType@NullEntity@Ogre@@UEBAAEBV?$basic_string@DU?$char_traits@D@std@@V?$allocator@D@2@@std@@XZ 
?getMovableType@ParticleSystem@Ogre@@UEBAAEBV?$basic_string@DU?$char_traits@D@std@@V?$allocator@D@2@@std@@XZ 
?getMovableType@Region@StaticGeometry@Ogre@@UEBAAEBV?$basic_string@DU?$char_traits@D@std@@V?$allocator@D@2@@std@@XZ 
?getMovableType@RibbonTrail@Ogre@@UEBAAEBV?$basic_string@DU?$char_traits@D@std@@V?$allocator@D@2@@std@@XZ 
?getMovableType@SimpleRenderable@Ogre@@UEBAAEBV?$basic_string@DU?$char_traits@D@std@@V?$allocator@D@2@@std@@XZ 
?getMultiSetting@ConfigFile@Ogre@@QEBA?AV?$vector@V?$basic_string@DU?$char_traits@D@std@@V?$allocator@D@2@@std@@V?$STLAllocator@V?$basic_string@DU?$char_traits@D@std@@V?$allocator@D@2@@std@@V?$CategorisedAllocPolicy@$0A@@Ogre@@@Ogre@@@std@@AEBV?$basic_string@DU?$char_traits@D@std@@V?$allocator@D@2@@4@0@Z 
?getMutableCapabilities@RenderSystem@Ogre@@QEAAPEAVRenderSystemCapabilities@2@XZ 
?getName@Animation@Ogre@@QEBAAEBV?$basic_string@DU?$char_traits@D@std@@V?$allocator@D@2@@std@@XZ 
?getName@Archive@Ogre@@QEBAAEBV?$basic_string@DU?$char_traits@D@std@@V?$allocator@D@2@@std@@XZ 
?getName@Bone@Ogre@@QEBAAEBV?$basic_string@DU?$char_traits@D@std@@V?$allocator@D@2@@std@@XZ 
?getName@CompositorNode@Ogre@@QEBA?AUIdString@2@XZ 
?getName@CompositorNodeDef@Ogre@@QEBA?AUIdString@2@XZ 
?getName@DataStream@Ogre@@QEAAAEBV?$basic_string@DU?$char_traits@D@std@@V?$allocator@D@2@@std@@XZ 
?getName@DefaultWorkQueueBase@Ogre@@QEBAAEBV?$basic_string@DU?$char_traits@D@std@@V?$allocator@D@2@@std@@XZ 
?getName@DynLib@Ogre@@QEBAAEBV?$basic_string@DU?$char_traits@D@std@@V?$allocator@D@2@@std@@XZ 
?getName@GpuSharedParameters@Ogre@@QEAAAEBV?$basic_string@DU?$char_traits@D@std@@V?$allocator@D@2@@std@@XZ 
?getName@GpuSharedParametersUsage@Ogre@@QEBAAEBV?$basic_string@DU?$char_traits@D@std@@V?$allocator@D@2@@std@@XZ 
?getName@HardwareCounterBuffer@Ogre@@QEBAAEBV?$basic_string@DU?$char_traits@D@std@@V?$allocator@D@2@@std@@XZ 
?getName@HardwareUniformBuffer@Ogre@@QEBAAEBV?$basic_string@DU?$char_traits@D@std@@V?$allocator@D@2@@std@@XZ 
?getName@InstanceManager@Ogre@@QEBA?BUIdString@2@XZ 
?getName@LodStrategy@Ogre@@QEBAAEBV?$basic_string@DU?$char_traits@D@std@@V?$allocator@D@2@@std@@XZ 
?getName@Log@Ogre@@QEBAAEBV?$basic_string@DU?$char_traits@D@std@@V?$allocator@D@2@@std@@XZ 
?getName@MovableObject@Ogre@@QEBAAEBV?$basic_string@DU?$char_traits@D@std@@V?$allocator@D@2@@std@@XZ 
?getName@Node@Ogre@@QEBAAEBV?$basic_string@DU?$char_traits@D@std@@V?$allocator@D@2@@std@@XZ 
?getName@OldNode@Ogre@@QEBAAEBV?$basic_string@DU?$char_traits@D@std@@V?$allocator@D@2@@std@@XZ 
?getName@OldSkeletonInstance@Ogre@@UEBAAEBV?$basic_string@DU?$char_traits@D@std@@V?$allocator@D@2@@std@@XZ 
?getName@ParticleEmitter@Ogre@@QEBAAEBV?$basic_string@DU?$char_traits@D@std@@V?$allocator@D@2@@std@@XZ 
?getName@Pass@Ogre@@QEBAAEBV?$basic_string@DU?$char_traits@D@std@@V?$allocator@D@2@@std@@XZ 
?getName@Pose@Ogre@@QEBAAEBV?$basic_string@DU?$char_traits@D@std@@V?$allocator@D@2@@std@@XZ 
?getName@RenderQueueInvocationSequence@Ogre@@QEBAAEBV?$basic_string@DU?$char_traits@D@std@@V?$allocator@D@2@@std@@XZ 
?getName@RenderTarget@Ogre@@UEBAAEBV?$basic_string@DU?$char_traits@D@std@@V?$allocator@D@2@@std@@XZ 
?getName@Resource@Ogre@@UEBAAEBV?$basic_string@DU?$char_traits@D@std@@V?$allocator@D@2@@std@@XZ 
?getName@ResourcePool@ResourceManager@Ogre@@QEBAAEBV?$basic_string@DU?$char_traits@D@std@@V?$allocator@D@2@@std@@XZ 
?getName@SceneManager@Ogre@@QEBAAEBV?$basic_string@DU?$char_traits@D@std@@V?$allocator@D@2@@std@@XZ 
?getName@SkeletonAnimation@Ogre@@QEBA?AUIdString@2@XZ 
?getName@SkeletonDef@Ogre@@QEBAAEBV?$basic_string@DU?$char_traits@D@std@@V?$allocator@D@2@@std@@XZ 
?getName@StaticGeometry@Ogre@@QEBAAEBV?$basic_string@DU?$char_traits@D@std@@V?$allocator@D@2@@std@@XZ 
?getName@Technique@Ogre@@QEBAAEBV?$basic_string@DU?$char_traits@D@std@@V?$allocator@D@2@@std@@XZ 
?getName@TextureDefinition@TextureDefinitionBase@Ogre@@QEBA?AUIdString@3@XZ 
?getName@TextureUnitState@Ogre@@QEBAAEBV?$basic_string@DU?$char_traits@D@std@@V?$allocator@D@2@@std@@XZ 
?getNameStr@CompositorNodeDef@Ogre@@QEBA?AV?$basic_string@DU?$char_traits@D@std@@V?$allocator@D@2@@std@@XZ 
?getNameToChannelMap@TextureDefinitionBase@Ogre@@QEBAAEBV?$map@UIdString@Ogre@@IU?$less@UIdString@Ogre@@@std@@V?$STLAllocator@U?$pair@$$CBUIdString@Ogre@@I@std@@V?$CategorisedAllocPolicy@$0A@@Ogre@@@2@@std@@XZ 
?getNativeShadingLanguageVersion@RenderSystem@Ogre@@QEBAGXZ 
?getNearClipDistance@AutoParamDataSource@Ogre@@QEBAMXZ 
?getNearClipDistance@Camera@Ogre@@UEBAMXZ 
?getNearClipDistance@Frustum@Ogre@@UEBAMXZ 
?getNewID@AnimationNameIDMapper@Ogre@@QEAAIXZ 
?getNext@NameGenerator@Ogre@@QEBA_KXZ 
?getNext@ParticleIterator@Ogre@@QEAAPEAVParticle@2@XZ 
?getNextFrameNumber@Root@Ogre@@QEBAKXZ 
?getNextFreeTextureCoordinate@VertexDeclaration@Ogre@@UEBAGXZ 
?getNextHandle@ResourceManager@Ogre@@IEAA_KXZ 
?getNextIndex@VertexBufferBinding@Ogre@@UEBAGXZ 
?getNodeAliasMap@CompositorWorkspaceDef@Ogre@@QEAAAEBV?$map@UIdString@Ogre@@U12@U?$less@UIdString@Ogre@@@std@@V?$STLAllocator@U?$pair@$$CBUIdString@Ogre@@U12@@std@@V?$CategorisedAllocPolicy@$0A@@Ogre@@@2@@std@@XZ 
?getNodeAt@ScriptTranslator@Ogre@@KA?AV?$_List_const_iterator@V?$_List_val@V?$SharedPtr@VAbstractNode@Ogre@@@Ogre@@V?$STLAllocator@V?$SharedPtr@VAbstractNode@Ogre@@@Ogre@@V?$CategorisedAllocPolicy@$0A@@2@@2@@std@@@std@@AEBV?$list@V?$SharedPtr@VAbstractNode@Ogre@@@Ogre@@V?$STLAllocator@V?$SharedPtr@VAbstractNode@Ogre@@@Ogre@@V?$CategorisedAllocPolicy@$0A@@2@@2@@4@H@Z 
?getNodeDefinition@CompositorManager2@Ogre@@QEBAPEBVCompositorNodeDef@2@UIdString@2@@Z 
?getNodeDefinitionNonConst@CompositorManager2@Ogre@@QEBAPEAVCompositorNodeDef@2@UIdString@2@@Z 
?getNodeDefinitions@CompositorManager2@Ogre@@QEBAAEBV?$map@UIdString@Ogre@@PEAVCompositorNodeDef@2@U?$less@UIdString@Ogre@@@std@@V?$STLAllocator@U?$pair@$$CBUIdString@Ogre@@PEAVCompositorNodeDef@2@@std@@V?$CategorisedAllocPolicy@$0A@@Ogre@@@2@@std@@XZ 
?getNodeIterator@RibbonTrail@Ogre@@UEBA?AV?$ConstVectorIterator@V?$vector@PEAVNode@Ogre@@V?$STLAllocator@PEAVNode@Ogre@@V?$CategorisedAllocPolicy@$0A@@2@@2@@std@@@2@XZ 
?getNodeKeyFrame@NodeAnimationTrack@Ogre@@UEBAPEAVTransformKeyFrame@2@G@Z 
?getNodeKeyFrame@OldNodeAnimationTrack@Ogre@@UEBAPEAVTransformKeyFrame@2@G@Z 
?getNodeSequence@CompositorWorkspace@Ogre@@QEBAAEBV?$vector@PEAVCompositorNode@Ogre@@V?$STLAllocator@PEAVCompositorNode@Ogre@@V?$CategorisedAllocPolicy@$0A@@2@@2@@std@@XZ 
?getNodeTrack@Animation@Ogre@@QEBAPEAVNodeAnimationTrack@2@_K@Z 
?getNodeTrackIterator@Animation@Ogre@@QEBA?AV?$ConstVectorIterator@V?$vector@PEAVNodeAnimationTrack@Ogre@@V?$STLAllocator@PEAVNodeAnimationTrack@Ogre@@V?$CategorisedAllocPolicy@$0A@@2@@2@@std@@@2@XZ 
?getNonPOW2TexturesLimited@RenderSystemCapabilities@Ogre@@QEBA_NXZ 
?getNonVisibleUpdateTimeout@ParticleSystem@Ogre@@QEBAMXZ 
?getNormal@ConvexBody@Ogre@@QEAAAEBVVector3@2@_K@Z 
?getNormal@Polygon@Ogre@@QEBAAEBVVector3@2@XZ 
?getNormaliseNormals@Pass@Ogre@@QEBA_NXZ 
?getNormaliseNormalsOnScale@SceneManager@Ogre@@UEBA_NXZ 
?getNormals@Pose@Ogre@@QEBAAEBV?$map@_KVVector3@Ogre@@U?$less@_K@std@@V?$STLAllocator@U?$pair@$$CB_KVVector3@Ogre@@@std@@V?$CategorisedAllocPolicy@$0A@@Ogre@@@2@@std@@XZ 
?getNormalsIterator@Pose@Ogre@@QEAA?AV?$MapIterator@V?$map@_KVVector3@Ogre@@U?$less@_K@std@@V?$STLAllocator@U?$pair@$$CB_KVVector3@Ogre@@@std@@V?$CategorisedAllocPolicy@$0A@@Ogre@@@2@@std@@@2@XZ 
?getNormalsIterator@Pose@Ogre@@QEBA?AV?$ConstMapIterator@V?$map@_KVVector3@Ogre@@U?$less@_K@std@@V?$STLAllocator@U?$pair@$$CB_KVVector3@Ogre@@@std@@V?$CategorisedAllocPolicy@$0A@@Ogre@@@2@@std@@@2@XZ 
?getNullShadowTexture@CompositorManager2@Ogre@@QEAA?AV?$SharedPtr@VTexture@Ogre@@@2@W4PixelFormat@2@@Z 
?getNullShadowTexture@ShadowTextureManager@Ogre@@UEAA?AV?$SharedPtr@VTexture@Ogre@@@2@W4PixelFormat@2@@Z 
?getNumAffectors@ParticleSystem@Ogre@@QEBAGXZ 
?getNumAnimations@Mesh@Ogre@@UEBAGXZ 
?getNumAnimations@OldSkeletonInstance@Ogre@@UEBAGXZ 
?getNumAnimations@Skeleton@Ogre@@UEBAGXZ 
?getNumAutoConstantDefinitions@GpuProgramParameters@Ogre@@SA_KXZ 
?getNumBillboards@BillboardSet@Ogre@@UEBAHXZ 
?getNumBones@Skeleton@Ogre@@UEBAGXZ 
?getNumBones@SkeletonInstance@Ogre@@QEBA_KXZ 
?getNumChainElements@BillboardChain@Ogre@@UEBA_K_K@Z 
?getNumCompositorTextures@SceneManager@Ogre@@QEBA_KXZ 
?getNumCustomParams@InstanceManager@Ogre@@QEBAEXZ 
?getNumDepths@BoneMemoryManager@Ogre@@QEBA_KXZ 
?getNumElemBits@PixelUtil@Ogre@@SA_KW4PixelFormat@2@@Z 
?getNumElemBytes@PixelUtil@Ogre@@SA_KW4PixelFormat@2@@Z 
?getNumEmitters@ParticleSystem@Ogre@@QEBAGXZ 
?getNumFaces@Image@Ogre@@QEBA_KXZ 
?getNumFaces@Texture@Ogre@@UEBA_KXZ 
?getNumFrames@SkeletonAnimation@Ogre@@QEBAMXZ 
?getNumFrames@TextureUnitState@Ogre@@QEBAIXZ 
?getNumIndexes@HardwareIndexBuffer@Ogre@@QEBA_KXZ 
?getNumInputChannels@TextureDefinitionBase@Ogre@@QEBA_KXZ 
?getNumInstancesPerBatch@SceneManager@Ogre@@UEAA_KAEBV?$basic_string@DU?$char_traits@D@std@@V?$allocator@D@2@@std@@00W4InstancingTechnique@InstanceManager@2@_KGG@Z 
?getNumKeyFrames@AnimationTrack@Ogre@@UEBAGXZ 
?getNumLodLevels@Material@Ogre@@QEBAGAEBV?$basic_string@DU?$char_traits@D@std@@V?$allocator@D@2@@std@@@Z 
?getNumLodLevels@Material@Ogre@@QEBAGG@Z 
?getNumLodLevels@Mesh@Ogre@@QEBAGXZ 
?getNumLogicalCores@PlatformInformation@Ogre@@SAIXZ 
?getNumManualLodLevels@Entity@Ogre@@QEBA_KXZ 
?getNumMaterials@LODBucket@StaticGeometry@Ogre@@QEBA_KXZ 
?getNumMipmaps@Image@Ogre@@QEBAEXZ 
?getNumMipmaps@Texture@Ogre@@UEBAEXZ 
?getNumMipmaps@TextureUnitState@Ogre@@QEBAHXZ 
?getNumMultiRenderTargets@RenderSystemCapabilities@Ogre@@QEBAGXZ 
?getNumNodeTracks@Animation@Ogre@@QEBA_KXZ 
?getNumNumericTracks@Animation@Ogre@@QEBAGXZ 
?getNumOldNodeTracks@Animation@Ogre@@QEBA_KXZ 
?getNumOutputChannels@CompositorNodeDef@Ogre@@QEBA_KXZ 
?getNumParticles@ParticleSystem@Ogre@@QEBA_KXZ 
?getNumPasses@Technique@Ogre@@QEBAGXZ 
?getNumPoints@RotationalSpline@Ogre@@QEBAGXZ 
?getNumPoints@SimpleSpline@Ogre@@QEBAGXZ 
?getNumRenderQueues@ObjectMemoryManager@Ogre@@QEBA_KXZ 
?getNumSections@ManualObject@Ogre@@QEBAIXZ 
?getNumShadowCastingLights@CompositorShadowNode@Ogre@@QEBA_KXZ 
?getNumShadowContentTextures@Pass@Ogre@@QEBA_KXZ 
?getNumSubEntities@Entity@Ogre@@QEBA_KXZ 
?getNumSubMeshes@Mesh@Ogre@@QEBAGXZ 
?getNumSupportedTechniques@Material@Ogre@@QEBAGXZ 
?getNumTargetPasses@CompositorNodeDef@Ogre@@QEBA_KXZ 
?getNumTechniques@Material@Ogre@@QEBAGXZ 
?getNumTextureUnitStates@Pass@Ogre@@QEBAGXZ 
?getNumTextureUnits@RenderSystemCapabilities@Ogre@@QEBAGXZ 
?getNumTranslators@BuiltinScriptTranslatorManager@Ogre@@UEBA_KXZ 
?getNumVertexBlendMatrices@RenderSystemCapabilities@Ogre@@QEBAGXZ 
?getNumVertexTextureUnits@RenderSystemCapabilities@Ogre@@QEBAGXZ 
?getNumVertexTracks@Animation@Ogre@@QEBAGXZ 
?getNumVertices@HardwareVertexBuffer@Ogre@@QEBA_KXZ 
?getNumViewports@RenderTarget@Ogre@@UEBAGXZ 
?getNumWorkerThreads@SceneManager@Ogre@@QEBA_KXZ 
?getNumWorkspaces@CompositorManager2@Ogre@@QEBA_KXZ 
?getNumWorldMatrices@RenderSystemCapabilities@Ogre@@QEBAGXZ 
?getNumWorldTransforms@BaseInstanceBatchVTF@Ogre@@UEBAGXZ 
?getNumWorldTransforms@InstanceBatchHW@Ogre@@UEBAGXZ 
?getNumWorldTransforms@InstanceBatchShader@Ogre@@UEBAGXZ 
?getNumWorldTransforms@Renderable@Ogre@@UEBAGXZ 
?getNumWorldTransforms@SubEntity@Ogre@@UEBAGXZ 
?getNumber@Exception@Ogre@@UEBAHXZ 
?getNumberOfBoneBlocks@SkeletonDef@Ogre@@QEBA_K_K@Z 
?getNumberOfChains@BillboardChain@Ogre@@UEBA_KXZ 
?getNumberOfPosesIncluded@GpuProgram@Ogre@@UEBAGXZ 
?getNumberOfPosesIncluded@UnifiedHighLevelGpuProgram@Ogre@@UEBAGXZ 
?getNumericKeyFrame@NumericAnimationTrack@Ogre@@QEBAPEAVNumericKeyFrame@2@G@Z 
?getNumericTrack@Animation@Ogre@@QEBAPEAVNumericAnimationTrack@2@G@Z 
?getNumericTrackIterator@Animation@Ogre@@QEBA?AV?$ConstMapIterator@V?$map@GPEAVNumericAnimationTrack@Ogre@@U?$less@G@std@@V?$STLAllocator@U?$pair@$$CBGPEAVNumericAnimationTrack@Ogre@@@std@@V?$CategorisedAllocPolicy@$0A@@Ogre@@@2@@std@@@2@XZ 
?getOffset@VertexElement@Ogre@@QEBA_KXZ 
?getOffsetFromChunkStart@StreamSerialiser@Ogre@@QEBA_KXZ 
?getOldNodeTrack@Animation@Ogre@@QEBAPEAVOldNodeAnimationTrack@2@G@Z 
?getOldNodeTrackIterator@Animation@Ogre@@QEBA?AV?$ConstMapIterator@V?$map@GPEAVOldNodeAnimationTrack@Ogre@@U?$less@G@std@@V?$STLAllocator@U?$pair@$$CBGPEAVOldNodeAnimationTrack@Ogre@@@std@@V?$CategorisedAllocPolicy@$0A@@Ogre@@@2@@std@@@2@XZ 
?getOldSkeleton@Mesh@Ogre@@QEBAAEBV?$SharedPtr@VSkeleton@Ogre@@@2@XZ 
?getOnlyLightType@Pass@Ogre@@QEBA?AW4LightTypes@Light@2@XZ 
?getOperationType@RenderToVertexBuffer@Ogre@@QEBA?AW4OperationType@RenderOperation@2@XZ 
?getOption@SceneManager@Ogre@@UEAA_NAEBV?$basic_string@DU?$char_traits@D@std@@V?$allocator@D@2@@std@@PEAX@Z 
?getOptionKeys@SceneManager@Ogre@@UEAA_NAEAV?$vector@V?$basic_string@DU?$char_traits@D@std@@V?$allocator@D@2@@std@@V?$STLAllocator@V?$basic_string@DU?$char_traits@D@std@@V?$allocator@D@2@@std@@V?$CategorisedAllocPolicy@$0A@@Ogre@@@Ogre@@@std@@@Z 
?getOptionValues@SceneManager@Ogre@@UEAA_NAEBV?$basic_string@DU?$char_traits@D@std@@V?$allocator@D@2@@std@@AEAV?$vector@V?$basic_string@DU?$char_traits@D@std@@V?$allocator@D@2@@std@@V?$STLAllocator@V?$basic_string@DU?$char_traits@D@std@@V?$allocator@D@2@@std@@V?$CategorisedAllocPolicy@$0A@@Ogre@@@Ogre@@@4@@Z 
?getOrientation@Bone@Ogre@@QEBA?AVQuaternion@2@XZ 
?getOrientation@Camera@Ogre@@QEBAAEBVQuaternion@2@XZ 
?getOrientation@Node@Ogre@@QEBA?AVQuaternion@2@XZ 
?getOrientation@OldNode@Ogre@@UEBAAEBVQuaternion@2@XZ 
?getOrientationForViewUpdate@Camera@Ogre@@UEBAAEBVQuaternion@2@XZ 
?getOrientationForViewUpdate@Frustum@Ogre@@UEBAAEBVQuaternion@2@XZ 
?getOrientationMode@Frustum@Ogre@@QEBA?AW4OrientationMode@2@XZ 
?getOrientationMode@Viewport@Ogre@@QEBA?AW4OrientationMode@2@XZ 
?getOrigin@ParticleSystem@Ogre@@QEBAAEBV?$basic_string@DU?$char_traits@D@std@@V?$allocator@D@2@@std@@XZ 
?getOrigin@Ray@Ogre@@QEBAAEBVVector3@2@XZ 
?getOrigin@Resource@Ogre@@UEBAAEBV?$basic_string@DU?$char_traits@D@std@@V?$allocator@D@2@@std@@XZ 
?getOrigin@StaticGeometry@Ogre@@UEBAAEBVVector3@2@XZ 
?getOrthoWindowHeight@Frustum@Ogre@@UEBAMXZ 
?getOrthoWindowWidth@Frustum@Ogre@@UEBAMXZ 
?getOtherTextureCoordRange@BillboardChain@Ogre@@UEBAPEBMXZ 
?getOverlaysEnabled@Viewport@Ogre@@QEBA_NXZ 
?getOwnHeight@Billboard@Ogre@@QEBAMXZ 
?getOwnHeight@Particle@Ogre@@QEBAMXZ 
?getOwnWidth@Billboard@Ogre@@QEBAMXZ 
?getOwnWidth@Particle@Ogre@@QEBAMXZ 
?getPackedTextureSize@AutoParamDataSource@Ogre@@QEBA?AVVector4@2@_K@Z 
?getParamCommand@ParamDictionary@Ogre@@IEAAPEAVParamCommand@2@AEBV?$basic_string@DU?$char_traits@D@std@@V?$allocator@D@2@@std@@@Z 
?getParamCommand@ParamDictionary@Ogre@@IEBAPEBVParamCommand@2@AEBV?$basic_string@DU?$char_traits@D@std@@V?$allocator@D@2@@std@@@Z 
?getParamDictionary@StringInterface@Ogre@@QEAAPEAVParamDictionary@2@XZ 
?getParamDictionary@StringInterface@Ogre@@QEBAPEBVParamDictionary@2@XZ 
?getParameter@StringInterface@Ogre@@UEBA?AV?$basic_string@DU?$char_traits@D@std@@V?$allocator@D@2@@std@@AEBV34@@Z 
?getParameters@GpuProgramUsage@Ogre@@QEAA?AV?$SharedPtr@VGpuProgramParameters@Ogre@@@2@XZ 
?getParameters@ParamDictionary@Ogre@@QEBAAEBV?$vector@VParameterDef@Ogre@@V?$STLAllocator@VParameterDef@Ogre@@V?$CategorisedAllocPolicy@$0A@@2@@2@@std@@XZ 
?getParameters@StringInterface@Ogre@@QEBAAEBV?$vector@VParameterDef@Ogre@@V?$STLAllocator@VParameterDef@Ogre@@V?$CategorisedAllocPolicy@$0A@@2@@2@@std@@XZ 
?getParametricOffsets@BillboardSet@Ogre@@IEAAXAEAM000@Z 
?getParent@AnimationState@Ogre@@QEBAPEAVAnimationStateSet@2@XZ 
?getParent@AnimationTrack@Ogre@@QEBAPEAVAnimation@2@XZ 
?getParent@Bone@Ogre@@QEBAPEAV12@XZ 
?getParent@GeometryBucket@StaticGeometry@Ogre@@QEAAPEAVMaterialBucket@23@XZ 
?getParent@LODBucket@StaticGeometry@Ogre@@QEAAPEAVRegion@23@XZ 
?getParent@MaterialBucket@StaticGeometry@Ogre@@QEAAPEAVLODBucket@23@XZ 
?getParent@Node@Ogre@@QEBAPEAV12@XZ 
?getParent@OldNode@Ogre@@UEBAPEAV12@XZ 
?getParent@Pass@Ogre@@QEBAPEAVTechnique@2@XZ 
?getParent@Region@StaticGeometry@Ogre@@QEBAPEAV23@XZ 
?getParent@SubEntity@Ogre@@QEBAPEAVEntity@2@XZ 
?getParent@Technique@Ogre@@QEBAPEAVMaterial@2@XZ 
?getParent@TextureUnitState@Ogre@@QEBAPEAVPass@2@XZ 
?getParentEntity@TagPoint@Ogre@@QEBAPEAVEntity@2@XZ 
?getParentNode@CompositorPass@Ogre@@QEBAPEBVCompositorNode@2@XZ 
?getParentNode@MovableObject@Ogre@@QEBAPEAVNode@2@XZ 
?getParentNode@SkeletonInstance@Ogre@@QEBAPEAVNode@2@XZ 
?getParentSceneNode@MovableObject@Ogre@@QEBAPEAVSceneNode@2@XZ 
?getParentSceneNode@SceneNode@Ogre@@QEBAPEAV12@XZ 
?getParticle@ParticleSystem@Ogre@@QEAAPEAVParticle@2@_K@Z 
?getParticleQuota@ParticleSystem@Ogre@@QEBA_KXZ 
?getParticleVelocity@ParticleEmitter@Ogre@@UEBAMXZ 
?getPass@CompositorPassQuad@Ogre@@QEAAPEAVPass@2@XZ 
?getPass@Technique@Ogre@@QEAAPEAVPass@2@AEBV?$basic_string@DU?$char_traits@D@std@@V?$allocator@D@2@@std@@@Z 
?getPass@Technique@Ogre@@QEAAPEAVPass@2@G@Z 
?getPassFogStates@GpuProgram@Ogre@@UEBA_NXZ 
?getPassFogStates@UnifiedHighLevelGpuProgram@Ogre@@UEBA_NXZ 
?getPassGraveyard@Pass@Ogre@@SAAEBV?$set@PEAVPass@Ogre@@U?$less@PEAVPass@Ogre@@@std@@V?$STLAllocator@PEAVPass@Ogre@@V?$CategorisedAllocPolicy@$0A@@2@@2@@std@@XZ 
?getPassIterationCount@Pass@Ogre@@QEBA_KXZ 
?getPassIterationNumberIndex@GpuProgramParameters@Ogre@@QEBA_KXZ 
?getPassIterator@Technique@Ogre@@QEAA?BV?$VectorIterator@V?$vector@PEAVPass@Ogre@@V?$STLAllocator@PEAVPass@Ogre@@V?$CategorisedAllocPolicy@$0A@@2@@2@@std@@@2@XZ 
?getPassNumber@AutoParamDataSource@Ogre@@QEBAHXZ 
?getPassSurfaceAndLightStates@GpuProgram@Ogre@@UEBA_NXZ 
?getPassSurfaceAndLightStates@UnifiedHighLevelGpuProgram@Ogre@@UEBA_NXZ 
?getPassTransformStates@GpuProgram@Ogre@@UEBA_NXZ 
?getPassTransformStates@UnifiedHighLevelGpuProgram@Ogre@@UEBA_NXZ 
?getPassthroughControllerFunction@ControllerManager@Ogre@@QEBAAEBV?$SharedPtr@V?$ControllerFunction@M@Ogre@@@2@XZ 
?getPitch@Quaternion@Ogre@@QEBA?AVRadian@2@_N@Z 
?getPixelBox@Image@Ogre@@QEBA?AVPixelBox@2@_K0@Z 
?getPixelDisplayRatio@Camera@Ogre@@QEBAMXZ 
?getPlaneBoundedVolume@Frustum@Ogre@@QEAA?AVPlaneBoundedVolume@2@XZ 
?getPlayMode@ExternalTextureSource@Ogre@@QEBA?AW4eTexturePlayMode@2@XZ 
?getPluginStringName@ExternalTextureSource@Ogre@@QEBAAEBV?$basic_string@DU?$char_traits@D@std@@V?$allocator@D@2@@std@@XZ 
?getPoint@Ray@Ogre@@QEBA?AVVector3@2@M@Z 
?getPoint@RotationalSpline@Ogre@@QEBAAEBVQuaternion@2@G@Z 
?getPoint@SimpleSpline@Ogre@@QEBAAEBVVector3@2@G@Z 
?getPointAttenuationConstant@Pass@Ogre@@QEBAMXZ 
?getPointAttenuationLinear@Pass@Ogre@@QEBAMXZ 
?getPointAttenuationQuadratic@Pass@Ogre@@QEBAMXZ 
?getPointLightExtruderArbvp1@ShadowVolumeExtrudeProgram@Ogre@@SAAEBV?$basic_string@DU?$char_traits@D@std@@V?$allocator@D@2@@std@@XZ 
?getPointLightExtruderArbvp1Debug@ShadowVolumeExtrudeProgram@Ogre@@SAAEBV?$basic_string@DU?$char_traits@D@std@@V?$allocator@D@2@@std@@XZ 
?getPointLightExtruderArbvp1Finite@ShadowVolumeExtrudeProgram@Ogre@@SAAEBV?$basic_string@DU?$char_traits@D@std@@V?$allocator@D@2@@std@@XZ 
?getPointLightExtruderArbvp1FiniteDebug@ShadowVolumeExtrudeProgram@Ogre@@SAAEBV?$basic_string@DU?$char_traits@D@std@@V?$allocator@D@2@@std@@XZ 
?getPointLightExtruderVs_1_1@ShadowVolumeExtrudeProgram@Ogre@@SAAEBV?$basic_string@DU?$char_traits@D@std@@V?$allocator@D@2@@std@@XZ 
?getPointLightExtruderVs_1_1Debug@ShadowVolumeExtrudeProgram@Ogre@@SAAEBV?$basic_string@DU?$char_traits@D@std@@V?$allocator@D@2@@std@@XZ 
?getPointLightExtruderVs_1_1Finite@ShadowVolumeExtrudeProgram@Ogre@@SAAEBV?$basic_string@DU?$char_traits@D@std@@V?$allocator@D@2@@std@@XZ 
?getPointLightExtruderVs_1_1FiniteDebug@ShadowVolumeExtrudeProgram@Ogre@@SAAEBV?$basic_string@DU?$char_traits@D@std@@V?$allocator@D@2@@std@@XZ 
?getPointLightExtruderVs_4_0@ShadowVolumeExtrudeProgram@Ogre@@SAAEBV?$basic_string@DU?$char_traits@D@std@@V?$allocator@D@2@@std@@XZ 
?getPointLightExtruderVs_4_0Debug@ShadowVolumeExtrudeProgram@Ogre@@SAAEBV?$basic_string@DU?$char_traits@D@std@@V?$allocator@D@2@@std@@XZ 
?getPointLightExtruderVs_4_0Finite@ShadowVolumeExtrudeProgram@Ogre@@SAAEBV?$basic_string@DU?$char_traits@D@std@@V?$allocator@D@2@@std@@XZ 
?getPointLightExtruderVs_4_0FiniteDebug@ShadowVolumeExtrudeProgram@Ogre@@SAAEBV?$basic_string@DU?$char_traits@D@std@@V?$allocator@D@2@@std@@XZ 
?getPointLightExtruderVs_glsl@ShadowVolumeExtrudeProgram@Ogre@@SAAEBV?$basic_string@DU?$char_traits@D@std@@V?$allocator@D@2@@std@@XZ 
?getPointLightExtruderVs_glslDebug@ShadowVolumeExtrudeProgram@Ogre@@SAAEBV?$basic_string@DU?$char_traits@D@std@@V?$allocator@D@2@@std@@XZ 
?getPointLightExtruderVs_glslFinite@ShadowVolumeExtrudeProgram@Ogre@@SAAEBV?$basic_string@DU?$char_traits@D@std@@V?$allocator@D@2@@std@@XZ 
?getPointLightExtruderVs_glslFiniteDebug@ShadowVolumeExtrudeProgram@Ogre@@SAAEBV?$basic_string@DU?$char_traits@D@std@@V?$allocator@D@2@@std@@XZ 
?getPointLightExtruderVs_glsles@ShadowVolumeExtrudeProgram@Ogre@@SAAEBV?$basic_string@DU?$char_traits@D@std@@V?$allocator@D@2@@std@@XZ 
?getPointLightExtruderVs_glslesDebug@ShadowVolumeExtrudeProgram@Ogre@@SAAEBV?$basic_string@DU?$char_traits@D@std@@V?$allocator@D@2@@std@@XZ 
?getPointLightExtruderVs_glslesFinite@ShadowVolumeExtrudeProgram@Ogre@@SAAEBV?$basic_string@DU?$char_traits@D@std@@V?$allocator@D@2@@std@@XZ 
?getPointLightExtruderVs_glslesFiniteDebug@ShadowVolumeExtrudeProgram@Ogre@@SAAEBV?$basic_string@DU?$char_traits@D@std@@V?$allocator@D@2@@std@@XZ 
?getPointMaxSize@Pass@Ogre@@QEBAMXZ 
?getPointMinSize@Pass@Ogre@@QEBAMXZ 
?getPointSize@Pass@Ogre@@QEBAMXZ 
?getPointSpritesEnabled@Pass@Ogre@@QEBA_NXZ 
?getPointer@?$SharedPtr@VHardwareCounterBuffer@Ogre@@@Ogre@@QEBAPEAVHardwareCounterBuffer@2@XZ 
?getPointer@?$SharedPtr@VHardwareIndexBuffer@Ogre@@@Ogre@@QEBAPEAVHardwareIndexBuffer@2@XZ 
?getPointer@?$SharedPtr@VHardwarePixelBuffer@Ogre@@@Ogre@@QEBAPEAVHardwarePixelBuffer@2@XZ 
?getPointer@?$SharedPtr@VHardwareUniformBuffer@Ogre@@@Ogre@@QEBAPEAVHardwareUniformBuffer@2@XZ 
?getPointer@?$SharedPtr@VHardwareVertexBuffer@Ogre@@@Ogre@@QEBAPEAVHardwareVertexBuffer@2@XZ 
?getPolygon@ConvexBody@Ogre@@QEBAAEBVPolygon@2@_K@Z 
?getPolygonCount@ConvexBody@Ogre@@QEBA_KXZ 
?getPolygonMode@Camera@Ogre@@QEBA?AW4PolygonMode@2@XZ 
?getPolygonMode@Pass@Ogre@@QEBA?AW4PolygonMode@2@XZ 
?getPolygonModeOverrideable@Pass@Ogre@@UEBA_NXZ 
?getPolygonModeOverrideable@Renderable@Ogre@@UEBA_NXZ 
?getPoolId@DepthBuffer@Ogre@@UEBAGXZ 
?getPoolSize@BillboardSet@Ogre@@UEBAIXZ 
?getPose@Mesh@Ogre@@QEAAPEAVPose@2@AEBV?$basic_string@DU?$char_traits@D@std@@V?$allocator@D@2@@std@@@Z 
?getPose@Mesh@Ogre@@QEAAPEAVPose@2@G@Z 
?getPoseCount@Mesh@Ogre@@QEBA_KXZ 
?getPoseIterator@Mesh@Ogre@@QEAA?AV?$VectorIterator@V?$vector@PEAVPose@Ogre@@V?$STLAllocator@PEAVPose@Ogre@@V?$CategorisedAllocPolicy@$0A@@2@@2@@std@@@2@XZ 
?getPoseIterator@Mesh@Ogre@@QEBA?AV?$ConstVectorIterator@V?$vector@PEAVPose@Ogre@@V?$STLAllocator@PEAVPose@Ogre@@V?$CategorisedAllocPolicy@$0A@@2@@2@@std@@@2@XZ 
?getPoseList@Mesh@Ogre@@QEBAAEBV?$vector@PEAVPose@Ogre@@V?$STLAllocator@PEAVPose@Ogre@@V?$CategorisedAllocPolicy@$0A@@2@@2@@std@@XZ 
?getPoseReferenceIterator@VertexPoseKeyFrame@Ogre@@QEAA?AV?$VectorIterator@V?$vector@UPoseRef@VertexPoseKeyFrame@Ogre@@V?$STLAllocator@UPoseRef@VertexPoseKeyFrame@Ogre@@V?$CategorisedAllocPolicy@$0A@@3@@3@@std@@@2@XZ 
?getPoseReferenceIterator@VertexPoseKeyFrame@Ogre@@QEBA?AV?$ConstVectorIterator@V?$vector@UPoseRef@VertexPoseKeyFrame@Ogre@@V?$STLAllocator@UPoseRef@VertexPoseKeyFrame@Ogre@@V?$CategorisedAllocPolicy@$0A@@3@@3@@std@@@2@XZ 
?getPoseReferences@VertexPoseKeyFrame@Ogre@@QEBAAEBV?$vector@UPoseRef@VertexPoseKeyFrame@Ogre@@V?$STLAllocator@UPoseRef@VertexPoseKeyFrame@Ogre@@V?$CategorisedAllocPolicy@$0A@@3@@3@@std@@XZ 
?getPosition@Billboard@Ogre@@QEBAAEBVVector3@2@XZ 
?getPosition@Bone@Ogre@@QEBA?AVVector3@2@XZ 
?getPosition@Camera@Ogre@@QEBAAEBVVector3@2@XZ 
?getPosition@Node@Ogre@@QEBA?AVVector3@2@XZ 
?getPosition@OldNode@Ogre@@UEBAAEBVVector3@2@XZ 
?getPosition@ParticleEmitter@Ogre@@UEBAAEBVVector3@2@XZ 
?getPositionForViewUpdate@Camera@Ogre@@UEBAAEBVVector3@2@XZ 
?getPositionForViewUpdate@Frustum@Ogre@@UEBAAEBVVector3@2@XZ 
?getPowerScale@Light@Ogre@@QEBAMXZ 
?getPreferredFloatBitDepth@TextureManager@Ogre@@UEBAGXZ 
?getPreferredIntegerBitDepth@TextureManager@Ogre@@UEBAGXZ 
?getPrepareAllMeshesForShadowVolumes@MeshManager@Ogre@@QEAA_NXZ 
?getPriority@RenderTarget@Ogre@@UEBAEXZ 
?getPriority@UnifiedHighLevelGpuProgram@Ogre@@SAHV?$basic_string@DU?$char_traits@D@std@@V?$allocator@D@2@@std@@@Z 
?getProfileGroupMask@Profiler@Ogre@@QEBAIXZ 
?getProgram@GpuProgramUsage@Ogre@@QEBAAEBV?$SharedPtr@VGpuProgram@Ogre@@@2@XZ 
?getProgramName@GpuProgramUsage@Ogre@@QEBAAEBV?$basic_string@DU?$char_traits@D@std@@V?$allocator@D@2@@std@@XZ 
?getProgramName@ShadowVolumeExtrudeProgram@Ogre@@SAAEBV?$basic_string@DU?$char_traits@D@std@@V?$allocator@D@2@@std@@W4LightTypes@Light@2@_N1@Z 
?getProgramSource@ShadowVolumeExtrudeProgram@Ogre@@SAAEBV?$basic_string@DU?$char_traits@D@std@@V?$allocator@D@2@@std@@W4LightTypes@Light@2@AEBV34@_N2@Z 
?getProjectionMatrix@AutoParamDataSource@Ogre@@QEBAAEBVMatrix4@2@XZ 
?getProjectionMatrix@Frustum@Ogre@@UEBAAEBVMatrix4@2@XZ 
?getProjectionMatrixRS@Frustum@Ogre@@UEBAAEBVMatrix4@2@XZ 
?getProjectionMatrixWithRSDepth@Frustum@Ogre@@UEBAAEBVMatrix4@2@XZ 
?getProjectionType@Frustum@Ogre@@UEBA?AW4ProjectionType@2@XZ 
?getProperty@Hlms@Ogre@@IEBAHUIdString@2@H@Z 
?getPssmSplits@AutoParamDataSource@Ogre@@QEBAAEBV?$vector@MV?$STLAllocator@MV?$CategorisedAllocPolicy@$0A@@Ogre@@@Ogre@@@std@@_K@Z 
?getPssmSplits@CompositorShadowNode@Ogre@@QEBAPEBV?$vector@MV?$STLAllocator@MV?$CategorisedAllocPolicy@$0A@@Ogre@@@Ogre@@@std@@_K@Z 
?getPtr@MemoryDataStream@Ogre@@QEAAPEAEXZ 
?getQueryFlags@MovableObject@Ogre@@QEBAIXZ 
?getQueryMask@SceneQuery@Ogre@@UEBAIXZ 
?getQueueGroup@RenderQueue@Ogre@@QEAAPEAVRenderQueueGroup@2@E@Z 
?getQueuedAsString@MaterialSerializer@Ogre@@QEBAAEBV?$basic_string@DU?$char_traits@D@std@@V?$allocator@D@2@@std@@XZ 
?getQueuedRenderableVisitor@SceneManager@Ogre@@QEBAPEAVSceneMgrQueuedRenderableVisitor@12@XZ 
?getRadius@Aabb@Ogre@@QEBAMXZ 
?getRadius@Sphere@Ogre@@QEBAMXZ 
?getRadiusOrigin@Aabb@Ogre@@QEBAMXZ 
?getRay@RaySceneQuery@Ogre@@UEBAAEBVRay@2@XZ 
?getRayForwardIntersect@Camera@Ogre@@MEBA?AV?$vector@VVector4@Ogre@@V?$STLAllocator@VVector4@Ogre@@V?$CategorisedAllocPolicy@$0A@@2@@2@@std@@AEBVVector3@2@PEBV52@M@Z 
?getReal@ScriptTranslator@Ogre@@KA_NAEBV?$SharedPtr@VAbstractNode@Ogre@@@2@PEAM@Z 
?getRealDirection@Camera@Ogre@@QEBA?AVVector3@2@XZ 
?getRealOrientation@Camera@Ogre@@QEBAAEBVQuaternion@2@XZ 
?getRealPosition@Camera@Ogre@@QEBAAEBVVector3@2@XZ 
?getRealRight@Camera@Ogre@@QEBA?AVVector3@2@XZ 
?getRealUp@Camera@Ogre@@QEBA?AVVector3@2@XZ 
?getReceiveShadows@Material@Ogre@@QEBA_NXZ 
?getReceivesShadows@MovableObject@Ogre@@QEAA_NXZ 
?getReferencedMRTIndex@TextureUnitState@Ogre@@QEBA_KXZ 
?getReferencedTextureName@TextureUnitState@Ogre@@QEBA?AUIdString@2@XZ 
?getReflectionMatrix@Frustum@Ogre@@UEBAAEBVMatrix4@2@XZ 
?getReflectionPlane@Frustum@Ogre@@UEBAAEBVPlane@2@XZ 
?getRegion@StaticGeometry@Ogre@@MEAAPEAVRegion@12@AEBVAxisAlignedBox@2@_N@Z 
?getRegion@StaticGeometry@Ogre@@MEAAPEAVRegion@12@AEBVVector3@2@_N@Z 
?getRegion@StaticGeometry@Ogre@@MEAAPEAVRegion@12@GGG_N@Z 
?getRegion@StaticGeometry@Ogre@@MEAAPEAVRegion@12@I@Z 
?getRegionBounds@StaticGeometry@Ogre@@MEAA?AVAxisAlignedBox@2@GGG@Z 
?getRegionCentre@StaticGeometry@Ogre@@MEAA?AVVector3@2@GGG@Z 
?getRegionDimensions@StaticGeometry@Ogre@@UEBAAEBVVector3@2@XZ 
?getRegionIndexes@StaticGeometry@Ogre@@MEAAXAEBVVector3@2@AEAG11@Z 
?getRegionIterator@StaticGeometry@Ogre@@QEAA?AV?$MapIterator@V?$map@IPEAVRegion@StaticGeometry@Ogre@@U?$less@I@std@@V?$STLAllocator@U?$pair@$$CBIPEAVRegion@StaticGeometry@Ogre@@@std@@V?$CategorisedAllocPolicy@$0A@@Ogre@@@3@@std@@@2@XZ 
?getRelativeOrigin@SceneManager@Ogre@@QEBA?AVVector3@2@XZ 
?getRemoveRenderQueueStructuresOnClear@Root@Ogre@@QEBA_NXZ 
?getRenderOperation@BillboardChain@Ogre@@UEAAXAEAVRenderOperation@2@@Z 
?getRenderOperation@BillboardSet@Ogre@@UEAAXAEAVRenderOperation@2@@Z 
?getRenderOperation@Frustum@Ogre@@UEAAXAEAVRenderOperation@2@@Z 
?getRenderOperation@GeometryBucket@StaticGeometry@Ogre@@UEAAXAEAVRenderOperation@3@@Z 
?getRenderOperation@InstanceBatch@Ogre@@UEAAXAEAVRenderOperation@2@@Z 
?getRenderOperation@ManualObjectSection@ManualObject@Ogre@@QEAAPEAVRenderOperation@3@XZ 
?getRenderOperation@ManualObjectSection@ManualObject@Ogre@@UEAAXAEAVRenderOperation@3@@Z 
?getRenderOperation@Rectangle2D@Ogre@@UEAAXAEAVRenderOperation@2@@Z 
?getRenderOperation@SimpleRenderable@Ogre@@UEAAXAEAVRenderOperation@2@@Z 
?getRenderOperation@SubEntity@Ogre@@UEAAXAEAVRenderOperation@2@@Z 
?getRenderQueue@SceneManager@Ogre@@UEAAPEAVRenderQueue@2@XZ 
?getRenderQueueGroup@MovableObject@Ogre@@QEBAEXZ 
?getRenderQueueGroup@StaticGeometry@Ogre@@UEBAEXZ 
?getRenderQueueGroupID@RenderQueueInvocation@Ogre@@UEBAEXZ 
?getRenderQueueInvocationSequence@Root@Ogre@@QEAAPEAVRenderQueueInvocationSequence@2@AEBV?$basic_string@DU?$char_traits@D@std@@V?$allocator@D@2@@std@@@Z 
?getRenderQueueInvocationSequenceName@Viewport@Ogre@@UEBAAEBV?$basic_string@DU?$char_traits@D@std@@V?$allocator@D@2@@std@@XZ 
?getRenderSystem@Root@Ogre@@QEAAPEAVRenderSystem@2@XZ 
?getRenderSystemByName@Root@Ogre@@QEAAPEAVRenderSystem@2@AEBV?$basic_string@DU?$char_traits@D@std@@V?$allocator@D@2@@std@@@Z 
?getRenderSystemData@Renderable@Ogre@@UEBAPEAVRenderSystemData@12@XZ 
?getRenderSystemEvents@RenderSystem@Ogre@@UEBAAEBV?$vector@V?$basic_string@DU?$char_traits@D@std@@V?$allocator@D@2@@std@@V?$STLAllocator@V?$basic_string@DU?$char_traits@D@std@@V?$allocator@D@2@@std@@V?$CategorisedAllocPolicy@$0A@@Ogre@@@Ogre@@@std@@XZ 
?getRenderSystemName@RenderSystemCapabilities@Ogre@@QEBA?AV?$basic_string@DU?$char_traits@D@std@@V?$allocator@D@2@@std@@XZ 
?getRenderTarget@HardwarePixelBuffer@Ogre@@UEAAPEAVRenderTexture@2@_K@Z 
?getRenderTarget@RenderSystem@Ogre@@UEAAPEAVRenderTarget@2@AEBV?$basic_string@DU?$char_traits@D@std@@V?$allocator@D@2@@std@@@Z 
?getRenderTarget@Root@Ogre@@QEAAPEAVRenderTarget@2@AEBV?$basic_string@DU?$char_traits@D@std@@V?$allocator@D@2@@std@@@Z 
?getRenderTargetIterator@RenderSystem@Ogre@@UEAA?AV?$MapIterator@V?$map@V?$basic_string@DU?$char_traits@D@std@@V?$allocator@D@2@@std@@PEAVRenderTarget@Ogre@@U?$less@V?$basic_string@DU?$char_traits@D@std@@V?$allocator@D@2@@std@@@2@V?$STLAllocator@U?$pair@$$CBV?$basic_string@DU?$char_traits@D@std@@V?$allocator@D@2@@std@@PEAVRenderTarget@Ogre@@@std@@V?$CategorisedAllocPolicy@$0A@@Ogre@@@4@@std@@@2@XZ 
?getRenderTargetName@CompositorTargetDef@Ogre@@QEBA?AUIdString@2@XZ 
?getRenderToBufferMaterial@RenderToVertexBuffer@Ogre@@QEAAAEBV?$SharedPtr@VMaterial@Ogre@@@2@XZ 
?getRenderableCache@Hlms@Ogre@@IEBAPEBUHlmsCache@2@I@Z 
?getRenderableListener@RenderQueue@Ogre@@QEBAPEAVRenderableListener@12@XZ 
?getRenderer@ParticleSystem@Ogre@@QEBAPEAVParticleSystemRenderer@2@XZ 
?getRendererFactoryIterator@ParticleSystemManager@Ogre@@QEAA?AV?$MapIterator@V?$map@V?$basic_string@DU?$char_traits@D@std@@V?$allocator@D@2@@std@@PEAVParticleSystemRendererFactory@Ogre@@U?$less@V?$basic_string@DU?$char_traits@D@std@@V?$allocator@D@2@@std@@@2@V?$STLAllocator@U?$pair@$$CBV?$basic_string@DU?$char_traits@D@std@@V?$allocator@D@2@@std@@PEAVParticleSystemRendererFactory@Ogre@@@std@@V?$CategorisedAllocPolicy@$0A@@Ogre@@@4@@std@@@2@XZ 
?getRendererName@ParticleSystem@Ogre@@QEBAAEBV?$basic_string@DU?$char_traits@D@std@@V?$allocator@D@2@@std@@XZ 
?getRenderingDistance@MovableObject@Ogre@@QEBAMXZ 
?getRenderingDistance@StaticGeometry@Ogre@@UEBAMXZ 
?getRenderingMinPixelSize@MovableObject@Ogre@@QEBAMXZ 
?getRepeatDelay@ParticleEmitter@Ogre@@UEBAMXZ 
?getRequest@Response@WorkQueue@Ogre@@QEBAPEBVRequest@23@XZ 
?getRequestsAccepted@DefaultWorkQueueBase@Ogre@@UEBA_NXZ 
?getRequiredIndexCount@PatchSurface@Ogre@@QEBA_KXZ 
?getRequiredVertexCount@PatchSurface@Ogre@@QEBA_KXZ 
?getResetsEveryUpdate@RenderToVertexBuffer@Ogre@@QEBA_NXZ 
?getResourceByName@GpuProgramManager@Ogre@@QEAA?AV?$SharedPtr@VResource@Ogre@@@2@AEBV?$basic_string@DU?$char_traits@D@std@@V?$allocator@D@2@@std@@_N@Z 
?getResourceByName@ResourceManager@Ogre@@UEAA?AV?$SharedPtr@VResource@Ogre@@@2@AEBV?$basic_string@DU?$char_traits@D@std@@V?$allocator@D@2@@std@@0@Z 
?getResourceDeclarationList@ResourceGroupManager@Ogre@@QEAA?AV?$list@UResourceDeclaration@ResourceGroupManager@Ogre@@V?$STLAllocator@UResourceDeclaration@ResourceGroupManager@Ogre@@V?$CategorisedAllocPolicy@$0A@@3@@3@@std@@AEBV?$basic_string@DU?$char_traits@D@std@@V?$allocator@D@2@@4@@Z 
?getResourceGroup@Pass@Ogre@@QEBAAEBV?$basic_string@DU?$char_traits@D@std@@V?$allocator@D@2@@std@@XZ 
?getResourceGroup@ResourceGroupManager@Ogre@@IEAAPEAUResourceGroup@12@AEBV?$basic_string@DU?$char_traits@D@std@@V?$allocator@D@2@@std@@@Z 
?getResourceGroup@ScriptCompiler@Ogre@@QEBAAEBV?$basic_string@DU?$char_traits@D@std@@V?$allocator@D@2@@std@@XZ 
?getResourceGroup@Technique@Ogre@@QEBAAEBV?$basic_string@DU?$char_traits@D@std@@V?$allocator@D@2@@std@@XZ 
?getResourceGroupName@ParticleSystem@Ogre@@UEBAAEBV?$basic_string@DU?$char_traits@D@std@@V?$allocator@D@2@@std@@XZ 
?getResourceGroups@ResourceGroupManager@Ogre@@QEAA?AV?$vector@V?$basic_string@DU?$char_traits@D@std@@V?$allocator@D@2@@std@@V?$STLAllocator@V?$basic_string@DU?$char_traits@D@std@@V?$allocator@D@2@@std@@V?$CategorisedAllocPolicy@$0A@@Ogre@@@Ogre@@@std@@XZ 
?getResourceIterator@ResourceManager@Ogre@@QEAA?AV?$MapIterator@V?$map@_KV?$SharedPtr@VResource@Ogre@@@Ogre@@U?$less@_K@std@@V?$STLAllocator@U?$pair@$$CB_KV?$SharedPtr@VResource@Ogre@@@Ogre@@@std@@V?$CategorisedAllocPolicy@$0A@@Ogre@@@2@@std@@@2@XZ 
?getResourceLocationList@ResourceGroupManager@Ogre@@QEAAAEBV?$list@PEAUResourceLocation@ResourceGroupManager@Ogre@@V?$STLAllocator@PEAUResourceLocation@ResourceGroupManager@Ogre@@V?$CategorisedAllocPolicy@$0A@@3@@3@@std@@AEBV?$basic_string@DU?$char_traits@D@std@@V?$allocator@D@2@@4@@Z 
?getResourceManagerIterator@ResourceGroupManager@Ogre@@QEAA?AV?$MapIterator@V?$map@V?$basic_string@DU?$char_traits@D@std@@V?$allocator@D@2@@std@@PEAVResourceManager@Ogre@@U?$less@V?$basic_string@DU?$char_traits@D@std@@V?$allocator@D@2@@std@@@2@V?$STLAllocator@U?$pair@$$CBV?$basic_string@DU?$char_traits@D@std@@V?$allocator@D@2@@std@@PEAVResourceManager@Ogre@@@std@@V?$CategorisedAllocPolicy@$0A@@Ogre@@@4@@std@@@2@XZ 
?getResourcePool@ResourceManager@Ogre@@QEAAPEAVResourcePool@12@AEBV?$basic_string@DU?$char_traits@D@std@@V?$allocator@D@2@@std@@@Z 
?getResourceType@ResourceManager@Ogre@@QEBAAEBV?$basic_string@DU?$char_traits@D@std@@V?$allocator@D@2@@std@@XZ 
?getResponseProcessingTimeLimit@DefaultWorkQueueBase@Ogre@@UEBAKXZ 
?getRetryCount@Request@WorkQueue@Ogre@@QEBAEXZ 
?getReverseBindPose@SkeletonDef@Ogre@@QEBAAEBV?$RawSimdUniquePtr@VArrayMatrixAf4x3@Ogre@@$01@2@XZ 
?getRight@Camera@Ogre@@QEBA?AVVector3@2@XZ 
?getRoll@Quaternion@Ogre@@QEBA?AVRadian@2@_N@Z 
?getRootBone@Skeleton@Ogre@@UEBAPEAVOldBone@2@XZ 
?getRootBoneIterator@Skeleton@Ogre@@UEAA?AV?$VectorIterator@V?$vector@PEAVOldBone@Ogre@@V?$STLAllocator@PEAVOldBone@Ogre@@V?$CategorisedAllocPolicy@$0A@@2@@2@@std@@@2@XZ 
?getRootSceneNode@SceneManager@Ogre@@QEAAPEAVSceneNode@2@W4SceneMemoryMgrTypes@2@@Z 
?getRotation@Billboard@Ogre@@QEBAAEBVRadian@2@XZ 
?getRotation@Particle@Ogre@@QEBAAEBVRadian@2@XZ 
?getRotation@TransformKeyFrame@Ogre@@UEBAAEBVQuaternion@2@XZ 
?getRotationInterpolationMode@Animation@Ogre@@QEBA?AW4RotationInterpolationMode@12@XZ 
?getRotationTo@Vector3@Ogre@@QEBA?AVQuaternion@2@AEBV12@0@Z 
?getRowSkip@PixelBox@Ogre@@QEBA_KXZ 
?getRowSpan@Image@Ogre@@QEBA_KXZ 
?getRtIndex@CompositorPassDef@Ogre@@QEBAIXZ 
?getRunOnlyForOneLightType@Pass@Ogre@@QEBA_NXZ 
?getSaveMicrocodesToCache@GpuProgramManager@Ogre@@QEAA_NXZ 
?getScale@Bone@Ogre@@QEBA?AVVector3@2@XZ 
?getScale@Matrix4@Ogre@@SA?AV12@AEBVVector3@2@@Z 
?getScale@Matrix4@Ogre@@SA?AV12@MMM@Z 
?getScale@Node@Ogre@@QEBA?AVVector3@2@XZ 
?getScale@OldNode@Ogre@@UEBAAEBVVector3@2@XZ 
?getScale@TransformKeyFrame@Ogre@@UEBAAEBVVector3@2@XZ 
?getSceneBlendFactor@ScriptTranslator@Ogre@@KA_NAEBV?$SharedPtr@VAbstractNode@Ogre@@@2@PEAW4SceneBlendFactor@2@@Z 
?getSceneBlendingOperation@Pass@Ogre@@QEBA?AW4SceneBlendOperation@2@XZ 
?getSceneBlendingOperationAlpha@Pass@Ogre@@QEBA?AW4SceneBlendOperation@2@XZ 
?getSceneDepthRange@AutoParamDataSource@Ogre@@QEBAAEBVVector4@2@XZ 
?getSceneManager@Camera@Ogre@@QEBAPEAVSceneManager@2@XZ 
?getSceneManager@CompositorWorkspace@Ogre@@QEBAPEAVSceneManager@2@XZ 
?getSceneManager@InstanceManager@Ogre@@QEBAPEAVSceneManager@2@XZ 
?getSceneManager@Root@Ogre@@QEBAPEAVSceneManager@2@AEBV?$basic_string@DU?$char_traits@D@std@@V?$allocator@D@2@@std@@@Z 
?getSceneManager@SceneManagerEnumerator@Ogre@@QEBAPEAVSceneManager@2@AEBV?$basic_string@DU?$char_traits@D@std@@V?$allocator@D@2@@std@@@Z 
?getSceneManagerIterator@Root@Ogre@@QEAA?AV?$MapIterator@V?$map@V?$basic_string@DU?$char_traits@D@std@@V?$allocator@D@2@@std@@PEAVSceneManager@Ogre@@U?$less@V?$basic_string@DU?$char_traits@D@std@@V?$allocator@D@2@@std@@@2@V?$STLAllocator@U?$pair@$$CBV?$basic_string@DU?$char_traits@D@std@@V?$allocator@D@2@@std@@PEAVSceneManager@Ogre@@@std@@V?$CategorisedAllocPolicy@$0A@@Ogre@@@4@@std@@@2@XZ 
?getSceneManagerIterator@SceneManagerEnumerator@Ogre@@QEAA?AV?$MapIterator@V?$map@V?$basic_string@DU?$char_traits@D@std@@V?$allocator@D@2@@std@@PEAVSceneManager@Ogre@@U?$less@V?$basic_string@DU?$char_traits@D@std@@V?$allocator@D@2@@std@@@2@V?$STLAllocator@U?$pair@$$CBV?$basic_string@DU?$char_traits@D@std@@V?$allocator@D@2@@std@@PEAVSceneManager@Ogre@@@std@@V?$CategorisedAllocPolicy@$0A@@Ogre@@@4@@std@@@2@XZ 
?getSceneManagerMetaData@Root@Ogre@@QEBAPEBUSceneManagerMetaData@2@AEBV?$basic_string@DU?$char_traits@D@std@@V?$allocator@D@2@@std@@@Z 
?getSceneManagerMetaDataIterator@Root@Ogre@@QEBA?AV?$ConstVectorIterator@V?$vector@PEBUSceneManagerMetaData@Ogre@@V?$STLAllocator@PEBUSceneManagerMetaData@Ogre@@V?$CategorisedAllocPolicy@$0A@@2@@2@@std@@@2@XZ 
?getSceneNode@SceneManager@Ogre@@QEAAPEAVSceneNode@2@I@Z 
?getSceneNode@SceneManager@Ogre@@QEBAPEBVSceneNode@2@I@Z 
?getSchemeName@Technique@Ogre@@QEBAAEBV?$basic_string@DU?$char_traits@D@std@@V?$allocator@D@2@@std@@XZ 
?getScriptPatterns@ParticleSystemManager@Ogre@@UEBAAEBV?$vector@V?$basic_string@DU?$char_traits@D@std@@V?$allocator@D@2@@std@@V?$STLAllocator@V?$basic_string@DU?$char_traits@D@std@@V?$allocator@D@2@@std@@V?$CategorisedAllocPolicy@$0A@@Ogre@@@Ogre@@@std@@XZ 
?getScriptPatterns@ResourceManager@Ogre@@UEBAAEBV?$vector@V?$basic_string@DU?$char_traits@D@std@@V?$allocator@D@2@@std@@V?$STLAllocator@V?$basic_string@DU?$char_traits@D@std@@V?$allocator@D@2@@std@@V?$CategorisedAllocPolicy@$0A@@Ogre@@@Ogre@@@std@@XZ 
?getScriptPatterns@ScriptCompilerManager@Ogre@@UEBAAEBV?$vector@V?$basic_string@DU?$char_traits@D@std@@V?$allocator@D@2@@std@@V?$STLAllocator@V?$basic_string@DU?$char_traits@D@std@@V?$allocator@D@2@@std@@V?$CategorisedAllocPolicy@$0A@@Ogre@@@Ogre@@@std@@XZ 
?getSection@ManualObject@Ogre@@QEBAPEAVManualObjectSection@12@I@Z 
?getSectionIterator@ConfigFile@Ogre@@QEAA?AV?$MapIterator@V?$map@V?$basic_string@DU?$char_traits@D@std@@V?$allocator@D@2@@std@@PEAV?$multimap@V?$basic_string@DU?$char_traits@D@std@@V?$allocator@D@2@@std@@V12@U?$less@V?$basic_string@DU?$char_traits@D@std@@V?$allocator@D@2@@std@@@2@V?$STLAllocator@U?$pair@$$CBV?$basic_string@DU?$char_traits@D@std@@V?$allocator@D@2@@std@@V12@@std@@V?$CategorisedAllocPolicy@$0A@@Ogre@@@Ogre@@@2@U?$less@V?$basic_string@DU?$char_traits@D@std@@V?$allocator@D@2@@std@@@2@V?$STLAllocator@U?$pair@$$CBV?$basic_string@DU?$char_traits@D@std@@V?$allocator@D@2@@std@@PEAV?$multimap@V?$basic_string@DU?$char_traits@D@std@@V?$allocator@D@2@@std@@V12@U?$less@V?$basic_string@DU?$char_traits@D@std@@V?$allocator@D@2@@std@@@2@V?$STLAllocator@U?$pair@$$CBV?$basic_string@DU?$char_traits@D@std@@V?$allocator@D@2@@std@@V12@@std@@V?$CategorisedAllocPolicy@$0A@@Ogre@@@Ogre@@@2@@std@@V?$CategorisedAllocPolicy@$0A@@Ogre@@@Ogre@@@std@@@2@XZ 
?getSelfIllumination@Pass@Ogre@@QEBAAEBVColourValue@2@XZ 
?getSemantic@VertexElement@Ogre@@QEBA?AW4VertexElementSemantic@2@XZ 
?getSetting@ConfigFile@Ogre@@QEBA?AV?$basic_string@DU?$char_traits@D@std@@V?$allocator@D@2@@std@@AEBV34@00@Z 
?getSetting@InstanceManager@Ogre@@QEBA_NW4BatchSettingId@12@UIdString@2@@Z 
?getSettingsIterator@ConfigFile@Ogre@@QEAA?AV?$MapIterator@V?$multimap@V?$basic_string@DU?$char_traits@D@std@@V?$allocator@D@2@@std@@V12@U?$less@V?$basic_string@DU?$char_traits@D@std@@V?$allocator@D@2@@std@@@2@V?$STLAllocator@U?$pair@$$CBV?$basic_string@DU?$char_traits@D@std@@V?$allocator@D@2@@std@@V12@@std@@V?$CategorisedAllocPolicy@$0A@@Ogre@@@Ogre@@@std@@@2@AEBV?$basic_string@DU?$char_traits@D@std@@V?$allocator@D@2@@std@@@Z 
?getShaderCache@Hlms@Ogre@@IEBAPEBUHlmsCache@2@I@Z 
?getShadingMode@Pass@Ogre@@QEBA?AW4ShadeOptions@2@XZ 
?getShadowCamera@DefaultShadowCameraSetup@Ogre@@UEBAXPEBVSceneManager@2@PEBVCamera@2@PEBVLight@2@PEAV42@_K@Z 
?getShadowCamera@FocusedShadowCameraSetup@Ogre@@UEBAXPEBVSceneManager@2@PEBVCamera@2@PEBVLight@2@PEAV42@_K@Z 
?getShadowCamera@PSSMShadowCameraSetup@Ogre@@UEBAXPEBVSceneManager@2@PEBVCamera@2@PEBVLight@2@PEAV42@_K@Z 
?getShadowCamera@PlaneOptimalShadowCameraSetup@Ogre@@UEBAXPEBVSceneManager@2@PEBVCamera@2@PEBVLight@2@PEAV42@_K@Z 
?getShadowCasterFragmentProgram@Pass@Ogre@@QEBAAEBV?$SharedPtr@VGpuProgram@Ogre@@@2@XZ 
?getShadowCasterFragmentProgramName@Pass@Ogre@@QEBAAEBV?$basic_string@DU?$char_traits@D@std@@V?$allocator@D@2@@std@@XZ 
?getShadowCasterFragmentProgramParameters@Pass@Ogre@@QEBA?AV?$SharedPtr@VGpuProgramParameters@Ogre@@@2@XZ 
?getShadowCasterMaterial@Technique@Ogre@@QEBA?AV?$SharedPtr@VMaterial@Ogre@@@2@XZ 
?getShadowCasterRenderBackFaces@SceneManager@Ogre@@UEBA_NXZ 
?getShadowCasterVertexProgram@Pass@Ogre@@QEBAAEBV?$SharedPtr@VGpuProgram@Ogre@@@2@XZ 
?getShadowCasterVertexProgramName@Pass@Ogre@@QEBAAEBV?$basic_string@DU?$char_traits@D@std@@V?$allocator@D@2@@std@@XZ 
?getShadowCasterVertexProgramParameters@Pass@Ogre@@QEBA?AV?$SharedPtr@VGpuProgramParameters@Ogre@@@2@XZ 
?getShadowCastingLights@CompositorShadowNode@Ogre@@QEBAAEBV?$FastArray@ULightClosest@Ogre@@@2@XZ 
?getShadowColour@AutoParamDataSource@Ogre@@QEBAAEBVColourValue@2@XZ 
?getShadowColour@SceneManager@Ogre@@UEBAAEBVColourValue@2@XZ 
?getShadowDirLightTextureOffset@SceneManager@Ogre@@UEBAMXZ 
?getShadowDirectionalLightExtrusionDistance@SceneManager@Ogre@@UEBAMXZ 
?getShadowExtrusionDistance@AutoParamDataSource@Ogre@@QEBAMXZ 
?getShadowFarClipDistance@Light@Ogre@@QEBAMXZ 
?getShadowFarDistance@Light@Ogre@@QEBAMXZ 
?getShadowFarDistance@SceneManager@Ogre@@UEBAMXZ 
?getShadowFarDistanceSquared@Light@Ogre@@QEBAMXZ 
?getShadowFarDistanceSquared@SceneManager@Ogre@@UEBAMXZ 
?getShadowNearClipDistance@Light@Ogre@@QEBAMXZ 
?getShadowNode@CompositorPassScene@Ogre@@QEBAPEAVCompositorShadowNode@2@XZ 
?getShadowNodeDefinition@CompositorManager2@Ogre@@QEBAPEBVCompositorShadowNodeDef@2@UIdString@2@@Z 
?getShadowSceneDepthRange@AutoParamDataSource@Ogre@@QEBAAEBVVector4@2@_K@Z 
?getShadowTextures@ShadowTextureManager@Ogre@@UEAAXAEBV?$vector@UShadowTextureConfig@Ogre@@V?$STLAllocator@UShadowTextureConfig@Ogre@@V?$CategorisedAllocPolicy@$0A@@2@@2@@std@@AEAV?$vector@V?$SharedPtr@VTexture@Ogre@@@Ogre@@V?$STLAllocator@V?$SharedPtr@VTexture@Ogre@@@Ogre@@V?$CategorisedAllocPolicy@$0A@@2@@2@@4@@Z 
?getSharedFullscreenQuad@CompositorManager2@Ogre@@QEBAPEAVRectangle2D@2@XZ 
?getSharedFullscreenTriangle@CompositorManager2@Ogre@@QEBAPEAVRectangle2D@2@XZ 
?getSharedParameters@GpuProgramManager@Ogre@@UEBA?AV?$SharedPtr@VGpuSharedParameters@Ogre@@@2@AEBV?$basic_string@DU?$char_traits@D@std@@V?$allocator@D@2@@std@@@Z 
?getSharedParameters@GpuProgramParameters@Ogre@@QEBAAEBV?$vector@VGpuSharedParametersUsage@Ogre@@V?$STLAllocator@VGpuSharedParametersUsage@Ogre@@V?$CategorisedAllocPolicy@$0A@@2@@2@@std@@XZ 
?getSharedParams@GpuSharedParametersUsage@Ogre@@QEBA?AV?$SharedPtr@VGpuSharedParameters@Ogre@@@2@XZ 
?getSharedVertexDataAnimationIncludesNormals@Mesh@Ogre@@QEBA_NXZ 
?getSharedVertexDataAnimationType@Mesh@Ogre@@UEBA?AW4VertexAnimationType@2@XZ 
?getShininess@Pass@Ogre@@QEBAMXZ 
?getShowBoundingBoxes@SceneManager@Ogre@@UEBA_NXZ 
?getSide@Plane@Ogre@@QEBA?AW4Side@12@AEBVAxisAlignedBox@2@@Z 
?getSide@Plane@Ogre@@QEBA?AW4Side@12@AEBVVector3@2@0@Z 
?getSide@Plane@Ogre@@QEBA?AW4Side@12@AEBVVector3@2@@Z 
?getSinTime_0_1@AutoParamDataSource@Ogre@@QEBAMM@Z 
?getSinTime_0_2Pi@AutoParamDataSource@Ogre@@QEBAMM@Z 
?getSinTime_0_X@AutoParamDataSource@Ogre@@QEBAMM@Z 
?getSingleEdges@ConvexBody@Ogre@@IEBA?AV?$multimap@VVector3@Ogre@@V12@U?$less@VVector3@Ogre@@@std@@V?$STLAllocator@U?$pair@$$CBVVector3@Ogre@@V12@@std@@V?$CategorisedAllocPolicy@$0A@@Ogre@@@2@@std@@XZ 
?getSingleton@?$Singleton@VAbsolutePixelCountLodStrategy@Ogre@@@Ogre@@SAAEAVAbsolutePixelCountLodStrategy@2@XZ 
?getSingleton@?$Singleton@VArchiveManager@Ogre@@@Ogre@@SAAEAVArchiveManager@2@XZ 
?getSingleton@?$Singleton@VControllerManager@Ogre@@@Ogre@@SAAEAVControllerManager@2@XZ 
?getSingleton@?$Singleton@VDistanceLodBoxStrategy@Ogre@@@Ogre@@SAAEAVDistanceLodBoxStrategy@2@XZ 
?getSingleton@?$Singleton@VDistanceLodSphereStrategy@Ogre@@@Ogre@@SAAEAVDistanceLodSphereStrategy@2@XZ 
?getSingleton@?$Singleton@VDynLibManager@Ogre@@@Ogre@@SAAEAVDynLibManager@2@XZ 
?getSingleton@?$Singleton@VExternalTextureSourceManager@Ogre@@@Ogre@@SAAEAVExternalTextureSourceManager@2@XZ 
?getSingleton@?$Singleton@VGpuProgramManager@Ogre@@@Ogre@@SAAEAVGpuProgramManager@2@XZ 
?getSingleton@?$Singleton@VHardwareBufferManager@Ogre@@@Ogre@@SAAEAVHardwareBufferManager@2@XZ 
?getSingleton@?$Singleton@VHighLevelGpuProgramManager@Ogre@@@Ogre@@SAAEAVHighLevelGpuProgramManager@2@XZ 
?getSingleton@?$Singleton@VLodStrategyManager@Ogre@@@Ogre@@SAAEAVLodStrategyManager@2@XZ 
?getSingleton@?$Singleton@VLogManager@Ogre@@@Ogre@@SAAEAVLogManager@2@XZ 
?getSingleton@?$Singleton@VMaterialManager@Ogre@@@Ogre@@SAAEAVMaterialManager@2@XZ 
?getSingleton@?$Singleton@VMeshManager@Ogre@@@Ogre@@SAAEAVMeshManager@2@XZ 
?getSingleton@?$Singleton@VOldSkeletonManager@Ogre@@@Ogre@@SAAEAVOldSkeletonManager@2@XZ 
?getSingleton@?$Singleton@VParticleSystemManager@Ogre@@@Ogre@@SAAEAVParticleSystemManager@2@XZ 
?getSingleton@?$Singleton@VProfiler@Ogre@@@Ogre@@SAAEAVProfiler@2@XZ 
?getSingleton@?$Singleton@VRenderSystemCapabilitiesManager@Ogre@@@Ogre@@SAAEAVRenderSystemCapabilitiesManager@2@XZ 
?getSingleton@?$Singleton@VResourceBackgroundQueue@Ogre@@@Ogre@@SAAEAVResourceBackgroundQueue@2@XZ 
?getSingleton@?$Singleton@VResourceGroupManager@Ogre@@@Ogre@@SAAEAVResourceGroupManager@2@XZ 
?getSingleton@?$Singleton@VRoot@Ogre@@@Ogre@@SAAEAVRoot@2@XZ 
?getSingleton@?$Singleton@VSceneManagerEnumerator@Ogre@@@Ogre@@SAAEAVSceneManagerEnumerator@2@XZ 
?getSingleton@?$Singleton@VScreenRatioPixelCountLodStrategy@Ogre@@@Ogre@@SAAEAVScreenRatioPixelCountLodStrategy@2@XZ 
?getSingleton@?$Singleton@VScriptCompilerManager@Ogre@@@Ogre@@SAAEAVScriptCompilerManager@2@XZ 
?getSingleton@?$Singleton@VShadowTextureManager@Ogre@@@Ogre@@SAAEAVShadowTextureManager@2@XZ 
?getSingleton@?$Singleton@VSkeletonManager@Ogre@@@Ogre@@SAAEAVSkeletonManager@2@XZ 
?getSingleton@?$Singleton@VTextureManager@Ogre@@@Ogre@@SAAEAVTextureManager@2@XZ 
?getSingleton@AbsolutePixelCountLodStrategy@Ogre@@SAAEAV12@XZ 
?getSingleton@AnimationNameIDMapper@Ogre@@SAPEAV12@XZ 
?getSingleton@ArchiveManager@Ogre@@SAAEAV12@XZ 
?getSingleton@ControllerManager@Ogre@@SAAEAV12@XZ 
?getSingleton@DistanceLodBoxStrategy@Ogre@@SAAEAV12@XZ 
?getSingleton@DistanceLodSphereStrategy@Ogre@@SAAEAV12@XZ 
?getSingleton@DynLibManager@Ogre@@SAAEAV12@XZ 
?getSingleton@ExternalTextureSourceManager@Ogre@@SAAEAV12@XZ 
?getSingleton@GpuProgramManager@Ogre@@SAAEAV12@XZ 
?getSingleton@HardwareBufferManager@Ogre@@SAAEAV12@XZ 
?getSingleton@HighLevelGpuProgramManager@Ogre@@SAAEAV12@XZ 
?getSingleton@LodStrategyManager@Ogre@@SAAEAV12@XZ 
?getSingleton@LogManager@Ogre@@SAAEAV12@XZ 
?getSingleton@MaterialManager@Ogre@@SAAEAV12@XZ 
?getSingleton@MeshManager@Ogre@@SAAEAV12@XZ 
?getSingleton@OldSkeletonManager@Ogre@@SAAEAV12@XZ 
?getSingleton@ParticleSystemManager@Ogre@@SAAEAV12@XZ 
?getSingleton@Profiler@Ogre@@SAAEAV12@XZ 
?getSingleton@RenderSystemCapabilitiesManager@Ogre@@SAAEAV12@XZ 
?getSingleton@ResourceBackgroundQueue@Ogre@@SAAEAV12@XZ 
?getSingleton@ResourceGroupManager@Ogre@@SAAEAV12@XZ 
?getSingleton@Root@Ogre@@SAAEAV12@XZ 
?getSingleton@SceneManagerEnumerator@Ogre@@SAAEAV12@XZ 
?getSingleton@ScreenRatioPixelCountLodStrategy@Ogre@@SAAEAV12@XZ 
?getSingleton@ScriptCompilerManager@Ogre@@SAAEAV12@XZ 
?getSingleton@ShadowTextureManager@Ogre@@SAAEAV12@XZ 
?getSingleton@SkeletonManager@Ogre@@SAAEAV12@XZ 
?getSingleton@TextureManager@Ogre@@SAAEAV12@XZ 
?getSingletonPtr@?$Singleton@VAbsolutePixelCountLodStrategy@Ogre@@@Ogre@@SAPEAVAbsolutePixelCountLodStrategy@2@XZ 
?getSingletonPtr@?$Singleton@VArchiveManager@Ogre@@@Ogre@@SAPEAVArchiveManager@2@XZ 
?getSingletonPtr@?$Singleton@VControllerManager@Ogre@@@Ogre@@SAPEAVControllerManager@2@XZ 
?getSingletonPtr@?$Singleton@VDistanceLodBoxStrategy@Ogre@@@Ogre@@SAPEAVDistanceLodBoxStrategy@2@XZ 
?getSingletonPtr@?$Singleton@VDistanceLodSphereStrategy@Ogre@@@Ogre@@SAPEAVDistanceLodSphereStrategy@2@XZ 
?getSingletonPtr@?$Singleton@VDynLibManager@Ogre@@@Ogre@@SAPEAVDynLibManager@2@XZ 
?getSingletonPtr@?$Singleton@VExternalTextureSourceManager@Ogre@@@Ogre@@SAPEAVExternalTextureSourceManager@2@XZ 
?getSingletonPtr@?$Singleton@VGpuProgramManager@Ogre@@@Ogre@@SAPEAVGpuProgramManager@2@XZ 
?getSingletonPtr@?$Singleton@VHardwareBufferManager@Ogre@@@Ogre@@SAPEAVHardwareBufferManager@2@XZ 
?getSingletonPtr@?$Singleton@VHighLevelGpuProgramManager@Ogre@@@Ogre@@SAPEAVHighLevelGpuProgramManager@2@XZ 
?getSingletonPtr@?$Singleton@VLodStrategyManager@Ogre@@@Ogre@@SAPEAVLodStrategyManager@2@XZ 
?getSingletonPtr@?$Singleton@VLogManager@Ogre@@@Ogre@@SAPEAVLogManager@2@XZ 
?getSingletonPtr@?$Singleton@VMaterialManager@Ogre@@@Ogre@@SAPEAVMaterialManager@2@XZ 
?getSingletonPtr@?$Singleton@VMeshManager@Ogre@@@Ogre@@SAPEAVMeshManager@2@XZ 
?getSingletonPtr@?$Singleton@VOldSkeletonManager@Ogre@@@Ogre@@SAPEAVOldSkeletonManager@2@XZ 
?getSingletonPtr@?$Singleton@VParticleSystemManager@Ogre@@@Ogre@@SAPEAVParticleSystemManager@2@XZ 
?getSingletonPtr@?$Singleton@VProfiler@Ogre@@@Ogre@@SAPEAVProfiler@2@XZ 
?getSingletonPtr@?$Singleton@VRenderSystemCapabilitiesManager@Ogre@@@Ogre@@SAPEAVRenderSystemCapabilitiesManager@2@XZ 
?getSingletonPtr@?$Singleton@VResourceBackgroundQueue@Ogre@@@Ogre@@SAPEAVResourceBackgroundQueue@2@XZ 
?getSingletonPtr@?$Singleton@VResourceGroupManager@Ogre@@@Ogre@@SAPEAVResourceGroupManager@2@XZ 
?getSingletonPtr@?$Singleton@VRoot@Ogre@@@Ogre@@SAPEAVRoot@2@XZ 
?getSingletonPtr@?$Singleton@VSceneManagerEnumerator@Ogre@@@Ogre@@SAPEAVSceneManagerEnumerator@2@XZ 
?getSingletonPtr@?$Singleton@VScreenRatioPixelCountLodStrategy@Ogre@@@Ogre@@SAPEAVScreenRatioPixelCountLodStrategy@2@XZ 
?getSingletonPtr@?$Singleton@VScriptCompilerManager@Ogre@@@Ogre@@SAPEAVScriptCompilerManager@2@XZ 
?getSingletonPtr@?$Singleton@VShadowTextureManager@Ogre@@@Ogre@@SAPEAVShadowTextureManager@2@XZ 
?getSingletonPtr@?$Singleton@VSkeletonManager@Ogre@@@Ogre@@SAPEAVSkeletonManager@2@XZ 
?getSingletonPtr@?$Singleton@VTextureManager@Ogre@@@Ogre@@SAPEAVTextureManager@2@XZ 
?getSingletonPtr@AbsolutePixelCountLodStrategy@Ogre@@SAPEAV12@XZ 
?getSingletonPtr@ArchiveManager@Ogre@@SAPEAV12@XZ 
?getSingletonPtr@ControllerManager@Ogre@@SAPEAV12@XZ 
?getSingletonPtr@DistanceLodBoxStrategy@Ogre@@SAPEAV12@XZ 
?getSingletonPtr@DistanceLodSphereStrategy@Ogre@@SAPEAV12@XZ 
?getSingletonPtr@DynLibManager@Ogre@@SAPEAV12@XZ 
?getSingletonPtr@ExternalTextureSourceManager@Ogre@@SAPEAV12@XZ 
?getSingletonPtr@GpuProgramManager@Ogre@@SAPEAV12@XZ 
?getSingletonPtr@HardwareBufferManager@Ogre@@SAPEAV12@XZ 
?getSingletonPtr@HighLevelGpuProgramManager@Ogre@@SAPEAV12@XZ 
?getSingletonPtr@LodStrategyManager@Ogre@@SAPEAV12@XZ 
?getSingletonPtr@LogManager@Ogre@@SAPEAV12@XZ 
?getSingletonPtr@MaterialManager@Ogre@@SAPEAV12@XZ 
?getSingletonPtr@MeshManager@Ogre@@SAPEAV12@XZ 
?getSingletonPtr@OldSkeletonManager@Ogre@@SAPEAV12@XZ 
?getSingletonPtr@ParticleSystemManager@Ogre@@SAPEAV12@XZ 
?getSingletonPtr@Profiler@Ogre@@SAPEAV12@XZ 
?getSingletonPtr@RenderSystemCapabilitiesManager@Ogre@@SAPEAV12@XZ 
?getSingletonPtr@ResourceBackgroundQueue@Ogre@@SAPEAV12@XZ 
?getSingletonPtr@ResourceGroupManager@Ogre@@SAPEAV12@XZ 
?getSingletonPtr@Root@Ogre@@SAPEAV12@XZ 
?getSingletonPtr@SceneManagerEnumerator@Ogre@@SAPEAV12@XZ 
?getSingletonPtr@ScreenRatioPixelCountLodStrategy@Ogre@@SAPEAV12@XZ 
?getSingletonPtr@ScriptCompilerManager@Ogre@@SAPEAV12@XZ 
?getSingletonPtr@ShadowTextureManager@Ogre@@SAPEAV12@XZ 
?getSingletonPtr@SkeletonManager@Ogre@@SAPEAV12@XZ 
?getSingletonPtr@TextureManager@Ogre@@SAPEAV12@XZ 
?getSize@Aabb@Ogre@@QEBA?AVVector3@2@XZ 
?getSize@AxisAlignedBox@Ogre@@QEBA?AVVector3@2@XZ 
?getSize@Image@Ogre@@QEBA_KXZ 
?getSize@Resource@Ogre@@UEBA_KXZ 
?getSize@UnifiedHighLevelGpuProgram@Ogre@@UEBA_KXZ 
?getSize@VertexCacheProfiler@Ogre@@QEAAIXZ 
?getSize@VertexElement@Ogre@@QEBA_KXZ 
?getSizeInBytes@HardwareBuffer@Ogre@@QEBA_KXZ 
?getSkeleton@Entity@Ogre@@QEBAPEAVOldSkeletonInstance@2@XZ 
?getSkeleton@InstancedEntity@Ogre@@QEBAPEAVOldSkeletonInstance@2@XZ 
?getSkeleton@Mesh@Ogre@@QEBAAEBV?$SharedPtr@VSkeletonDef@Ogre@@@2@XZ 
?getSkeletonDef@SkeletonManager@Ogre@@QEAA?AV?$SharedPtr@VSkeletonDef@Ogre@@@2@AEBV?$basic_string@DU?$char_traits@D@std@@V?$allocator@D@2@@std@@0@Z 
?getSkeletonDef@SkeletonManager@Ogre@@QEAA?AV?$SharedPtr@VSkeletonDef@Ogre@@@2@PEAVSkeleton@2@@Z 
?getSkeletonInstanceSharingSet@Entity@Ogre@@QEBAPEBV?$set@PEAVEntity@Ogre@@U?$less@PEAVEntity@Ogre@@@std@@V?$STLAllocator@PEAVEntity@Ogre@@V?$CategorisedAllocPolicy@$0A@@2@@2@@std@@XZ 
?getSkeletonName@Mesh@Ogre@@QEBAAEBV?$basic_string@DU?$char_traits@D@std@@V?$allocator@D@2@@std@@XZ 
?getSkiesEnabled@Viewport@Ogre@@QEBA_NXZ 
?getSkipAnimationStateUpdate@Entity@Ogre@@QEBA_NXZ 
?getSkyBoxGenParameters@SceneManager@Ogre@@UEBAAEBUSkyBoxGenParameters@12@XZ 
?getSkyBoxNode@SceneManager@Ogre@@UEBAPEAVSceneNode@2@XZ 
?getSkyDomeGenParameters@SceneManager@Ogre@@UEBAAEBUSkyDomeGenParameters@12@XZ 
?getSkyDomeNode@SceneManager@Ogre@@UEBAPEAVSceneNode@2@XZ 
?getSkyPlaneGenParameters@SceneManager@Ogre@@UEBAAEBUSkyPlaneGenParameters@12@XZ 
?getSkyPlaneNode@SceneManager@Ogre@@UEBAPEAVSceneNode@2@XZ 
?getSliceSkip@PixelBox@Ogre@@QEBA_KXZ 
?getSlotToBone@SkeletonDef@Ogre@@QEBAAEBV?$map@IIU?$less@I@std@@V?$STLAllocator@U?$pair@$$CBII@std@@V?$CategorisedAllocPolicy@$0A@@Ogre@@@Ogre@@@std@@XZ 
?getSoftwareAnimationNormalsRequests@Entity@Ogre@@QEBAHXZ 
?getSoftwareAnimationRequests@Entity@Ogre@@QEBAHXZ 
?getSolidsBasic@RenderPriorityGroup@Ogre@@QEBAAEBVQueuedRenderableCollection@2@XZ 
?getSolidsOrganisation@RenderQueueInvocation@Ogre@@UEBA?AW4OrganisationMode@QueuedRenderableCollection@2@XZ 
?getSortByDistance@RaySceneQuery@Ogre@@UEBA_NXZ 
?getSortingEnabled@BillboardSet@Ogre@@UEBA_NXZ 
?getSortingEnabled@ParticleSystem@Ogre@@QEBA_NXZ 
?getSource@Exception@Ogre@@UEBAAEBV?$basic_string@DU?$char_traits@D@std@@V?$allocator@D@2@@std@@XZ 
?getSource@GpuProgram@Ogre@@UEBAAEBV?$basic_string@DU?$char_traits@D@std@@V?$allocator@D@2@@std@@XZ 
?getSource@VertexElement@Ogre@@QEBAGXZ 
?getSourceBlendFactor@Pass@Ogre@@QEBA?AW4SceneBlendFactor@2@XZ 
?getSourceBlendFactorAlpha@Pass@Ogre@@QEBA?AW4SceneBlendFactor@2@XZ 
?getSourceFile@GpuProgram@Ogre@@UEBAAEBV?$basic_string@DU?$char_traits@D@std@@V?$allocator@D@2@@std@@XZ 
?getSourceFileType@Texture@Ogre@@IEBA?AV?$basic_string@DU?$char_traits@D@std@@V?$allocator@D@2@@std@@XZ 
?getSourceRenderable@RenderToVertexBuffer@Ogre@@QEBAPEBVRenderable@2@XZ 
?getSpecialCaseRenderQueueMode@SceneManager@Ogre@@UEAA?AW4SpecialCaseRenderQueueMode@12@XZ 
?getSpecular@Pass@Ogre@@QEBAAEBVColourValue@2@XZ 
?getSpecularColour@Light@Ogre@@QEBAAEBVColourValue@2@XZ 
?getSpeedFactor@ParticleSystem@Ogre@@QEBAMXZ 
?getSphere@SphereSceneQuery@Ogre@@QEBAAEBVSphere@2@XZ 
?getSplitCount@PSSMShadowCameraSetup@Ogre@@QEBAIXZ 
?getSplitMirrored@TangentSpaceCalc@Ogre@@QEBA_NXZ 
?getSplitPadding@PSSMShadowCameraSetup@Ogre@@QEBAMXZ 
?getSplitPoints@PSSMShadowCameraSetup@Ogre@@QEBAAEBV?$vector@MV?$STLAllocator@MV?$CategorisedAllocPolicy@$0A@@Ogre@@@Ogre@@@std@@XZ 
?getSplitRotated@TangentSpaceCalc@Ogre@@QEBA_NXZ 
?getSpotlightFalloff@Light@Ogre@@QEBAMXZ 
?getSpotlightInnerAngle@Light@Ogre@@QEBAAEBVRadian@2@XZ 
?getSpotlightNearClipDistance@Light@Ogre@@QEBAMXZ 
?getSpotlightOuterAngle@Light@Ogre@@QEBAAEBVRadian@2@XZ 
?getSpotlightParams@AutoParamDataSource@Ogre@@QEBA?AVVector4@2@_K@Z 
?getSpotlightViewProjMatrix@AutoParamDataSource@Ogre@@QEBAAEBVMatrix4@2@_K@Z 
?getSpotlightWorldViewProjMatrix@AutoParamDataSource@Ogre@@QEBAAEBVMatrix4@2@_K@Z 
?getSquaredDepth@DistanceLodBoxStrategy@Ogre@@UEBAMPEBVMovableObject@2@PEBVCamera@2@@Z 
?getSquaredDepth@DistanceLodSphereStrategy@Ogre@@UEBAMPEBVMovableObject@2@PEBVCamera@2@@Z 
?getSquaredRenderingDistance@StaticGeometry@Ogre@@UEBAMXZ 
?getSquaredViewDepth@BillboardChain@Ogre@@UEBAMPEBVCamera@2@@Z 
?getSquaredViewDepth@BillboardSet@Ogre@@UEBAMPEBVCamera@2@@Z 
?getSquaredViewDepth@Frustum@Ogre@@UEBAMPEBVCamera@2@@Z 
?getSquaredViewDepth@GeometryBucket@StaticGeometry@Ogre@@UEBAMPEBVCamera@3@@Z 
?getSquaredViewDepth@InstanceBatch@Ogre@@UEBAMPEBVCamera@2@@Z 
?getSquaredViewDepth@InstancedEntity@Ogre@@QEBAMPEBVCamera@2@@Z 
?getSquaredViewDepth@ManualObjectSection@ManualObject@Ogre@@UEBAMPEBVCamera@3@@Z 
?getSquaredViewDepth@Node@Ogre@@UEBAMPEBVCamera@2@@Z 
?getSquaredViewDepth@OldNode@Ogre@@UEBAMPEBVCamera@2@@Z 
?getSquaredViewDepth@Rectangle2D@Ogre@@UEBAMPEBVCamera@2@@Z 
?getSquaredViewDepth@SubEntity@Ogre@@UEBAMPEBVCamera@2@@Z 
?getSquaredViewDepth@WireBoundingBox@Ogre@@UEBAMPEBVCamera@2@@Z 
?getSrcDepth@Texture@Ogre@@UEBAIXZ 
?getSrcFormat@Texture@Ogre@@UEBA?AW4PixelFormat@2@XZ 
?getSrcHeight@Texture@Ogre@@UEBAIXZ 
?getSrcWidth@Texture@Ogre@@UEBAIXZ 
?getStack@Exception@Ogre@@QEBAAEBV?$basic_string@DU?$char_traits@D@std@@V?$allocator@D@2@@std@@XZ 
?getStartEnabled@CompositorNodeDef@Ogre@@QEBA_NXZ 
?getStartLight@Pass@Ogre@@QEBAGXZ 
?getStartTime@ParticleEmitter@Ogre@@UEBAMXZ 
?getStateCount@Resource@Ogre@@UEBA_KXZ 
?getStaticGeometry@SceneManager@Ogre@@UEBAPEAVStaticGeometry@2@AEBV?$basic_string@DU?$char_traits@D@std@@V?$allocator@D@2@@std@@@Z 
?getStatistics@RenderTarget@Ogre@@UEBAAEBUFrameStats@12@XZ 
?getStencilBufferBitDepth@RenderSystemCapabilities@Ogre@@QEBAGXZ 
?getStencilOp@ScriptTranslator@Ogre@@KA_NAEBV?$SharedPtr@VAbstractNode@Ogre@@@2@PEAW4StencilOperation@2@@Z 
?getStoreParityInW@TangentSpaceCalc@Ogre@@QEBA_NXZ 
?getStrategy@LodStrategyManager@Ogre@@QEAAPEAVLodStrategy@2@AEBV?$basic_string@DU?$char_traits@D@std@@V?$allocator@D@2@@std@@@Z 
?getString@ScriptTranslator@Ogre@@KA_NAEBV?$SharedPtr@VAbstractNode@Ogre@@@2@PEAV?$basic_string@DU?$char_traits@D@std@@V?$allocator@D@2@@std@@@Z 
?getSubEntity@Entity@Ogre@@QEAAPEAVSubEntity@2@AEBV?$basic_string@DU?$char_traits@D@std@@V?$allocator@D@2@@std@@@Z 
?getSubEntity@Entity@Ogre@@QEAAPEAVSubEntity@2@_K@Z 
?getSubEntity@Entity@Ogre@@QEBAPEBVSubEntity@2@AEBV?$basic_string@DU?$char_traits@D@std@@V?$allocator@D@2@@std@@@Z 
?getSubEntity@Entity@Ogre@@QEBAPEBVSubEntity@2@_K@Z 
?getSubMesh@Mesh@Ogre@@QEBAPEAVSubMesh@2@AEBV?$basic_string@DU?$char_traits@D@std@@V?$allocator@D@2@@std@@@Z 
?getSubMesh@Mesh@Ogre@@QEBAPEAVSubMesh@2@G@Z 
?getSubMesh@SubEntity@Ogre@@QEBAPEAVSubMesh@2@XZ 
?getSubMeshIterator@Mesh@Ogre@@QEAA?AV?$VectorIterator@V?$vector@PEAVSubMesh@Ogre@@V?$STLAllocator@PEAVSubMesh@Ogre@@V?$CategorisedAllocPolicy@$0A@@2@@2@@std@@@2@XZ 
?getSubMeshNameMap@Mesh@Ogre@@QEBAAEBV?$unordered_map@V?$basic_string@DU?$char_traits@D@std@@V?$allocator@D@2@@std@@GV?$hash@V?$basic_string@DU?$char_traits@D@std@@V?$allocator@D@2@@std@@@2@U?$equal_to@V?$basic_string@DU?$char_traits@D@std@@V?$allocator@D@2@@std@@@2@V?$allocator@U?$pair@$$CBV?$basic_string@DU?$char_traits@D@std@@V?$allocator@D@2@@std@@G@std@@@2@@tr1@std@@XZ 
?getSubVolume@PixelBox@Ogre@@QEBA?AV12@AEBUBox@2@@Z 
?getSubdivisionFactor@PatchSurface@Ogre@@QEBAMXZ 
?getSubroutineMap@GpuProgramParameters@Ogre@@QEBAAEBV?$unordered_map@IV?$basic_string@DU?$char_traits@D@std@@V?$allocator@D@2@@std@@V?$hash@I@2@U?$equal_to@I@2@V?$allocator@U?$pair@$$CBIV?$basic_string@DU?$char_traits@D@std@@V?$allocator@D@2@@std@@@std@@@2@@tr1@std@@XZ 
?getSuggestedViewpoint@SceneManager@Ogre@@UEAA?AUViewPoint@2@_N@Z 
?getSupportedShaderProfiles@RenderSystemCapabilities@Ogre@@QEBAAEBV?$set@V?$basic_string@DU?$char_traits@D@std@@V?$allocator@D@2@@std@@U?$less@V?$basic_string@DU?$char_traits@D@std@@V?$allocator@D@2@@std@@@2@V?$STLAllocator@V?$basic_string@DU?$char_traits@D@std@@V?$allocator@D@2@@std@@V?$CategorisedAllocPolicy@$0A@@Ogre@@@Ogre@@@std@@XZ 
?getSupportedSyntax@GpuProgramManager@Ogre@@UEBAAEBV?$set@V?$basic_string@DU?$char_traits@D@std@@V?$allocator@D@2@@std@@U?$less@V?$basic_string@DU?$char_traits@D@std@@V?$allocator@D@2@@std@@@2@V?$STLAllocator@V?$basic_string@DU?$char_traits@D@std@@V?$allocator@D@2@@std@@V?$CategorisedAllocPolicy@$0A@@Ogre@@@Ogre@@@std@@XZ 
?getSupportedTechnique@Material@Ogre@@QEAAPEAVTechnique@2@G@Z 
?getSupportedTechniqueIterator@Material@Ogre@@QEAA?AV?$VectorIterator@V?$vector@PEAVTechnique@Ogre@@V?$STLAllocator@PEAVTechnique@Ogre@@V?$CategorisedAllocPolicy@$0A@@2@@2@@std@@@2@XZ 
?getSupportedWorldFragmentTypes@SceneQuery@Ogre@@UEBAPEBV?$set@W4WorldFragmentType@SceneQuery@Ogre@@U?$less@W4WorldFragmentType@SceneQuery@Ogre@@@std@@V?$STLAllocator@W4WorldFragmentType@SceneQuery@Ogre@@V?$CategorisedAllocPolicy@$0A@@3@@3@@std@@XZ 
?getSuppressRenderStateChanges@RenderQueueInvocation@Ogre@@UEBA_NXZ 
?getSurfaceAlphaRejectionValue@AutoParamDataSource@Ogre@@QEBAMXZ 
?getSurfaceAmbientColour@AutoParamDataSource@Ogre@@QEBAAEBVColourValue@2@XZ 
?getSurfaceDiffuseColour@AutoParamDataSource@Ogre@@QEBAAEBVColourValue@2@XZ 
?getSurfaceEmissiveColour@AutoParamDataSource@Ogre@@QEBAAEBVColourValue@2@XZ 
?getSurfaceShininess@AutoParamDataSource@Ogre@@QEBAMXZ 
?getSurfaceSpecularColour@AutoParamDataSource@Ogre@@QEBAAEBVColourValue@2@XZ 
?getSymbol@DynLib@Ogre@@QEBAPEAXAEBV?$basic_string@DU?$char_traits@D@std@@V?$allocator@D@2@@std@@@Z 
?getSyntaxCode@GpuProgram@Ogre@@UEBAAEBV?$basic_string@DU?$char_traits@D@std@@V?$allocator@D@2@@std@@XZ 
?getTagPoints@OldSkeletonInstance@Ogre@@QEBAAEBV?$unordered_map@PEAVMovableObject@Ogre@@PEAVTagPoint@2@V?$hash@PEAVMovableObject@Ogre@@@std@@U?$equal_to@PEAVMovableObject@Ogre@@@5@V?$allocator@U?$pair@QEAVMovableObject@Ogre@@PEAVTagPoint@2@@std@@@5@@tr1@std@@XZ 
?getTanTime_0_1@AutoParamDataSource@Ogre@@QEBAMM@Z 
?getTanTime_0_2Pi@AutoParamDataSource@Ogre@@QEBAMM@Z 
?getTanTime_0_X@AutoParamDataSource@Ogre@@QEBAMM@Z 
?getTarget@Pose@Ogre@@QEBAGXZ 
?getTarget@Viewport@Ogre@@QEBAPEAVRenderTarget@2@XZ 
?getTargetMode@VertexAnimationTrack@Ogre@@QEBA?AW4TargetMode@12@XZ 
?getTargetParams@GpuSharedParametersUsage@Ogre@@QEBAPEAVGpuProgramParameters@2@XZ 
?getTargetPass@CompositorNodeDef@Ogre@@QEAAPEAVCompositorTargetDef@2@_K@Z 
?getTechnique@GeometryBucket@StaticGeometry@Ogre@@UEBAPEAVTechnique@3@XZ 
?getTechnique@InstanceBatch@Ogre@@UEBAPEAVTechnique@2@XZ 
?getTechnique@Material@Ogre@@QEAAPEAVTechnique@2@AEBV?$basic_string@DU?$char_traits@D@std@@V?$allocator@D@2@@std@@@Z 
?getTechnique@Material@Ogre@@QEAAPEAVTechnique@2@G@Z 
?getTechnique@Renderable@Ogre@@UEBAPEAVTechnique@2@XZ 
?getTechnique@SubEntity@Ogre@@UEBAPEAVTechnique@2@XZ 
?getTechniqueIterator@Material@Ogre@@QEAA?AV?$VectorIterator@V?$vector@PEAVTechnique@Ogre@@V?$STLAllocator@PEAVTechnique@Ogre@@V?$CategorisedAllocPolicy@$0A@@2@@2@@std@@@2@XZ 
?getTemplate@ParticleSystemManager@Ogre@@QEAAPEAVParticleSystem@2@AEBV?$basic_string@DU?$char_traits@D@std@@V?$allocator@D@2@@std@@@Z 
?getTemplateIterator@ParticleSystemManager@Ogre@@QEAA?AV?$MapIterator@V?$map@V?$basic_string@DU?$char_traits@D@std@@V?$allocator@D@2@@std@@PEAVParticleSystem@Ogre@@U?$less@V?$basic_string@DU?$char_traits@D@std@@V?$allocator@D@2@@std@@@2@V?$STLAllocator@U?$pair@$$CBV?$basic_string@DU?$char_traits@D@std@@V?$allocator@D@2@@std@@PEAVParticleSystem@Ogre@@@std@@V?$CategorisedAllocPolicy@$0A@@Ogre@@@4@@std@@@2@XZ 
?getTessellationDomainProgram@Pass@Ogre@@QEBAAEBV?$SharedPtr@VGpuProgram@Ogre@@@2@XZ 
?getTessellationDomainProgramConstantBoolCount@RenderSystemCapabilities@Ogre@@QEBAGXZ 
?getTessellationDomainProgramConstantFloatCount@RenderSystemCapabilities@Ogre@@QEBAGXZ 
?getTessellationDomainProgramConstantIntCount@RenderSystemCapabilities@Ogre@@QEBAGXZ 
?getTessellationDomainProgramName@Pass@Ogre@@QEBAAEBV?$basic_string@DU?$char_traits@D@std@@V?$allocator@D@2@@std@@XZ 
?getTessellationDomainProgramParameters@Pass@Ogre@@QEBA?AV?$SharedPtr@VGpuProgramParameters@Ogre@@@2@XZ 
?getTessellationHullProgram@Pass@Ogre@@QEBAAEBV?$SharedPtr@VGpuProgram@Ogre@@@2@XZ 
?getTessellationHullProgramConstantBoolCount@RenderSystemCapabilities@Ogre@@QEBAGXZ 
?getTessellationHullProgramConstantFloatCount@RenderSystemCapabilities@Ogre@@QEBAGXZ 
?getTessellationHullProgramConstantIntCount@RenderSystemCapabilities@Ogre@@QEBAGXZ 
?getTessellationHullProgramName@Pass@Ogre@@QEBAAEBV?$basic_string@DU?$char_traits@D@std@@V?$allocator@D@2@@std@@XZ 
?getTessellationHullProgramParameters@Pass@Ogre@@QEBA?AV?$SharedPtr@VGpuProgramParameters@Ogre@@@2@XZ 
?getTexcoordIndex@Billboard@Ogre@@QEBAGXZ 
?getTexcoordRect@Billboard@Ogre@@QEBAAEBU?$TRect@M@2@XZ 
?getTextureAddressingMode@TextureUnitState@Ogre@@QEBAAEBUUVWAddressingMode@12@XZ 
?getTextureAliasCount@SubMesh@Ogre@@QEBA_KXZ 
?getTextureAnisotropy@TextureUnitState@Ogre@@QEBAIXZ 
?getTextureBorderColour@TextureUnitState@Ogre@@QEBAAEBVColourValue@2@XZ 
?getTextureCompareEnabled@TextureUnitState@Ogre@@QEBA_NXZ 
?getTextureCompareFunction@TextureUnitState@Ogre@@QEBA?AW4CompareFunction@2@XZ 
?getTextureCoordDirection@BillboardChain@Ogre@@UEAA?AW4TexCoordDirection@12@XZ 
?getTextureCoordSet@TextureUnitState@Ogre@@QEBAIXZ 
?getTextureCoords@BillboardSet@Ogre@@UEAAPEBU?$TRect@M@2@PEAG@Z 
?getTextureDimensions@TextureUnitState@Ogre@@QEBA?AU?$pair@_K_K@std@@I@Z 
?getTextureFiltering@TextureUnitState@Ogre@@QEBA?AW4FilterOptions@2@W4FilterType@2@@Z 
?getTextureManager@Root@Ogre@@QEAAPEAVTextureManager@2@XZ 
?getTextureMipmapBias@TextureUnitState@Ogre@@QEBAMXZ 
?getTextureName@TextureUnitState@Ogre@@QEBAAEBV?$basic_string@DU?$char_traits@D@std@@V?$allocator@D@2@@std@@XZ 
?getTextureNameAlias@TextureUnitState@Ogre@@QEBAAEBV?$basic_string@DU?$char_traits@D@std@@V?$allocator@D@2@@std@@XZ 
?getTextureRotate@TextureUnitState@Ogre@@QEBAAEBVRadian@2@XZ 
?getTextureSize@AutoParamDataSource@Ogre@@QEBA?AVVector4@2@_K@Z 
?getTextureSource@CompositorNodeDef@Ogre@@QEBAX_KAEA_KAEAW4TextureSource@TextureDefinitionBase@2@@Z 
?getTextureSource@TextureDefinitionBase@Ogre@@QEBAXUIdString@2@AEA_KAEAW4TextureSource@12@@Z 
?getTextureSources@CompositorPassQuadDef@Ogre@@QEBAAEBV?$vector@UQuadTextureSource@CompositorPassQuadDef@Ogre@@V?$STLAllocator@UQuadTextureSource@CompositorPassQuadDef@Ogre@@V?$CategorisedAllocPolicy@$0A@@3@@3@@std@@XZ 
?getTextureTecPassStateLevel@ExternalTextureSource@Ogre@@QEBAXAEAH00@Z 
?getTextureTransform@TextureUnitState@Ogre@@QEBAAEBVMatrix4@2@XZ 
?getTextureTransformMatrix@AutoParamDataSource@Ogre@@QEBAAEBVMatrix4@2@_K@Z 
?getTextureType@Texture@Ogre@@UEBA?AW4TextureType@2@XZ 
?getTextureType@TextureUnitState@Ogre@@QEBA?AW4TextureType@2@XZ 
?getTextureUScale@TextureUnitState@Ogre@@QEBAMXZ 
?getTextureUScroll@TextureUnitState@Ogre@@QEBAMXZ 
?getTextureUnitState@Pass@Ogre@@QEAAPEAVTextureUnitState@2@AEBV?$basic_string@DU?$char_traits@D@std@@V?$allocator@D@2@@std@@@Z 
?getTextureUnitState@Pass@Ogre@@QEAAPEAVTextureUnitState@2@_K@Z 
?getTextureUnitState@Pass@Ogre@@QEBAPEBVTextureUnitState@2@AEBV?$basic_string@DU?$char_traits@D@std@@V?$allocator@D@2@@std@@@Z 
?getTextureUnitState@Pass@Ogre@@QEBAPEBVTextureUnitState@2@_K@Z 
?getTextureUnitStateIndex@Pass@Ogre@@QEBAGPEBVTextureUnitState@2@@Z 
?getTextureUnitStateIterator@Pass@Ogre@@QEAA?AV?$VectorIterator@V?$vector@PEAVTextureUnitState@Ogre@@V?$STLAllocator@PEAVTextureUnitState@Ogre@@V?$CategorisedAllocPolicy@$0A@@2@@2@@std@@@2@XZ 
?getTextureUnitStateIterator@Pass@Ogre@@QEBA?AV?$ConstVectorIterator@V?$vector@PEAVTextureUnitState@Ogre@@V?$STLAllocator@PEAVTextureUnitState@Ogre@@V?$CategorisedAllocPolicy@$0A@@2@@2@@std@@@2@XZ 
?getTextureVScale@TextureUnitState@Ogre@@QEBAMXZ 
?getTextureVScroll@TextureUnitState@Ogre@@QEBAMXZ 
?getTextureViewProjMatrix@AutoParamDataSource@Ogre@@QEBAAEBVMatrix4@2@_K@Z 
?getTextureWorldViewProjMatrix@AutoParamDataSource@Ogre@@QEBAAEBVMatrix4@2@_K@Z 
?getThreadIdx@ThreadHandle@Ogre@@QEBA_KXZ 
?getTime@AutoParamDataSource@Ogre@@QEBAMXZ 
?getTime@KeyFrame@Ogre@@QEBAMXZ 
?getTimeFactor@ControllerManager@Ogre@@QEBAMXZ 
?getTimeFactor@FrameTimeControllerValue@Ogre@@QEBAMXZ 
?getTimePos@TimeIndex@Ogre@@QEBAMXZ 
?getTimePosition@AnimationState@Ogre@@QEBAMXZ 
?getTimeToLive@ParticleEmitter@Ogre@@UEBAMXZ 
?getTime_0_1@AutoParamDataSource@Ogre@@QEBAMM@Z 
?getTime_0_1_packed@AutoParamDataSource@Ogre@@QEBA?AVVector4@2@M@Z 
?getTime_0_2Pi@AutoParamDataSource@Ogre@@QEBAMM@Z 
?getTime_0_2Pi_packed@AutoParamDataSource@Ogre@@QEBA?AVVector4@2@M@Z 
?getTime_0_X@AutoParamDataSource@Ogre@@QEBAMM@Z 
?getTime_0_X_packed@AutoParamDataSource@Ogre@@QEBA?AVVector4@2@M@Z 
?getTimer@Profiler@Ogre@@QEAAPEAVTimer@2@XZ 
?getTimer@Root@Ogre@@QEAAPEAVTimer@2@XZ 
?getToken@ScriptParser@Ogre@@AEAAPEAUScriptToken@2@V?$_Vector_iterator@V?$_Vector_val@V?$SharedPtr@UScriptToken@Ogre@@@Ogre@@V?$STLAllocator@V?$SharedPtr@UScriptToken@Ogre@@@Ogre@@V?$CategorisedAllocPolicy@$0A@@2@@2@@std@@@std@@0H@Z 
?getTop@Viewport@Ogre@@QEBAMXZ 
?getTopLeftFrontPixelPtr@PixelBox@Ogre@@QEBAPEAXXZ 
?getTotalNumObjects@ObjectMemoryManager@Ogre@@QEBA_KXZ 
?getTrailLength@RibbonTrail@Ogre@@UEBAMXZ 
?getTrans@Matrix4@Ogre@@QEBA?AVVector3@2@XZ 
?getTrans@Matrix4@Ogre@@SA?AV12@AEBVVector3@2@@Z 
?getTrans@Matrix4@Ogre@@SA?AV12@MMM@Z 
?getTransforms3x4@InstancedEntity@Ogre@@IEBA_KPEAM@Z 
?getTransforms@InstancedEntity@Ogre@@IEBA_KPEAVMatrix4@2@@Z 
?getTransforms@SkeletonInstance@Ogre@@QEBAXPEAVSimpleMatrixAf4x3@2@AEBV?$FastArray@G@2@@Z 
?getTranslate@TransformKeyFrame@Ogre@@QEBAAEBVVector3@2@XZ 
?getTranslation@Animation@Ogre@@QEBA?AVVector3@2@PEAVOldBone@2@MM@Z 
?getTranslation@OldNodeAnimationTrack@Ogre@@QEBA?AVVector3@2@AEBVTimeIndex@2@@Z 
?getTranslator@BuiltinScriptTranslatorManager@Ogre@@UEAAPEAVScriptTranslator@2@AEBV?$SharedPtr@VAbstractNode@Ogre@@@2@@Z 
?getTranslator@ScriptCompilerManager@Ogre@@QEAAPEAVScriptTranslator@2@AEBV?$SharedPtr@VAbstractNode@Ogre@@@2@@Z 
?getTransparencyCastsShadows@Material@Ogre@@QEBA_NXZ 
?getTransparentSortingEnabled@Pass@Ogre@@QEBA_NXZ 
?getTransparentSortingForced@Pass@Ogre@@QEBA_NXZ 
?getTransparents@RenderPriorityGroup@Ogre@@QEBAAEBVQueuedRenderableCollection@2@XZ 
?getTransparentsUnsorted@RenderPriorityGroup@Ogre@@QEBAAEBVQueuedRenderableCollection@2@XZ 
?getTransposeMatrices@GpuProgramParameters@Ogre@@QEBA_NXZ 
?getTransposeProjectionMatrix@AutoParamDataSource@Ogre@@QEBA?AVMatrix4@2@XZ 
?getTransposeViewMatrix@AutoParamDataSource@Ogre@@QEBA?AVMatrix4@2@XZ 
?getTransposeViewProjMatrix@AutoParamDataSource@Ogre@@QEBA?AVMatrix4@2@XZ 
?getTransposeWorldMatrix@AutoParamDataSource@Ogre@@QEBA?AVMatrix4@2@XZ 
?getTransposeWorldViewMatrix@AutoParamDataSource@Ogre@@QEBA?AVMatrix4@2@XZ 
?getTransposeWorldViewProjMatrix@AutoParamDataSource@Ogre@@QEBA?AVMatrix4@2@XZ 
?getTreatLuminanceAsAlpha@Texture@Ogre@@UEBA_NXZ 
?getTriangleCount@RenderTarget@Ogre@@UEBA_KXZ 
?getTwin@ObjectMemoryManager@Ogre@@QEBAPEAV12@XZ 
?getType@AnimableValue@Ogre@@QEBA?AW4ValueType@12@XZ 
?getType@Archive@Ogre@@QEBAAEBV?$basic_string@DU?$char_traits@D@std@@V?$allocator@D@2@@std@@XZ 
?getType@BillboardChainFactory@Ogre@@UEBAAEBV?$basic_string@DU?$char_traits@D@std@@V?$allocator@D@2@@std@@XZ 
?getType@BillboardParticleRenderer@Ogre@@UEBAAEBV?$basic_string@DU?$char_traits@D@std@@V?$allocator@D@2@@std@@XZ 
?getType@BillboardParticleRendererFactory@Ogre@@UEBAAEBV?$basic_string@DU?$char_traits@D@std@@V?$allocator@D@2@@std@@XZ 
?getType@BillboardSetFactory@Ogre@@UEBAAEBV?$basic_string@DU?$char_traits@D@std@@V?$allocator@D@2@@std@@XZ 
?getType@CompositorPass@Ogre@@QEBA?AW4CompositorPassType@2@XZ 
?getType@CompositorPassDef@Ogre@@QEBA?AW4CompositorPassType@2@XZ 
?getType@DDSCodec@Ogre@@UEBA?AV?$basic_string@DU?$char_traits@D@std@@V?$allocator@D@2@@std@@XZ 
?getType@EmbeddedZipArchiveFactory@Ogre@@UEBAAEBV?$basic_string@DU?$char_traits@D@std@@V?$allocator@D@2@@std@@XZ 
?getType@EntityFactory@Ogre@@UEBAAEBV?$basic_string@DU?$char_traits@D@std@@V?$allocator@D@2@@std@@XZ 
?getType@FileSystemArchiveFactory@Ogre@@UEBAAEBV?$basic_string@DU?$char_traits@D@std@@V?$allocator@D@2@@std@@XZ 
?getType@FreeImageCodec@Ogre@@UEBA?AV?$basic_string@DU?$char_traits@D@std@@V?$allocator@D@2@@std@@XZ 
?getType@GpuProgram@Ogre@@UEBA?AW4GpuProgramType@2@XZ 
?getType@GpuProgramUsage@Ogre@@QEBA?AW4GpuProgramType@2@XZ 
?getType@HardwareIndexBuffer@Ogre@@QEBA?AW4IndexType@12@XZ 
?getType@Light@Ogre@@QEBA?AW4LightTypes@12@XZ 
?getType@LightFactory@Ogre@@UEBAAEBV?$basic_string@DU?$char_traits@D@std@@V?$allocator@D@2@@std@@XZ 
?getType@ManualObjectFactory@Ogre@@UEBAAEBV?$basic_string@DU?$char_traits@D@std@@V?$allocator@D@2@@std@@XZ 
?getType@ParticleAffector@Ogre@@QEBAAEBV?$basic_string@DU?$char_traits@D@std@@V?$allocator@D@2@@std@@XZ 
?getType@ParticleEmitter@Ogre@@QEBAAEBV?$basic_string@DU?$char_traits@D@std@@V?$allocator@D@2@@std@@XZ 
?getType@ParticleSystemFactory@Ogre@@UEBAAEBV?$basic_string@DU?$char_traits@D@std@@V?$allocator@D@2@@std@@XZ 
?getType@Request@WorkQueue@Ogre@@QEBAGXZ 
?getType@RibbonTrailFactory@Ogre@@UEBAAEBV?$basic_string@DU?$char_traits@D@std@@V?$allocator@D@2@@std@@XZ 
?getType@VertexElement@Ogre@@QEBA?AW4VertexElementType@2@XZ 
?getTypeCount@VertexElement@Ogre@@SAGW4VertexElementType@2@@Z 
?getTypeName@DefaultSceneManager@Ogre@@UEBAAEBV?$basic_string@DU?$char_traits@D@std@@V?$allocator@D@2@@std@@XZ 
?getTypeSize@VertexElement@Ogre@@SA_KW4VertexElementType@2@@Z 
?getUInt@ScriptTranslator@Ogre@@KA_NAEBV?$SharedPtr@VAbstractNode@Ogre@@@2@PEAI@Z 
?getUInts@ScriptTranslator@Ogre@@KA_NV?$_List_const_iterator@V?$_List_val@V?$SharedPtr@VAbstractNode@Ogre@@@Ogre@@V?$STLAllocator@V?$SharedPtr@VAbstractNode@Ogre@@@Ogre@@V?$CategorisedAllocPolicy@$0A@@2@@2@@std@@@std@@0PEAIH@Z 
?getUnsignedIntConstantList@GpuProgramParameters@Ogre@@QEBAAEBV?$vector@IV?$STLAllocator@IV?$CategorisedAllocPolicy@$0A@@Ogre@@@Ogre@@@std@@XZ 
?getUnsignedIntConstantList@GpuSharedParameters@Ogre@@QEBAAEBV?$vector@IV?$STLAllocator@IV?$CategorisedAllocPolicy@$0A@@Ogre@@@Ogre@@@std@@XZ 
?getUnsignedIntLogicalBufferStruct@GpuProgramParameters@Ogre@@QEBAAEBV?$SharedPtr@UGpuLogicalBufferStruct@Ogre@@@2@XZ 
?getUnsignedIntLogicalIndexForPhysicalIndex@GpuProgramParameters@Ogre@@QEAA_K_K@Z 
?getUnsignedIntPointer@GpuProgramParameters@Ogre@@QEAAPEAI_K@Z 
?getUnsignedIntPointer@GpuProgramParameters@Ogre@@QEBAPEBI_K@Z 
?getUnsignedIntPointer@GpuSharedParameters@Ogre@@QEAAPEAI_K@Z 
?getUnsignedIntPointer@GpuSharedParameters@Ogre@@QEBAPEBI_K@Z 
?getUnsupportedTechniquesExplanation@Material@Ogre@@QEBAAEBV?$basic_string@DU?$char_traits@D@std@@V?$allocator@D@2@@std@@XZ 
?getUp@Camera@Ogre@@QEBA?AVVector3@2@XZ 
?getUp@ParticleEmitter@Ogre@@UEBAAEBVVector3@2@XZ 
?getUpdateBoundingBoxFromSkeleton@Entity@Ogre@@QEBA_NXZ 
?getUpdateDisplayFrequency@Profiler@Ogre@@QEBAIXZ 
?getUsage@HardwareBuffer@Ogre@@QEBA?AW4Usage@12@XZ 
?getUsage@Texture@Ogre@@UEBAHXZ 
?getUseAccurateFacing@BillboardParticleRenderer@Ogre@@QEBA_NXZ 
?getUseAccurateFacing@BillboardSet@Ogre@@UEBA_NXZ 
?getUseBaseKeyFrame@Animation@Ogre@@QEBA_NXZ 
?getUseIdentityProjection@ManualObject@Ogre@@QEBA_NXZ 
?getUseIdentityProjection@Renderable@Ogre@@QEBA_NXZ 
?getUseIdentityView@ManualObject@Ogre@@QEBA_NXZ 
?getUseIdentityView@Renderable@Ogre@@QEBA_NXZ 
?getUseMinPixelSize@Camera@Ogre@@QEBA_NXZ 
?getUseRenderingDistance@Camera@Ogre@@UEBA_NXZ 
?getUseShortestRotationPath@NodeAnimationTrack@Ogre@@UEBA_NXZ 
?getUseShortestRotationPath@OldNodeAnimationTrack@Ogre@@UEBA_NXZ 
?getUseTextureCoords@BillboardChain@Ogre@@UEBA_NXZ 
?getUseVertexColours@BillboardChain@Ogre@@UEBA_NXZ 
?getUsedMemory@ArrayMemoryManager@Ogre@@QEBA_KXZ 
?getUsedSlots@SkeletonTrack@Ogre@@QEBA_KXZ 
?getUserAny@Node@Ogre@@UEBAAEBVAny@2@XZ 
?getUserAny@OldNode@Ogre@@UEBAAEBVAny@2@XZ 
?getUserAny@Renderable@Ogre@@UEBAAEBVAny@2@XZ 
?getUserAny@UserObjectBindings@Ogre@@QEBAAEBVAny@2@AEBV?$basic_string@DU?$char_traits@D@std@@V?$allocator@D@2@@std@@@Z 
?getUserAny@UserObjectBindings@Ogre@@QEBAAEBVAny@2@XZ 
?getUserLodValueIterator@Material@Ogre@@QEBA?AV?$ConstVectorIterator@V?$FastArray@M@Ogre@@@2@XZ 
?getUserObjectBindings@MovableObject@Ogre@@QEAAAEAVUserObjectBindings@2@XZ 
?getUserObjectBindings@MovableObject@Ogre@@QEBAAEBVUserObjectBindings@2@XZ 
?getUserObjectBindings@Node@Ogre@@QEAAAEAVUserObjectBindings@2@XZ 
?getUserObjectBindings@Node@Ogre@@QEBAAEBVUserObjectBindings@2@XZ 
?getUserObjectBindings@OldNode@Ogre@@QEAAAEAVUserObjectBindings@2@XZ 
?getUserObjectBindings@OldNode@Ogre@@QEBAAEBVUserObjectBindings@2@XZ 
?getUserObjectBindings@Pass@Ogre@@QEAAAEAVUserObjectBindings@2@XZ 
?getUserObjectBindings@Pass@Ogre@@QEBAAEBVUserObjectBindings@2@XZ 
?getUserObjectBindings@Renderable@Ogre@@QEAAAEAVUserObjectBindings@2@XZ 
?getUserObjectBindings@Renderable@Ogre@@QEBAAEBVUserObjectBindings@2@XZ 
?getUserObjectBindings@Technique@Ogre@@QEAAAEAVUserObjectBindings@2@XZ 
?getUserObjectBindings@Technique@Ogre@@QEBAAEBVUserObjectBindings@2@XZ 
?getUserParam@ThreadHandle@Ogre@@QEBAPEAXXZ 
?getVSyncInterval@RenderWindow@Ogre@@UEBAIXZ 
?getValue@AnimationStateControllerValue@Ogre@@UEBAMXZ 
?getValue@AtomAbstractNode@Ogre@@UEBA?AV?$basic_string@DU?$char_traits@D@std@@V?$allocator@D@2@@std@@XZ 
?getValue@FloatGpuParameterControllerValue@Ogre@@UEBAMXZ 
?getValue@FrameTimeControllerValue@Ogre@@UEBAMXZ 
?getValue@ImportAbstractNode@Ogre@@UEBA?AV?$basic_string@DU?$char_traits@D@std@@V?$allocator@D@2@@std@@XZ 
?getValue@LodStrategy@Ogre@@QEBAMPEBVMovableObject@2@PEBVCamera@2@@Z 
?getValue@NumericKeyFrame@Ogre@@UEBAAEBVAnyNumeric@2@XZ 
?getValue@ObjectAbstractNode@Ogre@@UEBA?AV?$basic_string@DU?$char_traits@D@std@@V?$allocator@D@2@@std@@XZ 
?getValue@PropertyAbstractNode@Ogre@@UEBA?AV?$basic_string@DU?$char_traits@D@std@@V?$allocator@D@2@@std@@XZ 
?getValue@TexCoordModifierControllerValue@Ogre@@UEBAMXZ 
?getValue@TextureFrameControllerValue@Ogre@@UEBAMXZ 
?getValue@VariableAccessAbstractNode@Ogre@@UEBA?AV?$basic_string@DU?$char_traits@D@std@@V?$allocator@D@2@@std@@XZ 
?getValueImpl@AbsolutePixelCountLodStrategy@Ogre@@UEBAMPEBVMovableObject@2@PEBVCamera@2@@Z 
?getValueImpl@DistanceLodStrategyBase@Ogre@@MEBAMPEBVMovableObject@2@PEBVCamera@2@@Z 
?getValueImpl@ScreenRatioPixelCountLodStrategy@Ogre@@UEBAMPEBVMovableObject@2@PEBVCamera@2@@Z 
?getVariable@ObjectAbstractNode@Ogre@@QEBA?AU?$pair@_NV?$basic_string@DU?$char_traits@D@std@@V?$allocator@D@2@@std@@@std@@AEBV?$basic_string@DU?$char_traits@D@std@@V?$allocator@D@2@@4@@Z 
?getVariables@ObjectAbstractNode@Ogre@@QEBAAEBV?$map@V?$basic_string@DU?$char_traits@D@std@@V?$allocator@D@2@@std@@V12@U?$less@V?$basic_string@DU?$char_traits@D@std@@V?$allocator@D@2@@std@@@2@V?$STLAllocator@U?$pair@$$CBV?$basic_string@DU?$char_traits@D@std@@V?$allocator@D@2@@std@@V12@@std@@V?$CategorisedAllocPolicy@$0A@@Ogre@@@Ogre@@@std@@XZ 
?getVendor@RenderSystemCapabilities@Ogre@@QEBA?AW4GPUVendor@2@XZ 
?getVerbose@ResourceManager@Ogre@@UEAA_NXZ 
?getVersion@GpuSharedParameters@Ogre@@QEBAKXZ 
?getVertex@ConvexBody@Ogre@@QEBAAEBVVector3@2@_K0@Z 
?getVertex@Polygon@Ogre@@QEBAAEBVVector3@2@_K@Z 
?getVertexAnimationIncludesNormals@SubMesh@Ogre@@QEBA_NXZ 
?getVertexAnimationIncludesNormals@VertexAnimationTrack@Ogre@@QEBA_NXZ 
?getVertexAnimationType@SubMesh@Ogre@@QEBA?AW4VertexAnimationType@2@XZ 
?getVertexBuffer@VertexMorphKeyFrame@Ogre@@QEBAAEBVHardwareVertexBufferSharedPtr@2@XZ 
?getVertexBufferUsage@Mesh@Ogre@@QEBA?AW4Usage@HardwareBuffer@2@XZ 
?getVertexColourTracking@Pass@Ogre@@QEBAHXZ 
?getVertexCount@ConvexBody@Ogre@@QEBA_K_K@Z 
?getVertexCount@Polygon@Ogre@@QEBA_KXZ 
?getVertexData@GeometryBucket@StaticGeometry@Ogre@@QEBAPEBVVertexData@3@XZ 
?getVertexDataByTrackHandle@Mesh@Ogre@@QEAAPEAVVertexData@2@G@Z 
?getVertexDataForBinding@Entity@Ogre@@QEAAPEAVVertexData@2@XZ 
?getVertexDataForBinding@SubEntity@Ogre@@QEAAPEAVVertexData@2@XZ 
?getVertexDeclaration@RenderToVertexBuffer@Ogre@@QEAAPEAVVertexDeclaration@2@XZ 
?getVertexMorphKeyFrame@VertexAnimationTrack@Ogre@@QEBAPEAVVertexMorphKeyFrame@2@G@Z 
?getVertexOffset@PatchSurface@Ogre@@QEBA_KXZ 
?getVertexOffsetIterator@Pose@Ogre@@QEAA?AV?$MapIterator@V?$map@_KVVector3@Ogre@@U?$less@_K@std@@V?$STLAllocator@U?$pair@$$CB_KVVector3@Ogre@@@std@@V?$CategorisedAllocPolicy@$0A@@Ogre@@@2@@std@@@2@XZ 
?getVertexOffsetIterator@Pose@Ogre@@QEBA?AV?$ConstMapIterator@V?$map@_KVVector3@Ogre@@U?$less@_K@std@@V?$STLAllocator@U?$pair@$$CB_KVVector3@Ogre@@@std@@V?$CategorisedAllocPolicy@$0A@@Ogre@@@2@@std@@@2@XZ 
?getVertexOffsets@Pose@Ogre@@QEBAAEBV?$map@_KVVector3@Ogre@@U?$less@_K@std@@V?$STLAllocator@U?$pair@$$CB_KVVector3@Ogre@@@std@@V?$CategorisedAllocPolicy@$0A@@Ogre@@@2@@std@@XZ 
?getVertexPoseKeyFrame@VertexAnimationTrack@Ogre@@QEBAPEAVVertexPoseKeyFrame@2@G@Z 
?getVertexProgram@Pass@Ogre@@QEBAAEBV?$SharedPtr@VGpuProgram@Ogre@@@2@XZ 
?getVertexProgramConstantBoolCount@RenderSystemCapabilities@Ogre@@QEBAGXZ 
?getVertexProgramConstantFloatCount@RenderSystemCapabilities@Ogre@@QEBAGXZ 
?getVertexProgramConstantIntCount@RenderSystemCapabilities@Ogre@@QEBAGXZ 
?getVertexProgramName@Pass@Ogre@@QEBAAEBV?$basic_string@DU?$char_traits@D@std@@V?$allocator@D@2@@std@@XZ 
?getVertexProgramParameters@Pass@Ogre@@QEBA?AV?$SharedPtr@VGpuProgramParameters@Ogre@@@2@XZ 
?getVertexSize@HardwareVertexBuffer@Ogre@@QEBA_KXZ 
?getVertexSize@VertexDeclaration@Ogre@@UEBA_KG@Z 
?getVertexTextureUnitsShared@RenderSystemCapabilities@Ogre@@QEBA_NXZ 
?getVertexTrack@Animation@Ogre@@QEBAPEAVVertexAnimationTrack@2@G@Z 
?getVertexTrackIterator@Animation@Ogre@@QEBA?AV?$ConstMapIterator@V?$map@GPEAVVertexAnimationTrack@Ogre@@U?$less@G@std@@V?$STLAllocator@U?$pair@$$CBGPEAVVertexAnimationTrack@Ogre@@@std@@V?$CategorisedAllocPolicy@$0A@@Ogre@@@2@@std@@@2@XZ 
?getViewDirection@AutoParamDataSource@Ogre@@QEBA?AVVector3@2@XZ 
?getViewMatrix@AutoParamDataSource@Ogre@@QEBAAEBVMatrix4@2@XZ 
?getViewMatrix@Camera@Ogre@@QEBAAEBVMatrix4@2@_N@Z 
?getViewMatrix@Camera@Ogre@@UEBAAEBVMatrix4@2@XZ 
?getViewMatrix@Frustum@Ogre@@UEBAAEBVMatrix4@2@XZ 
?getViewPointToPixelScale@RenderWindow@Ogre@@UEAAMXZ 
?getViewProjectionMatrix@AutoParamDataSource@Ogre@@QEBAAEBVMatrix4@2@XZ 
?getViewSideVector@AutoParamDataSource@Ogre@@QEBA?AVVector3@2@XZ 
?getViewUpVector@AutoParamDataSource@Ogre@@QEBA?AVVector3@2@XZ 
?getViewport@CompositorPass@Ogre@@QEBAPEAVViewport@2@XZ 
?getViewport@RenderTarget@Ogre@@UEAAPEAVViewport@2@G@Z 
?getViewportHeight@AutoParamDataSource@Ogre@@QEBAMXZ 
?getViewportWidth@AutoParamDataSource@Ogre@@QEBAMXZ 
?getVisibilityFlags@MovableObject@Ogre@@QEBAIXZ 
?getVisibilityFlags@StaticGeometry@Ogre@@QEBAIXZ 
?getVisibilityMask@SceneManager@Ogre@@QEBAIXZ 
?getVisibilityMask@Viewport@Ogre@@QEBAIXZ 
?getVisible@MovableObject@Ogre@@QEBA_NXZ 
?getVisualData@Particle@Ogre@@QEBAPEAVParticleVisualData@2@XZ 
?getVolumeIntersection@StaticGeometry@Ogre@@MEAAMAEBVAxisAlignedBox@2@GGG@Z 
?getVolumes@PlaneBoundedVolumeListSceneQuery@Ogre@@QEBAAEBV?$vector@VPlaneBoundedVolume@Ogre@@V?$STLAllocator@VPlaneBoundedVolume@Ogre@@V?$CategorisedAllocPolicy@$0A@@2@@2@@std@@XZ 
?getWBufferEnabled@RenderSystem@Ogre@@QEBA_NXZ 
?getWastedMemory@ArrayMemoryManager@Ogre@@QEBA_KXZ 
?getWeight@AnimationState@Ogre@@QEBAMXZ 
?getWidth@DepthBuffer@Ogre@@UEBAIXZ 
?getWidth@HardwarePixelBuffer@Ogre@@QEBAIXZ 
?getWidth@Image@Ogre@@QEBAIXZ 
?getWidth@RenderTarget@Ogre@@UEBAIXZ 
?getWidth@Texture@Ogre@@UEBAIXZ 
?getWidth@Viewport@Ogre@@QEBAMXZ 
?getWidthChange@RibbonTrail@Ogre@@UEBAM_K@Z 
?getWindowPlanes@Camera@Ogre@@QEBAAEBV?$vector@VPlane@Ogre@@V?$STLAllocator@VPlane@Ogre@@V?$CategorisedAllocPolicy@$0A@@2@@2@@std@@XZ 
?getWorkQueue@Root@Ogre@@QEBAPEAVWorkQueue@2@XZ 
?getWorkerThreadCount@DefaultWorkQueueBase@Ogre@@UEBA_KXZ 
?getWorkersCanAccessRenderSystem@DefaultWorkQueueBase@Ogre@@UEBA_NXZ 
?getWorkspace@CompositorManager2@Ogre@@QEBAPEAVCompositorWorkspace@2@H@Z 
?getWorkspace@CompositorNode@Ogre@@QEAAPEAVCompositorWorkspace@2@XZ 
?getWorkspace@CompositorNode@Ogre@@QEBAPEBVCompositorWorkspace@2@XZ 
?getWorkspaceDefinition@CompositorManager2@Ogre@@QEBAPEAVCompositorWorkspaceDef@2@UIdString@2@@Z 
?getWorldAabb@MovableObject@Ogre@@QEBA?AUAabb@2@XZ 
?getWorldAabbUpdated@MovableObject@Ogre@@QEAA?AUAabb@2@XZ 
?getWorldFragmentType@SceneQuery@Ogre@@UEBA?AW4WorldFragmentType@12@XZ 
?getWorldGeometryRenderQueue@SceneManager@Ogre@@UEAAEXZ 
?getWorldMatrix@AutoParamDataSource@Ogre@@QEBAAEBVMatrix4@2@XZ 
?getWorldMatrixArray@AutoParamDataSource@Ogre@@QEBAPEBVMatrix4@2@XZ 
?getWorldMatrixCount@AutoParamDataSource@Ogre@@QEBA_KXZ 
?getWorldRadius@MovableObject@Ogre@@QEBAMXZ 
?getWorldRadiusUpdated@MovableObject@Ogre@@QEAAMXZ 
?getWorldResourceGroupName@ResourceGroupManager@Ogre@@QEBAAEBV?$basic_string@DU?$char_traits@D@std@@V?$allocator@D@2@@std@@XZ 
?getWorldSpaceCorners@Camera@Ogre@@UEBAPEBVVector3@2@XZ 
?getWorldSpaceCorners@Frustum@Ogre@@UEBAPEBVVector3@2@XZ 
?getWorldTransforms@BaseInstanceBatchVTF@Ogre@@UEBAXPEAVMatrix4@2@@Z 
?getWorldTransforms@BillboardChain@Ogre@@UEBAXPEAVMatrix4@2@@Z 
?getWorldTransforms@BillboardSet@Ogre@@UEBAXPEAVMatrix4@2@@Z 
?getWorldTransforms@Camera@Ogre@@UEBAXPEAVMatrix4@2@@Z 
?getWorldTransforms@Frustum@Ogre@@UEBAXPEAVMatrix4@2@@Z 
?getWorldTransforms@GeometryBucket@StaticGeometry@Ogre@@UEBAXPEAVMatrix4@3@@Z 
?getWorldTransforms@InstanceBatchHW@Ogre@@UEBAXPEAVMatrix4@2@@Z 
?getWorldTransforms@InstanceBatchShader@Ogre@@UEBAXPEAVMatrix4@2@@Z 
?getWorldTransforms@ManualObjectSection@ManualObject@Ogre@@UEBAXPEAVMatrix4@3@@Z 
?getWorldTransforms@Rectangle2D@Ogre@@UEBAXPEAVMatrix4@2@@Z 
?getWorldTransforms@SimpleRenderable@Ogre@@UEBAXPEAVMatrix4@2@@Z 
?getWorldTransforms@SubEntity@Ogre@@UEBAXPEAVMatrix4@2@@Z 
?getWorldTransforms@WireBoundingBox@Ogre@@MEBAXPEAVMatrix4@2@@Z 
?getWorldViewMatrix@AutoParamDataSource@Ogre@@QEBAAEBVMatrix4@2@XZ 
?getWorldViewProjMatrix@AutoParamDataSource@Ogre@@QEBAAEBVMatrix4@2@XZ 
?getWorstTime@FrameStats@Ogre@@QEBAMXZ 
?getWritablePath@FileSystemLayer@Ogre@@QEBA?BV?$basic_string@DU?$char_traits@D@std@@V?$allocator@D@2@@std@@AEBV34@@Z 
?getYaw@Quaternion@Ogre@@QEBA?AVRadian@2@_N@Z 
?growToDepth@BoneMemoryManager@Ogre@@AEAAX_K@Z 
?growToDepth@ObjectMemoryManager@Ogre@@AEAAX_K@Z 
?handleError@ScriptCompilerListener@Ogre@@UEAAXPEAVScriptCompiler@2@IAEBV?$basic_string@DU?$char_traits@D@std@@V?$allocator@D@2@@std@@H1@Z 
?handleEvent@ScriptCompilerListener@Ogre@@UEAA_NPEAVScriptCompiler@2@PEAVScriptCompilerEvent@2@PEAX@Z 
?handleRequest@RequestHandlerHolder@DefaultWorkQueueBase@Ogre@@QEAAPEAUResponse@WorkQueue@3@PEBVRequest@53@PEBV53@@Z 
?handleRequest@ResourceBackgroundQueue@Ogre@@UEAAPEAUResponse@WorkQueue@2@PEBVRequest@42@PEBV42@@Z 
?handleResponse@ResourceBackgroundQueue@Ogre@@UEAAXPEBUResponse@WorkQueue@2@PEBV42@@Z 
?hasAlpha@PixelUtil@Ogre@@SA_NW4PixelFormat@2@@Z 
?hasAlpha@Texture@Ogre@@UEBA_NXZ 
?hasAnimation@Mesh@Ogre@@UEBA_NI@Z 
?hasAnimation@SceneManager@Ogre@@UEBA_NAEBV?$basic_string@DU?$char_traits@D@std@@V?$allocator@D@2@@std@@@Z 
?hasAnimation@Skeleton@Ogre@@UEBA_NI@Z 
?hasAnimation@SkeletonInstance@Ogre@@QEBA_NUIdString@2@@Z 
?hasAnimationState@AnimationStateSet@Ogre@@QEBA_NI@Z 
?hasAnimationState@Entity@Ogre@@QEBA_NI@Z 
?hasAnimationState@SceneManager@Ogre@@UEBA_NAEBV?$basic_string@DU?$char_traits@D@std@@V?$allocator@D@2@@std@@@Z 
?hasAutoConstants@GpuProgramParameters@Ogre@@QEBA_NXZ 
?hasBlendMask@AnimationState@Ogre@@QEBA_NXZ 
?hasBone@Skeleton@Ogre@@UEBA_NAEBV?$basic_string@DU?$char_traits@D@std@@V?$allocator@D@2@@std@@@Z 
?hasCapability@RenderSystemCapabilities@Ogre@@QEBA_NW4Capabilities@2@@Z 
?hasClosedHull@ConvexBody@Ogre@@QEBA_NXZ 
?hasColourWriteDisabled@Technique@Ogre@@QEBA_NXZ 
?hasCompileError@GpuProgram@Ogre@@UEBA_NXZ 
?hasCompileError@UnifiedHighLevelGpuProgram@Ogre@@UEBA_NXZ 
?hasComputeProgram@Pass@Ogre@@QEBA_NXZ 
?hasCpuFeature@PlatformInformation@Ogre@@SA_NW4CpuFeatures@12@@Z 
?hasCustomParameter@Renderable@Ogre@@QEBA_N_K@Z 
?hasDefaultParameters@GpuProgram@Ogre@@UEBA_NXZ 
?hasDefaultParameters@UnifiedHighLevelGpuProgram@Ogre@@UEBA_NXZ 
?hasEdgeList@Entity@Ogre@@QEAA_NXZ 
?hasEdgeList@ManualObject@Ogre@@QEAA_NXZ 
?hasEdgeList@Region@StaticGeometry@Ogre@@QEAA_NXZ 
?hasEnabledAnimationState@AnimationStateSet@Ogre@@QEBA_NXZ 
?hasEnded@AnimationState@Ogre@@QEBA_NXZ 
?hasFlag@Image@Ogre@@QEBA_NW4ImageFlags@2@@Z 
?hasFragmentProgram@Pass@Ogre@@QEBA_NXZ 
?hasGaps@VertexBufferBinding@Ogre@@UEBA_NXZ 
?hasGeometryProgram@Pass@Ogre@@QEBA_NXZ 
?hasInstanceManager@SceneManager@Ogre@@UEBA_NUIdString@2@@Z 
?hasKeyIndex@TimeIndex@Ogre@@QEBA_NXZ 
?hasLightList@AutoParamDataSource@Ogre@@QEBA_NXZ 
?hasLogicalIndexedParameters@GpuProgramParameters@Ogre@@QEBA_NXZ 
?hasManualBones@Skeleton@Ogre@@UEBA_NXZ 
?hasManualLodLevel@Mesh@Ogre@@QEBA_NXZ 
?hasMovableObject@SceneManager@Ogre@@UEAA_NPEAVMovableObject@2@@Z 
?hasMovableObjectFactory@Root@Ogre@@QEBA_NAEBV?$basic_string@DU?$char_traits@D@std@@V?$allocator@D@2@@std@@@Z 
?hasNamedParameters@GpuProgramParameters@Ogre@@QEBA_NXZ 
?hasNegativeScale@Matrix4@Ogre@@QEBA_NXZ 
?hasNodeDefinition@CompositorManager2@Ogre@@QEBA_NUIdString@2@@Z 
?hasNonZeroKeyFrames@AnimationTrack@Ogre@@UEBA_NXZ 
?hasNonZeroKeyFrames@NodeAnimationTrack@Ogre@@UEBA_NXZ 
?hasNonZeroKeyFrames@OldNodeAnimationTrack@Ogre@@UEBA_NXZ 
?hasNonZeroKeyFrames@VertexAnimationTrack@Ogre@@UEBA_NXZ 
?hasNumericTrack@Animation@Ogre@@QEBA_NG@Z 
?hasOldNodeTrack@Animation@Ogre@@QEBA_NG@Z 
?hasOption@SceneManager@Ogre@@UEBA_NAEBV?$basic_string@DU?$char_traits@D@std@@V?$allocator@D@2@@std@@@Z 
?hasOwnDimensions@Billboard@Ogre@@QEBA_NXZ 
?hasOwnDimensions@Particle@Ogre@@QEBA_NXZ 
?hasPassIterationNumber@GpuProgramParameters@Ogre@@QEBA_NXZ 
?hasScale@Matrix3@Ogre@@QEBA_NXZ 
?hasScale@Matrix4@Ogre@@QEBA_NXZ 
?hasSceneManager@Root@Ogre@@QEBA_NAEBV?$basic_string@DU?$char_traits@D@std@@V?$allocator@D@2@@std@@@Z 
?hasSceneManager@SceneManagerEnumerator@Ogre@@QEBA_NAEBV?$basic_string@DU?$char_traits@D@std@@V?$allocator@D@2@@std@@@Z 
?hasSeparateSceneBlending@Pass@Ogre@@QEBA_NXZ 
?hasSeparateSceneBlendingOperations@Pass@Ogre@@QEBA_NXZ 
?hasSettings@InstanceManager@Ogre@@QEBA_NUIdString@2@@Z 
?hasShadowBuffer@HardwareBuffer@Ogre@@QEBA_NXZ 
?hasShadowCasterFragmentProgram@Pass@Ogre@@QEBA_NXZ 
?hasShadowCasterVertexProgram@Pass@Ogre@@QEBA_NXZ 
?hasSkeleton@Entity@Ogre@@QEBA_NXZ 
?hasSkeleton@InstancedEntity@Ogre@@QEBA_NXZ 
?hasSkeleton@Mesh@Ogre@@QEBA_NXZ 
?hasStaticGeometry@SceneManager@Ogre@@UEBA_NAEBV?$basic_string@DU?$char_traits@D@std@@V?$allocator@D@2@@std@@@Z 
?hasTessellationDomainProgram@Pass@Ogre@@QEBA_NXZ 
?hasTessellationHullProgram@Pass@Ogre@@QEBA_NXZ 
?hasTextureAliases@SubMesh@Ogre@@QEBA_NXZ 
?hasVertexAnimation@Entity@Ogre@@QEBA_NXZ 
?hasVertexAnimation@Mesh@Ogre@@QEBA_NXZ 
?hasVertexProgram@Pass@Ogre@@QEBA_NXZ 
?hasVertexTrack@Animation@Ogre@@QEBA_NG@Z 
?hasViewRelativeTextureCoordinateGeneration@TextureUnitState@Ogre@@QEBA_NXZ 
?hasWorkspaceDefinition@CompositorManager2@Ogre@@QEBA_NUIdString@2@@Z 
?highLevelCull@SceneManager@Ogre@@MEAAXXZ 
?importFile@ScriptCompilerListener@Ogre@@UEAA?AV?$SharedPtr@V?$list@V?$SharedPtr@UConcreteNode@Ogre@@@Ogre@@V?$STLAllocator@V?$SharedPtr@UConcreteNode@Ogre@@@Ogre@@V?$CategorisedAllocPolicy@$0A@@2@@2@@std@@@2@PEAVScriptCompiler@2@AEBV?$basic_string@DU?$char_traits@D@std@@V?$allocator@D@2@@std@@@Z 
?importMesh@MeshSerializer@Ogre@@QEAAXAEAV?$SharedPtr@VDataStream@Ogre@@@2@PEAVMesh@2@@Z 
?importNamedConstants@GpuNamedConstantsSerializer@Ogre@@QEAAXAEAV?$SharedPtr@VDataStream@Ogre@@@2@PEAUGpuNamedConstants@2@@Z 
?importSkeleton@SkeletonSerializer@Ogre@@QEAAXAEAV?$SharedPtr@VDataStream@Ogre@@@2@PEAVSkeleton@2@@Z 
?inCache@VertexCacheProfiler@Ogre@@AEAA_NI@Z 
?inString@UTFString@Ogre@@QEBA_NI@Z 
?incPassIterationNumber@GpuProgramParameters@Ogre@@QEAAXXZ 
?incPassNumber@AutoParamDataSource@Ogre@@QEAAXXZ 
?increaseEmittedEmitterPool@ParticleSystem@Ogre@@IEAAX_K@Z 
?increasePool@BillboardSet@Ogre@@MEAAX_K@Z 
?increasePool@ParticleSystem@Ogre@@IEAAX_K@Z 
?index@ManualObject@Ogre@@UEAAXI@Z 
?init@DeflateStream@Ogre@@IEAAXXZ 
?initCopyData@GpuSharedParametersUsage@Ogre@@IEAAXXZ 
?initDurationRepeat@ParticleEmitter@Ogre@@IEAAXXZ 
?initHardwareAnimationElements@Entity@Ogre@@IEAAGPEAVVertexData@2@G_N@Z 
?initMetaData@DefaultSceneManagerFactory@Ogre@@MEBAXXZ 
?initParameters@ParticleSystem@Ogre@@IEAAXXZ 
?initRectangle2D@Rectangle2D@Ogre@@IEAAXXZ 
?initRenderQueue@SceneManager@Ogre@@MEAAXXZ 
?initVendorStrings@RenderSystemCapabilities@Ogre@@CAXXZ 
?initWordMap@ScriptCompiler@Ogre@@AEAAXXZ 
?initialiaseDispatchTables@RenderSystemCapabilitiesSerializer@Ogre@@IEAAXXZ 
?initialise@MaterialManager@Ogre@@QEAAXXZ 
?initialise@ResourceBackgroundQueue@Ogre@@UEAAXXZ 
?initialise@Root@Ogre@@QEAAPEAVRenderWindow@2@_NAEBV?$basic_string@DU?$char_traits@D@std@@V?$allocator@D@2@@std@@1@Z 
?initialise@ShadowVolumeExtrudeProgram@Ogre@@SAXXZ 
?initialiseAllResourceGroups@ResourceBackgroundQueue@Ogre@@UEAA_KPEAVListener@12@@Z 
?initialiseAllResourceGroups@ResourceGroupManager@Ogre@@QEAAXXZ 
?initialiseAnimableDictionary@AnimableObject@Ogre@@MEBAXAEAV?$vector@V?$basic_string@DU?$char_traits@D@std@@V?$allocator@D@2@@std@@V?$STLAllocator@V?$basic_string@DU?$char_traits@D@std@@V?$allocator@D@2@@std@@V?$CategorisedAllocPolicy@$0A@@Ogre@@@Ogre@@@std@@@Z 
?initialiseEmittedEmitterPool@ParticleSystem@Ogre@@IEAAXXZ 
?initialiseEmittedEmitters@ParticleSystem@Ogre@@IEAAXXZ 
?initialiseModulationPassPrograms@ShadowVolumeExtrudeProgram@Ogre@@SAXXZ 
?initialisePlugins@Root@Ogre@@IEAAXXZ 
?initialisePoseVertexData@Entity@Ogre@@IEAAXPEBVVertexData@2@PEAV32@_N@Z 
?initialiseResourceGroup@ResourceBackgroundQueue@Ogre@@UEAA_KAEBV?$basic_string@DU?$char_traits@D@std@@V?$allocator@D@2@@std@@PEAVListener@12@@Z 
?initialiseResourceGroup@ResourceGroupManager@Ogre@@QEAAXAEBV?$basic_string@DU?$char_traits@D@std@@V?$allocator@D@2@@std@@@Z 
?initialize@ArrayMemoryManager@Ogre@@QEAAXXZ 
?initialize@SkeletonAnimation@Ogre@@QEAAXXZ 
?injectBillboard@BillboardSet@Ogre@@QEAAXAEBVBillboard@2@PEBVCamera@2@@Z 
?injectMovableObject@SceneManager@Ogre@@UEAAXPEAVMovableObject@2@@Z 
?insert@UTFString@Ogre@@QEAA?AV_fwd_iterator@12@V312@AEBG@Z 
?insert@UTFString@Ogre@@QEAAAEAV12@_K0D@Z 
?insert@UTFString@Ogre@@QEAAAEAV12@_K0G@Z 
?insert@UTFString@Ogre@@QEAAAEAV12@_K0I@Z 
?insert@UTFString@Ogre@@QEAAAEAV12@_K0_W@Z 
?insert@UTFString@Ogre@@QEAAAEAV12@_KAEBV12@00@Z 
?insert@UTFString@Ogre@@QEAAAEAV12@_KAEBV12@@Z 
?insert@UTFString@Ogre@@QEAAAEAV12@_KPEBD0@Z 
?insert@UTFString@Ogre@@QEAAAEAV12@_KPEBG0@Z 
?insert@UTFString@Ogre@@QEAAAEAV12@_KPEBG@Z 
?insert@UTFString@Ogre@@QEAAAEAV12@_KPEB_W0@Z 
?insert@UTFString@Ogre@@QEAAXV_fwd_iterator@12@00@Z 
?insert@UTFString@Ogre@@QEAAXV_fwd_iterator@12@_KAEBD@Z 
?insert@UTFString@Ogre@@QEAAXV_fwd_iterator@12@_KAEBG@Z 
?insert@UTFString@Ogre@@QEAAXV_fwd_iterator@12@_KAEBI@Z 
?insert@UTFString@Ogre@@QEAAXV_fwd_iterator@12@_KAEB_W@Z 
?insertElement@VertexDeclaration@Ogre@@UEAAAEBVVertexElement@2@GG_KW4VertexElementType@2@W4VertexElementSemantic@2@G@Z 
?insertPieces@Hlms@Ogre@@IEBA_NAEAV?$basic_string@DU?$char_traits@D@std@@V?$allocator@D@2@@std@@0@Z 
?insertPolygon@ConvexBody@Ogre@@IEAAXPEAVPolygon@2@@Z 
?insertPolygon@ConvexBody@Ogre@@IEAAXPEAVPolygon@2@_K@Z 
?insertShadowContentTypeLookup@Pass@Ogre@@QEAAX_K@Z 
?insertSupportedTechnique@Material@Ogre@@IEAAXPEAVTechnique@2@@Z 
?insertTangents@TangentSpaceCalc@Ogre@@IEAAXAEAUResult@12@W4VertexElementSemantic@2@GG@Z 
?insertVertex@ConvexBody@Ogre@@IEAAX_KAEBVVector3@2@0@Z 
?insertVertex@ConvexBody@Ogre@@IEAAX_KAEBVVector3@2@@Z 
?insertVertex@Polygon@Ogre@@QEAAXAEBVVector3@2@@Z 
?insertVertex@Polygon@Ogre@@QEAAXAEBVVector3@2@_K@Z 
?installPlugin@Root@Ogre@@QEAAXPEAVPlugin@2@@Z 
?instance@?1??getSingleton@AnimationNameIDMapper@Ogre@@SAPEAV23@XZ@4PEAV23@EA 
?instanceBatchCullFrustumThread@SceneManager@Ogre@@IEAAXAEBUInstanceBatchCullRequest@2@_K@Z 
?instanceBatchCullFrustumThreaded@InstanceBatchHW@Ogre@@UEAAXPEBVFrustum@2@PEBVCamera@2@I@Z 
?instanceBatchCullFrustumThreaded@InstanceBatchHW_VTF@Ogre@@UEAAXPEBVFrustum@2@PEBVCamera@2@I@Z 
?instanceBatchCullFrustumThreaded@MovableObject@Ogre@@UEAAXPEBVFrustum@2@PEBVCamera@2@I@Z 
?instanceBatchCullFrustumThreadedImpl@InstanceBatch@Ogre@@IEAAXPEBVFrustum@2@PEBVCamera@2@I@Z 
?interpolate@RotationalSpline@Ogre@@QEAA?AVQuaternion@2@IM_N@Z 
?interpolate@RotationalSpline@Ogre@@QEAA?AVQuaternion@2@M_N@Z 
?interpolate@SimpleSpline@Ogre@@QEBA?AVVector3@2@IM@Z 
?interpolate@SimpleSpline@Ogre@@QEBA?AVVector3@2@M@Z 
?interpolateVertexData@PatchSurface@Ogre@@IEAAXPEAX_K11@Z 
?intersection@Aabb@Ogre@@QEBA?AU12@AEBU12@@Z 
?intersection@AxisAlignedBox@Ogre@@QEBA?AV12@AEBV12@@Z 
?intersects@Aabb@Ogre@@QEBA_NAEBU12@@Z 
?intersects@ArrayAabb@Ogre@@QEBA?AT__m128@@AEBV12@@Z 
?intersects@ArraySphere@Ogre@@QEBA?AT__m128@@AEBV12@@Z 
?intersects@ArraySphere@Ogre@@QEBA?AT__m128@@AEBVArrayVector3@2@@Z 
?intersects@AxisAlignedBox@Ogre@@QEBA_NAEBV12@@Z 
?intersects@AxisAlignedBox@Ogre@@QEBA_NAEBVPlane@2@@Z 
?intersects@AxisAlignedBox@Ogre@@QEBA_NAEBVSphere@2@@Z 
?intersects@AxisAlignedBox@Ogre@@QEBA_NAEBVVector3@2@@Z 
?intersects@Math@Ogre@@SA?AU?$pair@_NM@std@@AEBVRay@2@AEBUAabb@2@@Z 
?intersects@Math@Ogre@@SA?AU?$pair@_NM@std@@AEBVRay@2@AEBV?$list@VPlane@Ogre@@V?$STLAllocator@VPlane@Ogre@@V?$CategorisedAllocPolicy@$0A@@2@@2@@4@_N@Z 
?intersects@Math@Ogre@@SA?AU?$pair@_NM@std@@AEBVRay@2@AEBV?$vector@VPlane@Ogre@@V?$STLAllocator@VPlane@Ogre@@V?$CategorisedAllocPolicy@$0A@@2@@2@@4@_N@Z 
?intersects@Math@Ogre@@SA?AU?$pair@_NM@std@@AEBVRay@2@AEBVAxisAlignedBox@2@@Z 
?intersects@Math@Ogre@@SA?AU?$pair@_NM@std@@AEBVRay@2@AEBVPlane@2@@Z 
?intersects@Math@Ogre@@SA?AU?$pair@_NM@std@@AEBVRay@2@AEBVSphere@2@_N@Z 
?intersects@Math@Ogre@@SA?AU?$pair@_NM@std@@AEBVRay@2@AEBVVector3@2@111_N2@Z 
?intersects@Math@Ogre@@SA?AU?$pair@_NM@std@@AEBVRay@2@AEBVVector3@2@11_N2@Z 
?intersects@Math@Ogre@@SA_NAEBVPlane@2@AEBVAxisAlignedBox@2@@Z 
?intersects@Math@Ogre@@SA_NAEBVRay@2@AEBVAxisAlignedBox@2@PEAM2@Z 
?intersects@Math@Ogre@@SA_NAEBVSphere@2@AEBVAxisAlignedBox@2@@Z 
?intersects@Math@Ogre@@SA_NAEBVSphere@2@AEBVPlane@2@@Z 
?intersects@PlaneBoundedVolume@Ogre@@QEAA?AU?$pair@_NM@std@@AEBVRay@2@@Z 
?intersects@PlaneBoundedVolume@Ogre@@QEBA_NAEBVAxisAlignedBox@2@@Z 
?intersects@PlaneBoundedVolume@Ogre@@QEBA_NAEBVSphere@2@@Z 
?intersects@Ray@Ogre@@QEBA?AU?$pair@_NM@std@@AEBUAabb@2@@Z 
?intersects@Ray@Ogre@@QEBA?AU?$pair@_NM@std@@AEBVAxisAlignedBox@2@@Z 
?intersects@Ray@Ogre@@QEBA?AU?$pair@_NM@std@@AEBVPlane@2@@Z 
?intersects@Ray@Ogre@@QEBA?AU?$pair@_NM@std@@AEBVPlaneBoundedVolume@2@@Z 
?intersects@Ray@Ogre@@QEBA?AU?$pair@_NM@std@@AEBVSphere@2@@Z 
?intersects@Sphere@Ogre@@QEBA_NAEBV12@@Z 
?intersects@Sphere@Ogre@@QEBA_NAEBVAxisAlignedBox@2@@Z 
?intersects@Sphere@Ogre@@QEBA_NAEBVPlane@2@@Z 
?intersects@Sphere@Ogre@@QEBA_NAEBVVector3@2@@Z 
?invalidateFrustum@Camera@Ogre@@MEBAXXZ 
?invalidateFrustum@Frustum@Ogre@@MEBAXXZ 
?invalidateView@Camera@Ogre@@MEBAXXZ 
?invalidateView@Frustum@Ogre@@MEBAXXZ 
?inverse@Matrix4@Ogre@@QEBA?AV12@XZ 
?inverseAffine@Matrix4@Ogre@@QEBA?AV12@XZ 
?inverseLeaveZeroes@ArrayVector3@Ogre@@QEAAXXZ 
?invoke@RenderQueueInvocation@Ogre@@UEAAXPEAVRenderQueueGroup@2@PEAVSceneManager@2@@Z 
?invokeParser@MaterialSerializer@Ogre@@IEAA_NAEAV?$basic_string@DU?$char_traits@D@std@@V?$allocator@D@2@@std@@AEAV?$map@V?$basic_string@DU?$char_traits@D@std@@V?$allocator@D@2@@std@@P6A_NAEAV12@AEAUMaterialScriptContext@Ogre@@@ZU?$less@V?$basic_string@DU?$char_traits@D@std@@V?$allocator@D@2@@std@@@2@V?$STLAllocator@U?$pair@$$CBV?$basic_string@DU?$char_traits@D@std@@V?$allocator@D@2@@std@@P6A_NAEAV12@AEAUMaterialScriptContext@Ogre@@@Z@std@@V?$CategorisedAllocPolicy@$0A@@Ogre@@@4@@4@@Z 
?is3D@TextureUnitState@Ogre@@QEBA_NXZ 
?isAccessible@PixelUtil@Ogre@@SA_NW4PixelFormat@2@@Z 
?isActive@RenderTarget@Ogre@@UEBA_NXZ 
?isActive@RenderWindow@Ogre@@UEBA_NXZ 
?isAdjacencyInfoRequired@GpuProgram@Ogre@@UEBA_NXZ 
?isAffine@ArrayMatrix4@Ogre@@QEBA_NXZ 
?isAffine@Matrix4@Ogre@@QEBA_NXZ 
?isAlphaToCoverageEnabled@Pass@Ogre@@QEBA_NXZ 
?isAmbientOnly@Pass@Ogre@@QEBA_NXZ 
?isAttached@MovableObject@Ogre@@QEBA_NXZ 
?isBackgroundLoaded@Resource@Ogre@@UEBA_NXZ 
?isBackgroundLoaded@UnifiedHighLevelGpuProgram@Ogre@@UEBA_NXZ 
?isBatchFull@InstanceBatch@Ogre@@QEBA_NXZ 
?isBatchUnused@InstanceBatch@Ogre@@QEBA_NXZ 
?isBlank@TextureUnitState@Ogre@@QEBA_NXZ 
?isBlendIndicesGpuRedundant@Root@Ogre@@QEBA_NXZ 
?isBlendWeightsGpuRedundant@Root@Ogre@@QEBA_NXZ 
?isBoneDisabled@OldSkeletonInstance@Ogre@@QEBA_NAEBV?$basic_string@DU?$char_traits@D@std@@V?$allocator@D@2@@std@@@Z 
?isBool@GpuConstantDefinition@Ogre@@QEBA_NXZ 
?isBool@GpuConstantDefinition@Ogre@@SA_NW4GpuConstantType@2@@Z 
?isBufferBound@VertexBufferBinding@Ogre@@UEBA_NG@Z 
?isBuildEdgesEnabled@SubMesh@Ogre@@QEBA_NXZ 
?isCacheDirty@GpuProgramManager@Ogre@@QEBA_NXZ 
?isCapabilityRenderSystemSpecific@RenderSystemCapabilities@Ogre@@QEBA_NW4Capabilities@2@@Z 
?isCaseSensitive@FileSystemArchive@Ogre@@UEBA_NXZ 
?isCaseSensitive@ZipArchive@Ogre@@UEBA_NXZ 
?isCategoryRelevant@RenderSystemCapabilities@Ogre@@QEAA_NW4CapabilitiesCategory@2@@Z 
?isCodecRegistered@Codec@Ogre@@SA_NAEBV?$basic_string@DU?$char_traits@D@std@@V?$allocator@D@2@@std@@@Z 
?isCompatible@DepthBuffer@Ogre@@UEBA_NPEAVRenderTarget@2@@Z 
?isCompressed@PixelUtil@Ogre@@SA_NW4PixelFormat@2@@Z 
?isCompressedStreamValid@DeflateStream@Ogre@@QEBA_NXZ 
?isConsecutive@PixelBox@Ogre@@QEBA_NXZ 
?isCubic@TextureUnitState@Ogre@@QEBA_NXZ 
?isCustomNearClipPlaneEnabled@Frustum@Ogre@@UEBA_NXZ 
?isCustomProjectionMatrixEnabled@Frustum@Ogre@@UEBA_NXZ 
?isCustomViewMatrixEnabled@Frustum@Ogre@@UEBA_NXZ 
?isDeactivatedOnFocusChange@RenderWindow@Ogre@@QEBA_NXZ 
?isDebugDisplayEnabled@MovableObject@Ogre@@UEBA_NXZ 
?isDebugOutputEnabled@Log@Ogre@@QEBA_NXZ 
?isDefaultFiltering@TextureUnitState@Ogre@@QEBA_NXZ 
?isDepth@PixelUtil@Ogre@@SA_NW4PixelFormat@2@@Z 
?isDepthCheckEnabled@Technique@Ogre@@QEBA_NXZ 
?isDepthWriteEnabled@Technique@Ogre@@QEBA_NXZ 
?isDirty@GpuSharedParameters@Ogre@@QEBA_NXZ 
?isDouble@GpuConstantDefinition@Ogre@@QEBA_NXZ 
?isDouble@GpuConstantDefinition@Ogre@@SA_NW4GpuConstantType@2@@Z 
?isDriverOlderThanVersion@RenderSystemCapabilities@Ogre@@QEBA_NAEBUDriverVersion@2@@Z 
?isEdgeListBuilt@Mesh@Ogre@@QEBA_NXZ 
?isEmitted@ParticleEmitter@Ogre@@UEBA_NXZ 
?isEndOfChunk@StreamSerialiser@Ogre@@UEAA_NI@Z 
?isEquivalentFormatSupported@TextureManager@Ogre@@UEAA_NW4TextureType@2@W4PixelFormat@2@H@Z 
?isFileOutputSuppressed@Log@Ogre@@QEBA_NXZ 
?isFinite@AxisAlignedBox@Ogre@@QEBA_NXZ 
?isFloat@GpuConstantDefinition@Ogre@@QEBA_NXZ 
?isFloat@GpuConstantDefinition@Ogre@@SA_NW4GpuConstantType@2@@Z 
?isFloatingPoint@PixelUtil@Ogre@@SA_NW4PixelFormat@2@@Z 
?isFormatSupported@TextureManager@Ogre@@UEAA_NW4TextureType@2@W4PixelFormat@2@H@Z 
?isFrustumOutOfDate@Frustum@Ogre@@MEBA_NXZ 
?isFsaaResolveDirty@RenderTarget@Ogre@@QEBA_NXZ 
?isFullScreen@RenderWindow@Ogre@@UEBA_NXZ 
?isGpuProgramBound@RenderSystem@Ogre@@UEAA_NW4GpuProgramType@2@@Z 
?isHardwareAnimationEnabled@Entity@Ogre@@QEAA_NXZ 
?isHardwareGammaEnabled@RenderTarget@Ogre@@UEBA_NXZ 
?isHardwareGammaEnabled@Texture@Ogre@@UEBA_NXZ 
?isHardwareGammaEnabled@TextureUnitState@Ogre@@QEBA_NXZ 
?isHidden@RenderWindow@Ogre@@UEBA_NXZ 
?isInScene@InstancedEntity@Ogre@@UEBA_NXZ 
?isInUse@InstancedEntity@Ogre@@QEBA_NXZ 
?isIndexBufferShadowed@Mesh@Ogre@@QEBA_NXZ 
?isInfinite@AxisAlignedBox@Ogre@@QEBA_NXZ 
?isInfinity@MathlibSSE2@Ogre@@SA?AT__m128@@T3@@Z 
?isInitialised@Entity@Ogre@@QEBA_NXZ 
?isInitialised@Root@Ogre@@QEBA_NXZ 
?isInt@GpuConstantDefinition@Ogre@@QEBA_NXZ 
?isInt@GpuConstantDefinition@Ogre@@SA_NW4GpuConstantType@2@@Z 
?isInteger@PixelUtil@Ogre@@SA_NW4PixelFormat@2@@Z 
?isLanguageSupported@HighLevelGpuProgramManager@Ogre@@QEAA_NAEBV?$basic_string@DU?$char_traits@D@std@@V?$allocator@D@2@@std@@@Z 
?isLateMaterialResolving@SceneManager@Ogre@@UEBA_NXZ 
?isLoaded@Pass@Ogre@@QEBA_NXZ 
?isLoaded@Resource@Ogre@@UEBA_NXZ 
?isLoaded@Technique@Ogre@@QEBA_NXZ 
?isLoaded@TextureUnitState@Ogre@@QEBA_NXZ 
?isLoaded@UnifiedHighLevelGpuProgram@Ogre@@UEBA_NXZ 
?isLoading@Resource@Ogre@@UEBA_NXZ 
?isLoading@UnifiedHighLevelGpuProgram@Ogre@@UEBA_NXZ 
?isLocked@HardwareBuffer@Ogre@@QEBA_NXZ 
?isLuminance@PixelUtil@Ogre@@SA_NW4PixelFormat@2@@Z 
?isManual@DepthBuffer@Ogre@@QEBA_NXZ 
?isManualBone@SkeletonInstance@Ogre@@QEAA_NPEAVBone@2@@Z 
?isManuallyControlled@OldBone@Ogre@@QEBA_NXZ 
?isManuallyLoaded@Resource@Ogre@@UEBA_NXZ 
?isMatInitialised@SubMesh@Ogre@@QEBA_NXZ 
?isMicrocodeAvailableInCache@GpuProgramManager@Ogre@@UEBA_NAEBV?$basic_string@DU?$char_traits@D@std@@V?$allocator@D@2@@std@@@Z 
?isMorphAnimationIncluded@GpuProgram@Ogre@@UEBA_NXZ 
?isMorphAnimationIncluded@UnifiedHighLevelGpuProgram@Ogre@@UEBA_NXZ 
?isNaN@ArrayVector3@Ogre@@QEBAHXZ 
?isNaN@DualQuaternion@Ogre@@QEBA_NXZ 
?isNaN@Math@Ogre@@SA_NM@Z 
?isNaN@Quaternion@Ogre@@QEBA_NXZ 
?isNaN@Vector2@Ogre@@QEBA_NXZ 
?isNaN@Vector3@Ogre@@QEBA_NXZ 
?isNaN@Vector4@Ogre@@QEBA_NXZ 
?isNameExcluded@ScriptCompiler@Ogre@@AEAA_NAEBV?$basic_string@DU?$char_traits@D@std@@V?$allocator@D@2@@std@@PEAVAbstractNode@2@@Z 
?isNativeEndian@PixelUtil@Ogre@@SA_NW4PixelFormat@2@@Z 
?isNearPlaneCullingDisabled@Frustum@Ogre@@QEBA_NXZ 
?isNewline@ScriptLexer@Ogre@@AEBA_ND@Z 
?isNull@?$SharedPtr@VHardwareCounterBuffer@Ogre@@@Ogre@@QEBA_NXZ 
?isNull@?$SharedPtr@VHardwareIndexBuffer@Ogre@@@Ogre@@QEBA_NXZ 
?isNull@?$SharedPtr@VHardwarePixelBuffer@Ogre@@@Ogre@@QEBA_NXZ 
?isNull@?$SharedPtr@VHardwareUniformBuffer@Ogre@@@Ogre@@QEBA_NXZ 
?isNull@?$SharedPtr@VHardwareVertexBuffer@Ogre@@@Ogre@@QEBA_NXZ 
?isNull@AxisAlignedBox@Ogre@@QEBA_NXZ 
?isNumber@StringConverter@Ogre@@SA_NAEBV?$basic_string@DU?$char_traits@D@std@@V?$allocator@D@2@@std@@@Z 
?isOverride@Animation@Ogre@@QEBA_NXZ 
?isPaused@DefaultWorkQueueBase@Ogre@@UEBA_NXZ 
?isPointAttenuationEnabled@Pass@Ogre@@QEBA_NXZ 
?isPointInside@Polygon@Ogre@@QEBA_NAEBVVector3@2@@Z 
?isPointRenderingEnabled@BillboardParticleRenderer@Ogre@@QEBA_NXZ 
?isPointRenderingEnabled@BillboardSet@Ogre@@UEBA_NXZ 
?isPoseAnimationIncluded@GpuProgram@Ogre@@UEBA_NXZ 
?isPoseAnimationIncluded@UnifiedHighLevelGpuProgram@Ogre@@UEBA_NXZ 
?isPrepared@Resource@Ogre@@UEBA_NXZ 
?isPreparedForShadowVolumes@Mesh@Ogre@@QEBA_NXZ 
?isPrimary@RenderTarget@Ogre@@UEBA_NXZ 
?isPrimary@RenderWindow@Ogre@@UEBA_NXZ 
?isProcessComplete@ResourceBackgroundQueue@Ogre@@UEAA_N_K@Z 
?isProgrammable@Pass@Ogre@@QEBA_NXZ 
?isReadOnly@Archive@Ogre@@UEBA_NXZ 
?isReadable@DataStream@Ogre@@UEBA_NXZ 
?isReferenceViewEnabled@DistanceLodStrategyBase@Ogre@@QEBA_NXZ 
?isReflected@Frustum@Ogre@@UEBA_NXZ 
?isReloadable@Resource@Ogre@@UEBA_NXZ 
?isReloadable@UnifiedHighLevelGpuProgram@Ogre@@UEBA_NXZ 
?isRenderQueueToBeProcessed@SceneManager@Ogre@@UEAA_NE@Z 
?isRenderWindow@RenderTarget@Ogre@@UEBA_NXZ 
?isRenderWindow@RenderWindow@Ogre@@UEBA_NXZ 
?isRenderedRq@Camera@Ogre@@QEBA_N_K@Z 
?isRequiredCapabilitiesSupported@GpuProgram@Ogre@@IEBA_NXZ 
?isResourceGroupInGlobalPool@ResourceGroupManager@Ogre@@QEAA_NAEBV?$basic_string@DU?$char_traits@D@std@@V?$allocator@D@2@@std@@@Z 
?isResourceGroupInitialised@ResourceGroupManager@Ogre@@QEAA_NAEBV?$basic_string@DU?$char_traits@D@std@@V?$allocator@D@2@@std@@@Z 
?isResourceGroupLoaded@ResourceGroupManager@Ogre@@QEAA_NAEBV?$basic_string@DU?$char_traits@D@std@@V?$allocator@D@2@@std@@@Z 
?isSampler@GpuConstantDefinition@Ogre@@QEBA_NXZ 
?isSampler@GpuConstantDefinition@Ogre@@SA_NW4GpuConstantType@2@@Z 
?isShaderProfileSupported@RenderSystemCapabilities@Ogre@@QEBA_NAEBV?$basic_string@DU?$char_traits@D@std@@V?$allocator@D@2@@std@@@Z 
?isShuttingDown@DefaultWorkQueueBase@Ogre@@UEBA_NXZ 
?isSkeletalAnimationIncluded@GpuProgram@Ogre@@UEBA_NXZ 
?isSkeletalAnimationIncluded@UnifiedHighLevelGpuProgram@Ogre@@UEBA_NXZ 
?isSkyBoxEnabled@SceneManager@Ogre@@UEBA_NXZ 
?isSkyDomeEnabled@SceneManager@Ogre@@UEBA_NXZ 
?isSkyPlaneEnabled@SceneManager@Ogre@@UEBA_NXZ 
?isSorted@LodStrategy@Ogre@@SA_NAEBV?$FastArray@M@2@@Z 
?isStatic@MovableObject@Ogre@@QEBA_NXZ 
?isStatic@Node@Ogre@@QEBA_NXZ 
?isStaticBufferLockable@RenderSystem@Ogre@@UEBA_NXZ 
?isStereoEnabled@RenderTarget@Ogre@@UEBA_NXZ 
?isSubroutine@GpuConstantDefinition@Ogre@@QEBA_NXZ 
?isSubroutine@GpuConstantDefinition@Ogre@@SA_NW4GpuConstantType@2@@Z 
?isSupported@GpuProgram@Ogre@@UEBA_NXZ 
?isSupported@Technique@Ogre@@QEBA_NXZ 
?isSupported@UnifiedHighLevelGpuProgram@Ogre@@UEBA_NXZ 
?isSyntaxSupported@GpuProgramManager@Ogre@@UEBA_NAEBV?$basic_string@DU?$char_traits@D@std@@V?$allocator@D@2@@std@@@Z 
?isSystemMemory@HardwareBuffer@Ogre@@QEBA_NXZ 
?isTextureLoadFailing@TextureUnitState@Ogre@@QEBA_NXZ 
?isTimeStampEnabled@Log@Ogre@@QEBA_NXZ 
?isTransparent@Material@Ogre@@QEBA_NXZ 
?isTransparent@Pass@Ogre@@QEBA_NXZ 
?isTransparent@Technique@Ogre@@QEBA_NXZ 
?isTransparentSortingEnabled@Technique@Ogre@@QEBA_NXZ 
?isTransparentSortingForced@Technique@Ogre@@QEBA_NXZ 
?isUnsignedInt@GpuConstantDefinition@Ogre@@QEBA_NXZ 
?isUnsignedInt@GpuConstantDefinition@Ogre@@SA_NW4GpuConstantType@2@@Z 
?isUseLocale@StringConverter@Ogre@@SA_NXZ 
?isUseTexcoordRect@Billboard@Ogre@@QEBA_NXZ 
?isUsingSharedParameters@GpuProgramParameters@Ogre@@QEBA_NAEBV?$basic_string@DU?$char_traits@D@std@@V?$allocator@D@2@@std@@@Z 
?isVSyncEnabled@RenderWindow@Ogre@@UEBA_NXZ 
?isValid@CompositorWorkspace@Ogre@@QEBA_NXZ 
?isValidExtent@PixelUtil@Ogre@@SA_N_K00W4PixelFormat@2@@Z 
?isVertexBufferShadowed@Mesh@Ogre@@QEBA_NXZ 
?isVertexProgramInUse@LODBucket@StaticGeometry@Ogre@@QEBA_NXZ 
?isVertexTextureFetchRequired@GpuProgram@Ogre@@UEBA_NXZ 
?isVertexTextureFetchRequired@UnifiedHighLevelGpuProgram@Ogre@@UEBA_NXZ 
?isViewOutOfDate@Camera@Ogre@@MEBA_NXZ 
?isViewOutOfDate@Frustum@Ogre@@MEBA_NXZ 
?isVisible@Camera@Ogre@@UEBA_NAEBVAxisAlignedBox@2@PEAW4FrustumPlane@2@@Z 
?isVisible@Camera@Ogre@@UEBA_NAEBVSphere@2@PEAW4FrustumPlane@2@@Z 
?isVisible@Camera@Ogre@@UEBA_NAEBVVector3@2@PEAW4FrustumPlane@2@@Z 
?isVisible@Frustum@Ogre@@UEBA_NAEBVAxisAlignedBox@2@PEAW4FrustumPlane@2@@Z 
?isVisible@Frustum@Ogre@@UEBA_NAEBVSphere@2@PEAW4FrustumPlane@2@@Z 
?isVisible@Frustum@Ogre@@UEBA_NAEBVVector3@2@PEAW4FrustumPlane@2@@Z 
?isVisible@MovableObject@Ogre@@QEBA_NXZ 
?isVisible@RenderWindow@Ogre@@UEBA_NXZ 
?isVisible@StaticGeometry@Ogre@@UEBA_NXZ 
?isWhitespace@ScriptLexer@Ogre@@AEBA_ND@Z 
?isWindowSet@Camera@Ogre@@UEBA_NXZ 
?isWriteable@DataStream@Ogre@@UEBA_NXZ 
?isYawFixed@SceneNode@Ogre@@QEBA_NXZ 
?isZeroLength@Vector2@Ogre@@QEBA_NXZ 
?isZeroLength@Vector3@Ogre@@QEBA_NXZ 
?iterator@RenderQueueInvocationSequence@Ogre@@QEAA?AV?$VectorIterator@V?$vector@PEAVRenderQueueInvocation@Ogre@@V?$STLAllocator@PEAVRenderQueueInvocation@Ogre@@V?$CategorisedAllocPolicy@$0A@@2@@2@@std@@@2@XZ 
?length@ArrayVector3@Ogre@@QEBA?AT__m128@@XZ 
?length@UTFString@Ogre@@QEBA_KXZ 
?length@Vector2@Ogre@@QEBAMXZ 
?length@Vector3@Ogre@@QEBAMXZ 
?length_Characters@UTFString@Ogre@@QEBA_KXZ 
?licenseExpired@TempBlendedBufferInfo@Ogre@@UEAAXPEAVHardwareBuffer@2@@Z 
?linkWorldGeometryToResourceGroup@ResourceGroupManager@Ogre@@QEAAXAEBV?$basic_string@DU?$char_traits@D@std@@V?$allocator@D@2@@std@@0PEAVSceneManager@2@@Z 
?list@FileSystemArchive@Ogre@@UEAA?AV?$SharedPtr@V?$vector@V?$basic_string@DU?$char_traits@D@std@@V?$allocator@D@2@@std@@V?$STLAllocator@V?$basic_string@DU?$char_traits@D@std@@V?$allocator@D@2@@std@@V?$CategorisedAllocPolicy@$0A@@Ogre@@@Ogre@@@std@@@2@_N0@Z 
?list@ZipArchive@Ogre@@UEAA?AV?$SharedPtr@V?$vector@V?$basic_string@DU?$char_traits@D@std@@V?$allocator@D@2@@std@@V?$STLAllocator@V?$basic_string@DU?$char_traits@D@std@@V?$allocator@D@2@@std@@V?$CategorisedAllocPolicy@$0A@@Ogre@@@Ogre@@@std@@@2@_N0@Z 
?listFileInfo@FileSystemArchive@Ogre@@UEAA?AV?$SharedPtr@V?$vector@UFileInfo@Ogre@@V?$STLAllocator@UFileInfo@Ogre@@V?$CategorisedAllocPolicy@$0A@@2@@2@@std@@@2@_N0@Z 
?listFileInfo@ZipArchive@Ogre@@UEAA?AV?$SharedPtr@V?$vector@UFileInfo@Ogre@@V?$STLAllocator@UFileInfo@Ogre@@V?$CategorisedAllocPolicy@$0A@@2@@2@@std@@@2@_N0@Z 
?listResourceFileInfo@ResourceGroupManager@Ogre@@QEAA?AV?$SharedPtr@V?$vector@UFileInfo@Ogre@@V?$STLAllocator@UFileInfo@Ogre@@V?$CategorisedAllocPolicy@$0A@@2@@2@@std@@@2@AEBV?$basic_string@DU?$char_traits@D@std@@V?$allocator@D@2@@std@@_N@Z 
?listResourceLocations@ResourceGroupManager@Ogre@@QEAA?AV?$SharedPtr@V?$vector@V?$basic_string@DU?$char_traits@D@std@@V?$allocator@D@2@@std@@V?$STLAllocator@V?$basic_string@DU?$char_traits@D@std@@V?$allocator@D@2@@std@@V?$CategorisedAllocPolicy@$0A@@Ogre@@@Ogre@@@std@@@2@AEBV?$basic_string@DU?$char_traits@D@std@@V?$allocator@D@2@@std@@@Z 
?listResourceNames@ResourceGroupManager@Ogre@@QEAA?AV?$SharedPtr@V?$vector@V?$basic_string@DU?$char_traits@D@std@@V?$allocator@D@2@@std@@V?$STLAllocator@V?$basic_string@DU?$char_traits@D@std@@V?$allocator@D@2@@std@@V?$CategorisedAllocPolicy@$0A@@Ogre@@@Ogre@@@std@@@2@AEBV?$basic_string@DU?$char_traits@D@std@@V?$allocator@D@2@@std@@_N@Z 
?load@ArchiveManager@Ogre@@QEAAPEAVArchive@2@AEBV?$basic_string@DU?$char_traits@D@std@@V?$allocator@D@2@@std@@0_N@Z 
?load@ConfigFile@Ogre@@QEAAXAEBV?$SharedPtr@VDataStream@Ogre@@@2@AEBV?$basic_string@DU?$char_traits@D@std@@V?$allocator@D@2@@std@@_N@Z 
?load@ConfigFile@Ogre@@QEAAXAEBV?$basic_string@DU?$char_traits@D@std@@V?$allocator@D@2@@std@@00_N@Z 
?load@ConfigFile@Ogre@@QEAAXAEBV?$basic_string@DU?$char_traits@D@std@@V?$allocator@D@2@@std@@0_N@Z 
?load@DynLib@Ogre@@QEAAXXZ 
?load@DynLibManager@Ogre@@QEAAPEAVDynLib@2@AEBV?$basic_string@DU?$char_traits@D@std@@V?$allocator@D@2@@std@@@Z 
?load@FileSystemArchive@Ogre@@UEAAXXZ 
?load@GpuNamedConstants@Ogre@@QEAAXAEAV?$SharedPtr@VDataStream@Ogre@@@2@@Z 
?load@GpuProgramManager@Ogre@@UEAA?AV?$SharedPtr@VGpuProgram@Ogre@@@2@AEBV?$basic_string@DU?$char_traits@D@std@@V?$allocator@D@2@@std@@00W4GpuProgramType@2@0@Z 
?load@Image@Ogre@@QEAAAEAV12@AEAV?$SharedPtr@VDataStream@Ogre@@@2@AEBV?$basic_string@DU?$char_traits@D@std@@V?$allocator@D@2@@std@@@Z 
?load@Image@Ogre@@QEAAAEAV12@AEBV?$basic_string@DU?$char_traits@D@std@@V?$allocator@D@2@@std@@0@Z 
?load@MeshManager@Ogre@@QEAA?AV?$SharedPtr@VMesh@Ogre@@@2@AEBV?$basic_string@DU?$char_traits@D@std@@V?$allocator@D@2@@std@@0W4Usage@HardwareBuffer@2@1_N2@Z 
?load@Resource@Ogre@@UEAAX_N@Z 
?load@ResourceBackgroundQueue@Ogre@@UEAA_KAEBV?$basic_string@DU?$char_traits@D@std@@V?$allocator@D@2@@std@@00_NPEAVManualResourceLoader@2@PEBV?$map@V?$basic_string@DU?$char_traits@D@std@@V?$allocator@D@2@@std@@V12@U?$less@V?$basic_string@DU?$char_traits@D@std@@V?$allocator@D@2@@std@@@2@V?$STLAllocator@U?$pair@$$CBV?$basic_string@DU?$char_traits@D@std@@V?$allocator@D@2@@std@@V12@@std@@V?$CategorisedAllocPolicy@$0A@@Ogre@@@Ogre@@@4@PEAVListener@12@@Z 
?load@ResourceManager@Ogre@@UEAA?AV?$SharedPtr@VResource@Ogre@@@2@AEBV?$basic_string@DU?$char_traits@D@std@@V?$allocator@D@2@@std@@0_NPEAVManualResourceLoader@2@PEBV?$map@V?$basic_string@DU?$char_traits@D@std@@V?$allocator@D@2@@std@@V12@U?$less@V?$basic_string@DU?$char_traits@D@std@@V?$allocator@D@2@@std@@@2@V?$STLAllocator@U?$pair@$$CBV?$basic_string@DU?$char_traits@D@std@@V?$allocator@D@2@@std@@V12@@std@@V?$CategorisedAllocPolicy@$0A@@Ogre@@@Ogre@@@5@1@Z 
?load@SimpleMatrix4@Ogre@@QEAAXAEBVMatrix4@2@@Z 
?load@SimpleMatrixAf4x3@Ogre@@QEAAXAEBVMatrix4@2@@Z 
?load@TextureManager@Ogre@@UEAA?AV?$SharedPtr@VTexture@Ogre@@@2@AEBV?$basic_string@DU?$char_traits@D@std@@V?$allocator@D@2@@std@@0W4TextureType@2@HM_NW4PixelFormat@2@2@Z 
?load@UnifiedHighLevelGpuProgram@Ogre@@UEAAX_N@Z 
?load@ZipArchive@Ogre@@UEAAXXZ 
?loadDirect@ConfigFile@Ogre@@QEAAXAEBV?$basic_string@DU?$char_traits@D@std@@V?$allocator@D@2@@std@@0_N@Z 
?loadDynamicImage@Image@Ogre@@QEAAAEAV12@PEAEIIIW4PixelFormat@2@_N_KE@Z 
?loadDynamicImage@Image@Ogre@@QEAAAEAV12@PEAEIIW4PixelFormat@2@@Z 
?loadFromAoS@ArrayMatrix4@Ogre@@QEAAXPEBVMatrix4@2@@Z 
?loadFromAoS@ArrayMatrix4@Ogre@@QEAAXPEBVSimpleMatrix4@2@@Z 
?loadFromAoS@ArrayMatrixAf4x3@Ogre@@QEAAXPEAPEBVSimpleMatrixAf4x3@2@@Z 
?loadFromAoS@ArrayMatrixAf4x3@Ogre@@QEAAXPEBVMatrix4@2@@Z 
?loadFromAoS@ArrayMatrixAf4x3@Ogre@@QEAAXPEBVSimpleMatrixAf4x3@2@@Z 
?loadFromAoS@ArrayVector3@Ogre@@QEAAXPEBM@Z 
?loadFromResourceSystem@ConfigFile@Ogre@@QEAAXAEBV?$basic_string@DU?$char_traits@D@std@@V?$allocator@D@2@@std@@00_N@Z 
?loadFromSource@UnifiedHighLevelGpuProgram@Ogre@@MEAAXXZ 
?loadFromString@GpuProgramManager@Ogre@@UEAA?AV?$SharedPtr@VGpuProgram@Ogre@@@2@AEBV?$basic_string@DU?$char_traits@D@std@@V?$allocator@D@2@@std@@00W4GpuProgramType@2@0@Z 
?loadHighLevel@HighLevelGpuProgram@Ogre@@MEAAXXZ 
?loadHighLevelImpl@HighLevelGpuProgram@Ogre@@MEAAXXZ 
?loadImage@Texture@Ogre@@UEAAXAEBVImage@2@@Z 
?loadImage@TextureManager@Ogre@@UEAA?AV?$SharedPtr@VTexture@Ogre@@@2@AEBV?$basic_string@DU?$char_traits@D@std@@V?$allocator@D@2@@std@@0AEBVImage@2@W4TextureType@2@HM_NW4PixelFormat@2@3@Z 
?loadImpl@GpuProgram@Ogre@@MEAAXXZ 
?loadImpl@HighLevelGpuProgram@Ogre@@MEAAXXZ 
?loadImpl@Material@Ogre@@MEAAXXZ 
?loadImpl@Mesh@Ogre@@MEAAXXZ 
?loadImpl@OldSkeletonInstance@Ogre@@MEAAXXZ 
?loadImpl@PatchMesh@Ogre@@MEAAXXZ 
?loadImpl@Skeleton@Ogre@@MEAAXXZ 
?loadImportPath@ScriptCompiler@Ogre@@AEAA?AV?$SharedPtr@V?$list@V?$SharedPtr@VAbstractNode@Ogre@@@Ogre@@V?$STLAllocator@V?$SharedPtr@VAbstractNode@Ogre@@@Ogre@@V?$CategorisedAllocPolicy@$0A@@2@@2@@std@@@2@AEBV?$basic_string@DU?$char_traits@D@std@@V?$allocator@D@2@@std@@@Z 
?loadManualCurvedIllusionPlane@MeshManager@Ogre@@IEAAXPEAVMesh@2@AEAUMeshBuildParams@12@@Z 
?loadManualCurvedPlane@MeshManager@Ogre@@IEAAXPEAVMesh@2@AEAUMeshBuildParams@12@@Z 
?loadManualPlane@MeshManager@Ogre@@IEAAXPEAVMesh@2@AEAUMeshBuildParams@12@@Z 
?loadMicrocodeCache@GpuProgramManager@Ogre@@UEAAXV?$SharedPtr@VDataStream@Ogre@@@2@@Z 
?loadParsedCapabilities@RenderSystemCapabilitiesManager@Ogre@@QEAAPEAVRenderSystemCapabilities@2@AEBV?$basic_string@DU?$char_traits@D@std@@V?$allocator@D@2@@std@@@Z 
?loadPlugin@Root@Ogre@@QEAAXAEBV?$basic_string@DU?$char_traits@D@std@@V?$allocator@D@2@@std@@@Z 
?loadPlugins@Root@Ogre@@IEAAXAEBV?$basic_string@DU?$char_traits@D@std@@V?$allocator@D@2@@std@@@Z 
?loadRawData@Image@Ogre@@QEAAAEAV12@AEAV?$SharedPtr@VDataStream@Ogre@@@2@IIIW4PixelFormat@2@_K2@Z 
?loadRawData@Image@Ogre@@QEAAAEAV12@AEAV?$SharedPtr@VDataStream@Ogre@@@2@IIW4PixelFormat@2@@Z 
?loadRawData@Texture@Ogre@@UEAAXAEAV?$SharedPtr@VDataStream@Ogre@@@2@GGW4PixelFormat@2@@Z 
?loadRawData@TextureManager@Ogre@@UEAA?AV?$SharedPtr@VTexture@Ogre@@@2@AEBV?$basic_string@DU?$char_traits@D@std@@V?$allocator@D@2@@std@@0AEAV?$SharedPtr@VDataStream@Ogre@@@2@GGW4PixelFormat@2@W4TextureType@2@HM_N@Z 
?loadResource@MeshManager@Ogre@@UEAAXPEAVResource@2@@Z 
?loadResourceGroup@ResourceBackgroundQueue@Ogre@@UEAA_KAEBV?$basic_string@DU?$char_traits@D@std@@V?$allocator@D@2@@std@@PEAVListener@12@@Z 
?loadResourceGroup@ResourceGroupManager@Ogre@@QEAAXAEBV?$basic_string@DU?$char_traits@D@std@@V?$allocator@D@2@@std@@_N1@Z 
?loadTwoImagesAsRGBA@Image@Ogre@@QEAAAEAV12@AEAV?$SharedPtr@VDataStream@Ogre@@@2@0W4PixelFormat@2@AEBV?$basic_string@DU?$char_traits@D@std@@V?$allocator@D@2@@std@@2@Z 
?loadTwoImagesAsRGBA@Image@Ogre@@QEAAAEAV12@AEBV?$basic_string@DU?$char_traits@D@std@@V?$allocator@D@2@@std@@00W4PixelFormat@2@@Z 
?loadingComplete@Entity@Ogre@@UEAAXPEAVResource@2@@Z 
?loadingComplete@GpuProgramUsage@Ogre@@UEAAXPEAVResource@2@@Z 
?locateTarget@ScriptCompiler@Ogre@@AEAA?AV?$SharedPtr@V?$list@V?$SharedPtr@VAbstractNode@Ogre@@@Ogre@@V?$STLAllocator@V?$SharedPtr@VAbstractNode@Ogre@@@Ogre@@V?$CategorisedAllocPolicy@$0A@@2@@2@@std@@@2@PEAV?$list@V?$SharedPtr@VAbstractNode@Ogre@@@Ogre@@V?$STLAllocator@V?$SharedPtr@VAbstractNode@Ogre@@@Ogre@@V?$CategorisedAllocPolicy@$0A@@2@@2@@std@@AEBV?$basic_string@DU?$char_traits@D@std@@V?$allocator@D@2@@5@@Z 
?lock@DefaultHardwareCounterBuffer@Ogre@@UEAAPEAX_K0W4LockOptions@HardwareBuffer@2@W4UploadOptions@42@@Z 
?lock@DefaultHardwareIndexBuffer@Ogre@@UEAAPEAX_K0W4LockOptions@HardwareBuffer@2@W4UploadOptions@42@@Z 
?lock@DefaultHardwareUniformBuffer@Ogre@@UEAAPEAX_K0W4LockOptions@HardwareBuffer@2@W4UploadOptions@42@@Z 
?lock@DefaultHardwareVertexBuffer@Ogre@@UEAAPEAX_K0W4LockOptions@HardwareBuffer@2@W4UploadOptions@42@@Z 
?lock@HardwareBuffer@Ogre@@QEAAPEAXW4LockOptions@12@W4UploadOptions@12@@Z 
?lock@HardwareBuffer@Ogre@@UEAAPEAX_K0W4LockOptions@12@W4UploadOptions@12@@Z 
?lock@HardwarePixelBuffer@Ogre@@UEAAAEBVPixelBox@2@AEBUBox@2@W4LockOptions@HardwareBuffer@2@@Z 
?lock@HardwarePixelBuffer@Ogre@@UEAAPEAX_K0W4LockOptions@HardwareBuffer@2@W4UploadOptions@42@@Z 
?lock@LightweightMutex@Ogre@@QEAAXXZ 
?lockImpl@DefaultHardwareCounterBuffer@Ogre@@MEAAPEAX_K0W4LockOptions@HardwareBuffer@2@@Z 
?lockImpl@DefaultHardwareIndexBuffer@Ogre@@MEAAPEAX_K0W4LockOptions@HardwareBuffer@2@@Z 
?lockImpl@DefaultHardwareUniformBuffer@Ogre@@MEAAPEAX_K0W4LockOptions@HardwareBuffer@2@@Z 
