LIBRARY MyGUIEngine_x64
EXPORTS
??0?$Singleton@VClipboardManager@MyGUI@@@MyGUI@@QEAA@AEBV01@@Z 
??0?$Singleton@VClipboardManager@MyGUI@@@MyGUI@@QEAA@XZ 
??0?$Singleton@VColourManager@MyGUI@@@MyGUI@@QEAA@AEBV01@@Z 
??0?$Singleton@VColourManager@MyGUI@@@MyGUI@@QEAA@XZ 
??0?$Singleton@VControllerManager@MyGUI@@@MyGUI@@QEAA@AEBV01@@Z 
??0?$Singleton@VControllerManager@MyGUI@@@MyGUI@@QEAA@XZ 
??0?$Singleton@VDataManager@MyGUI@@@MyGUI@@QEAA@AEBV01@@Z 
??0?$Singleton@VDataManager@MyGUI@@@MyGUI@@QEAA@XZ 
??0?$Singleton@VDynLibManager@MyGUI@@@MyGUI@@QEAA@AEBV01@@Z 
??0?$Singleton@VDynLibManager@MyGUI@@@MyGUI@@QEAA@XZ 
??0?$Singleton@VFactoryManager@MyGUI@@@MyGUI@@QEAA@AEBV01@@Z 
??0?$Singleton@VFactoryManager@MyGUI@@@MyGUI@@QEAA@XZ 
??0?$Singleton@VFontManager@MyGUI@@@MyGUI@@QEAA@AEBV01@@Z 
??0?$Singleton@VFontManager@MyGUI@@@MyGUI@@QEAA@XZ 
??0?$Singleton@VGui@MyGUI@@@MyGUI@@QEAA@AEBV01@@Z 
??0?$Singleton@VGui@MyGUI@@@MyGUI@@QEAA@XZ 
??0?$Singleton@VInputManager@MyGUI@@@MyGUI@@QEAA@AEBV01@@Z 
??0?$Singleton@VInputManager@MyGUI@@@MyGUI@@QEAA@XZ 
??0?$Singleton@VLanguageManager@MyGUI@@@MyGUI@@QEAA@AEBV01@@Z 
??0?$Singleton@VLanguageManager@MyGUI@@@MyGUI@@QEAA@XZ 
??0?$Singleton@VLayerManager@MyGUI@@@MyGUI@@QEAA@AEBV01@@Z 
??0?$Singleton@VLayerManager@MyGUI@@@MyGUI@@QEAA@XZ 
??0?$Singleton@VLayoutManager@MyGUI@@@MyGUI@@QEAA@AEBV01@@Z 
??0?$Singleton@VLayoutManager@MyGUI@@@MyGUI@@QEAA@XZ 
??0?$Singleton@VPluginManager@MyGUI@@@MyGUI@@QEAA@AEBV01@@Z 
??0?$Singleton@VPluginManager@MyGUI@@@MyGUI@@QEAA@XZ 
??0?$Singleton@VPointerManager@MyGUI@@@MyGUI@@QEAA@AEBV01@@Z 
??0?$Singleton@VPointerManager@MyGUI@@@MyGUI@@QEAA@XZ 
??0?$Singleton@VRenderManager@MyGUI@@@MyGUI@@QEAA@AEBV01@@Z 
??0?$Singleton@VRenderManager@MyGUI@@@MyGUI@@QEAA@XZ 
??0?$Singleton@VResourceManager@MyGUI@@@MyGUI@@QEAA@AEBV01@@Z 
??0?$Singleton@VResourceManager@MyGUI@@@MyGUI@@QEAA@XZ 
??0?$Singleton@VScaleManager@MyGUI@@@MyGUI@@QEAA@AEBV01@@Z 
??0?$Singleton@VScaleManager@MyGUI@@@MyGUI@@QEAA@XZ 
??0?$Singleton@VSkinManager@MyGUI@@@MyGUI@@QEAA@AEBV01@@Z 
??0?$Singleton@VSkinManager@MyGUI@@@MyGUI@@QEAA@XZ 
??0?$Singleton@VSubWidgetManager@MyGUI@@@MyGUI@@QEAA@AEBV01@@Z 
??0?$Singleton@VSubWidgetManager@MyGUI@@@MyGUI@@QEAA@XZ 
??0?$Singleton@VToolTipManager@MyGUI@@@MyGUI@@QEAA@AEBV01@@Z 
??0?$Singleton@VToolTipManager@MyGUI@@@MyGUI@@QEAA@XZ 
??0?$Singleton@VWidgetManager@MyGUI@@@MyGUI@@QEAA@AEBV01@@Z 
??0?$Singleton@VWidgetManager@MyGUI@@@MyGUI@@QEAA@XZ 
??0Align@MyGUI@@QEAA@W4Enum@01@@Z 
??0Any@MyGUI@@QEAA@AEBUAnyEmpty@01@@Z 
??0Any@MyGUI@@QEAA@AEBV01@@Z 
??0Any@MyGUI@@QEAA@XZ 
??0BiIndexBase@MyGUI@@QEAA@AEBV01@@Z 
??0BiIndexBase@MyGUI@@QEAA@XZ 
??0Button@MyGUI@@QEAA@AEBV01@@Z 
??0Button@MyGUI@@QEAA@XZ 
??0Canvas@MyGUI@@QEAA@AEBV01@@Z 
??0Canvas@MyGUI@@QEAA@XZ 
??0ChildSkinInfo@MyGUI@@QEAA@AEBU01@@Z 
??0ChildSkinInfo@MyGUI@@QEAA@AEBV?$basic_string@DU?$char_traits@D@std@@V?$allocator@D@2@@std@@AEBUWidgetStyle@1@0AEBU?$TCoord@H@types@1@AEBUAlign@1@00@Z 
??0ChildSkinInfo@MyGUI@@QEAA@XZ 
??0ClipboardManager@MyGUI@@QEAA@AEBV01@@Z 
??0ClipboardManager@MyGUI@@QEAA@XZ 
??0Colour@MyGUI@@QEAA@AEBV?$basic_string@DU?$char_traits@D@std@@V?$allocator@D@2@@std@@@Z 
??0Colour@MyGUI@@QEAA@MMMM@Z 
??0Colour@MyGUI@@QEAA@XZ 
??0ColourManager@MyGUI@@QEAA@AEBV01@@Z 
??0ColourManager@MyGUI@@QEAA@XZ 
??0ComboBox@MyGUI@@QEAA@AEBV01@@Z 
??0ComboBox@MyGUI@@QEAA@XZ 
??0ConsoleLogListener@MyGUI@@QEAA@AEBV01@@Z 
??0ConsoleLogListener@MyGUI@@QEAA@XZ 
??0ControllerEdgeHide@MyGUI@@QEAA@AEBV01@@Z 
??0ControllerEdgeHide@MyGUI@@QEAA@XZ 
??0ControllerFadeAlpha@MyGUI@@QEAA@AEBV01@@Z 
??0ControllerFadeAlpha@MyGUI@@QEAA@XZ 
??0ControllerInfo@MyGUI@@QEAA@AEBU01@@Z 
??0ControllerInfo@MyGUI@@QEAA@XZ 
??0ControllerItem@MyGUI@@QEAA@AEBV01@@Z 
??0ControllerItem@MyGUI@@QEAA@XZ 
??0ControllerManager@MyGUI@@QEAA@AEBV01@@Z 
??0ControllerManager@MyGUI@@QEAA@XZ 
??0ControllerPosition@MyGUI@@QEAA@AEBV01@@Z 
??0ControllerPosition@MyGUI@@QEAA@XZ 
??0DDContainer@MyGUI@@QEAA@AEBV01@@Z 
??0DDContainer@MyGUI@@QEAA@XZ 
??0DDItemInfo@MyGUI@@QEAA@PEAVDDContainer@1@_K01@Z 
??0DDItemInfo@MyGUI@@QEAA@XZ 
??0DDItemState@MyGUI@@QEAA@W4Enum@01@@Z 
??0DDWidgetState@MyGUI@@QEAA@_K@Z 
??0DataFileStream@MyGUI@@QEAA@AEBV01@@Z 
??0DataFileStream@MyGUI@@QEAA@PEAV?$basic_ifstream@DU?$char_traits@D@std@@@std@@@Z 
??0DataFileStream@MyGUI@@QEAA@XZ 
??0DataManager@MyGUI@@QEAA@AEBV01@@Z 
??0DataManager@MyGUI@@QEAA@XZ 
??0DataMemoryStream@MyGUI@@QEAA@AEBV01@@Z 
??0DataMemoryStream@MyGUI@@QEAA@PEAE_K@Z 
??0DataMemoryStream@MyGUI@@QEAA@XZ 
??0DataStream@MyGUI@@QEAA@AEBV01@@Z 
??0DataStream@MyGUI@@QEAA@PEAV?$basic_istream@DU?$char_traits@D@std@@@std@@@Z 
??0DataStream@MyGUI@@QEAA@XZ 
??0Document@xml@MyGUI@@QEAA@AEBV012@@Z 
??0Document@xml@MyGUI@@QEAA@XZ 
??0DynLib@MyGUI@@IEAA@AEBV?$basic_string@DU?$char_traits@D@std@@V?$allocator@D@2@@std@@@Z 
??0DynLib@MyGUI@@QEAA@AEBV01@@Z 
??0DynLibManager@MyGUI@@QEAA@AEBV01@@Z 
??0DynLibManager@MyGUI@@QEAA@XZ 
??0EditBox@MyGUI@@QEAA@AEBV01@@Z 
??0EditBox@MyGUI@@QEAA@XZ 
??0EditText@MyGUI@@QEAA@AEBV01@@Z 
??0EditText@MyGUI@@QEAA@XZ 
??0EditTextStateInfo@MyGUI@@QEAA@AEBV01@@Z 
??0EditTextStateInfo@MyGUI@@QEAA@XZ 
??0Element@xml@MyGUI@@AEAA@AEBV?$basic_string@DU?$char_traits@D@std@@V?$allocator@D@2@@std@@PEAV012@UElementType@12@0@Z 
??0Element@xml@MyGUI@@QEAA@AEBV012@@Z 
??0ElementEnumerator@xml@MyGUI@@AEAA@V?$_Vector_iterator@V?$_Vector_val@PEAVElement@xml@MyGUI@@V?$allocator@PEAVElement@xml@MyGUI@@@std@@@std@@@std@@0@Z 
??0Exception@MyGUI@@QEAA@AEBV01@@Z 
??0Exception@MyGUI@@QEAA@AEBV?$basic_string@DU?$char_traits@D@std@@V?$allocator@D@2@@std@@0PEBDJ@Z 
??0FactoryManager@MyGUI@@QEAA@AEBV01@@Z 
??0FactoryManager@MyGUI@@QEAA@XZ 
??0FileLogListener@MyGUI@@QEAA@XZ 
??0FlowDirection@MyGUI@@QEAA@W4Enum@01@@Z 
??0FontManager@MyGUI@@QEAA@AEBV01@@Z 
??0FontManager@MyGUI@@QEAA@XZ 
??0Gui@MyGUI@@QEAA@AEBV01@@Z 
??0Gui@MyGUI@@QEAA@XZ 
??0IBDrawItemInfo@MyGUI@@QEAA@XZ 
??0IBDrawItemInfo@MyGUI@@QEAA@_K0000_N1@Z 
??0IBNotifyItemData@MyGUI@@QEAA@_KW4NotifyItem@01@HHUMouseButton@1@@Z 
??0IBNotifyItemData@MyGUI@@QEAA@_KW4NotifyItem@01@UKeyCode@1@@Z 
??0IBNotifyItemData@MyGUI@@QEAA@_KW4NotifyItem@01@UKeyCode@1@I@Z 
??0ICroppedRectangle@MyGUI@@QEAA@AEBV01@@Z 
??0ICroppedRectangle@MyGUI@@QEAA@XZ 
??0IDataStream@MyGUI@@QEAA@AEBV01@@Z 
??0IDataStream@MyGUI@@QEAA@XZ 
??0IDelegateUnlink@delegates@MyGUI@@QEAA@AEBV012@@Z 
??0IDelegateUnlink@delegates@MyGUI@@QEAA@XZ 
??0IFont@MyGUI@@QEAA@XZ 
??0IItem@MyGUI@@QEAA@AEBV01@@Z 
??0IItem@MyGUI@@QEAA@XZ 
??0IItemContainer@MyGUI@@QEAA@AEBV01@@Z 
??0IItemContainer@MyGUI@@QEAA@XZ 
??0ILayer@MyGUI@@QEAA@AEBV01@@Z 
??0ILayer@MyGUI@@QEAA@XZ 
??0ILayerItem@MyGUI@@QEAA@AEBV01@@Z 
??0ILayerItem@MyGUI@@QEAA@XZ 
??0ILayerNode@MyGUI@@QEAA@AEBV01@@Z 
??0ILayerNode@MyGUI@@QEAA@XZ 
??0ILogFilter@MyGUI@@QEAA@AEBV01@@Z 
??0ILogFilter@MyGUI@@QEAA@XZ 
??0ILogListener@MyGUI@@QEAA@AEBV01@@Z 
??0ILogListener@MyGUI@@QEAA@XZ 
??0IObject@MyGUI@@QEAA@AEBV01@@Z 
??0IObject@MyGUI@@QEAA@XZ 
??0IPlugin@MyGUI@@QEAA@AEBV01@@Z 
??0IPlugin@MyGUI@@QEAA@XZ 
??0IPointer@MyGUI@@QEAA@XZ 
??0IRenderTarget@MyGUI@@QEAA@AEBV01@@Z 
??0IRenderTarget@MyGUI@@QEAA@XZ 
??0IResource@MyGUI@@IEAA@XZ 
??0ISerializable@MyGUI@@QEAA@AEBV01@@Z 
??0ISerializable@MyGUI@@QEAA@XZ 
??0IStateInfo@MyGUI@@QEAA@AEBV01@@Z 
??0IStateInfo@MyGUI@@QEAA@XZ 
??0ISubWidget@MyGUI@@QEAA@AEBV01@@Z 
??0ISubWidget@MyGUI@@QEAA@XZ 
??0ISubWidgetRect@MyGUI@@QEAA@AEBV01@@Z 
??0ISubWidgetRect@MyGUI@@QEAA@XZ 
??0ISubWidgetText@MyGUI@@QEAA@AEBV01@@Z 
??0ISubWidgetText@MyGUI@@QEAA@XZ 
??0ITexture@MyGUI@@QEAA@AEBV01@@Z 
??0ITexture@MyGUI@@QEAA@XZ 
??0ITextureInvalidateListener@MyGUI@@QEAA@AEBV01@@Z 
??0ITextureInvalidateListener@MyGUI@@QEAA@XZ 
??0IUnlinkWidget@MyGUI@@QEAA@AEBV01@@Z 
??0IUnlinkWidget@MyGUI@@QEAA@XZ 
??0IVertexBuffer@MyGUI@@QEAA@AEBV01@@Z 
??0IVertexBuffer@MyGUI@@QEAA@XZ 
??0ImageBox@MyGUI@@QEAA@AEBV01@@Z 
??0ImageBox@MyGUI@@QEAA@XZ 
??0ImageIndexInfo@MyGUI@@QEAA@AEBV?$basic_string@DU?$char_traits@D@std@@V?$allocator@D@2@@std@@AEBU?$TSize@H@types@1@MAEBV?$vector@U?$TPoint@H@types@MyGUI@@V?$allocator@U?$TPoint@H@types@MyGUI@@@std@@@3@@Z 
??0InputManager@MyGUI@@QEAA@AEBV01@@Z 
??0InputManager@MyGUI@@QEAA@XZ 
??0ItemBox@MyGUI@@QEAA@AEBV01@@Z 
??0ItemBox@MyGUI@@QEAA@XZ 
??0KeyCode@MyGUI@@QEAA@W4Enum@01@@Z 
??0LanguageManager@MyGUI@@QEAA@AEBV01@@Z 
??0LanguageManager@MyGUI@@QEAA@XZ 
??0LayerItem@MyGUI@@QEAA@AEBV01@@Z 
??0LayerItem@MyGUI@@QEAA@XZ 
??0LayerManager@MyGUI@@QEAA@AEBV01@@Z 
??0LayerManager@MyGUI@@QEAA@XZ 
??0LayerNode@MyGUI@@QEAA@AEBV01@@Z 
??0LayerNode@MyGUI@@QEAA@PEAVILayer@1@PEAVILayerNode@1@@Z 
??0LayoutManager@MyGUI@@QEAA@AEBV01@@Z 
??0LayoutManager@MyGUI@@QEAA@XZ 
??0LevelLogFilter@MyGUI@@QEAA@AEBV01@@Z 
??0LevelLogFilter@MyGUI@@QEAA@XZ 
??0ListBox@MyGUI@@QEAA@AEBV01@@Z 
??0ListBox@MyGUI@@QEAA@XZ 
??0ListScrollBar@MyGUI@@QEAA@AEBV01@@Z 
??0ListScrollBar@MyGUI@@QEAA@XZ 
??0LogLevel@MyGUI@@QEAA@W4Enum@01@@Z 
??0LogLevel@MyGUI@@QEAA@XZ 
??0LogManager@MyGUI@@QEAA@AEBV01@@Z 
??0LogManager@MyGUI@@QEAA@XZ 
??0LogSource@MyGUI@@QEAA@AEBV01@@Z 
??0LogSource@MyGUI@@QEAA@XZ 
??0LogStream@MyGUI@@QEAA@XZ 
??0MainSkin@MyGUI@@QEAA@AEBV01@@Z 
??0MainSkin@MyGUI@@QEAA@XZ 
??0MaskPickInfo@MyGUI@@QEAA@AEBV01@@Z 
??0MaskPickInfo@MyGUI@@QEAA@XZ 
??0MenuBar@MyGUI@@QEAA@AEBV01@@Z 
??0MenuBar@MyGUI@@QEAA@XZ 
??0MenuControl@MyGUI@@QEAA@AEBV01@@Z 
??0MenuControl@MyGUI@@QEAA@XZ 
??0MenuItem@MyGUI@@QEAA@AEBV01@@Z 
??0MenuItem@MyGUI@@QEAA@XZ 
??0MenuItemType@MyGUI@@QEAA@W4Enum@01@@Z 
??0MouseButton@MyGUI@@QEAA@W4Enum@01@@Z 
??0MultiListBox@MyGUI@@QEAA@AEBV01@@Z 
??0MultiListBox@MyGUI@@QEAA@XZ 
??0MultiListItem@MyGUI@@QEAA@AEBV01@@Z 
??0MultiListItem@MyGUI@@QEAA@XZ 
??0MultiSlider@MyGUI@@QEAA@AEBV01@@Z 
??0MultiSlider@MyGUI@@QEAA@XZ 
??0OverlappedLayer@MyGUI@@QEAA@AEBV01@@Z 
??0OverlappedLayer@MyGUI@@QEAA@XZ 
??0PixelFormat@MyGUI@@QEAA@W4Enum@01@@Z 
??0PluginManager@MyGUI@@QEAA@AEBV01@@Z 
??0PluginManager@MyGUI@@QEAA@XZ 
??0PointerManager@MyGUI@@QEAA@AEBV01@@Z 
??0PointerManager@MyGUI@@QEAA@XZ 
??0PolygonalSkin@MyGUI@@QEAA@AEBV01@@Z 
??0PolygonalSkin@MyGUI@@QEAA@XZ 
??0PopupMenu@MyGUI@@QEAA@AEBV01@@Z 
??0PopupMenu@MyGUI@@QEAA@XZ 
??0ProgressBar@MyGUI@@QEAA@AEBV01@@Z 
??0ProgressBar@MyGUI@@QEAA@XZ 
??0RenderItem@MyGUI@@QEAA@AEBV01@@Z 
??0RenderItem@MyGUI@@QEAA@XZ 
??0RenderManager@MyGUI@@QEAA@AEBV01@@Z 
??0RenderManager@MyGUI@@QEAA@XZ 
??0RenderTargetInfo@MyGUI@@QEAA@XZ 
??0ResizingPolicy@MyGUI@@QEAA@W4Enum@01@@Z 
??0ResourceImageSet@MyGUI@@AEAA@XZ 
??0ResourceImageSetPointer@MyGUI@@QEAA@XZ 
??0ResourceLayout@MyGUI@@QEAA@PEAVElement@xml@1@AEBV?$basic_string@DU?$char_traits@D@std@@V?$allocator@D@2@@std@@@Z 
??0ResourceLayout@MyGUI@@QEAA@XZ 
??0ResourceManager@MyGUI@@QEAA@AEBV01@@Z 
??0ResourceManager@MyGUI@@QEAA@XZ 
??0ResourceManualFont@MyGUI@@QEAA@XZ 
??0ResourceManualPointer@MyGUI@@QEAA@XZ 
??0ResourceSkin@MyGUI@@QEAA@XZ 
??0ResourceTrueTypeFont@MyGUI@@QEAA@XZ 
??0RotatingSkin@MyGUI@@QEAA@AEBV01@@Z 
??0RotatingSkin@MyGUI@@QEAA@XZ 
??0RotatingSkinStateInfo@MyGUI@@QEAA@AEBV01@@Z 
??0RotatingSkinStateInfo@MyGUI@@QEAA@XZ 
??0ScaleManager@MyGUI@@QEAA@AEBV01@@Z 
??0ScaleManager@MyGUI@@QEAA@XZ 
??0ScrollBar@MyGUI@@QEAA@AEBV01@@Z 
??0ScrollBar@MyGUI@@QEAA@XZ 
??0ScrollView@MyGUI@@QEAA@AEBV01@@Z 
??0ScrollView@MyGUI@@QEAA@XZ 
??0ScrollViewBase@MyGUI@@IEAA@XZ 
??0ScrollViewBase@MyGUI@@QEAA@AEBV01@@Z 
??0SharedLayer@MyGUI@@QEAA@AEBV01@@Z 
??0SharedLayer@MyGUI@@QEAA@XZ 
??0SharedLayerNode@MyGUI@@QEAA@AEBV01@@Z 
??0SharedLayerNode@MyGUI@@QEAA@PEAVILayer@1@PEAVILayerNode@1@@Z 
??0SimpleText@MyGUI@@QEAA@AEBV01@@Z 
??0SimpleText@MyGUI@@QEAA@XZ 
??0SkinItem@MyGUI@@QEAA@AEBV01@@Z 
??0SkinItem@MyGUI@@QEAA@XZ 
??0SkinManager@MyGUI@@QEAA@AEBV01@@Z 
??0SkinManager@MyGUI@@QEAA@XZ 
??0Slider@MyGUI@@QEAA@AEBV01@@Z 
??0Slider@MyGUI@@QEAA@XZ 
??0SubSkin@MyGUI@@QEAA@AEBV01@@Z 
??0SubSkin@MyGUI@@QEAA@XZ 
??0SubSkinStateInfo@MyGUI@@QEAA@AEBV01@@Z 
??0SubSkinStateInfo@MyGUI@@QEAA@XZ 
??0SubWidgetBinding@MyGUI@@QEAA@AEBU?$TCoord@H@types@1@UAlign@1@AEBV?$basic_string@DU?$char_traits@D@std@@V?$allocator@D@2@@std@@@Z 
??0SubWidgetBinding@MyGUI@@QEAA@AEBV01@@Z 
??0SubWidgetBinding@MyGUI@@QEAA@XZ 
??0SubWidgetManager@MyGUI@@QEAA@AEBV01@@Z 
??0SubWidgetManager@MyGUI@@QEAA@XZ 
??0TabControl@MyGUI@@QEAA@AEBV01@@Z 
??0TabControl@MyGUI@@QEAA@XZ 
??0TabItem@MyGUI@@QEAA@AEBV01@@Z 
??0TabItem@MyGUI@@QEAA@XZ 
??0TextBox@MyGUI@@QEAA@AEBV01@@Z 
??0TextBox@MyGUI@@QEAA@XZ 
??0TextIterator@MyGUI@@AEAA@XZ 
??0TextIterator@MyGUI@@QEAA@AEBV01@@Z 
??0TextIterator@MyGUI@@QEAA@AEBVUString@1@PEAV?$vector@UTextCommandInfo@MyGUI@@V?$allocator@UTextCommandInfo@MyGUI@@@std@@@std@@@Z 
??0TextureUsage@MyGUI@@QEAA@W4Enum@01@@Z 
??0TileRect@MyGUI@@QEAA@AEBV01@@Z 
??0TileRect@MyGUI@@QEAA@XZ 
??0TileRectStateInfo@MyGUI@@QEAA@AEBV01@@Z 
??0TileRectStateInfo@MyGUI@@QEAA@XZ 
??0Timer@MyGUI@@QEAA@XZ 
??0ToolTipManager@MyGUI@@QEAA@AEBV01@@Z 
??0ToolTipManager@MyGUI@@QEAA@XZ 
??0UString@MyGUI@@QEAA@AEBV01@@Z 
??0UString@MyGUI@@QEAA@AEBV01@_K1@Z 
??0UString@MyGUI@@QEAA@AEBV?$basic_string@DU?$char_traits@D@std@@V?$allocator@D@2@@std@@@Z 
??0UString@MyGUI@@QEAA@AEBV?$basic_string@_WU?$char_traits@_W@std@@V?$allocator@_W@2@@std@@@Z 
??0UString@MyGUI@@QEAA@PEBD@Z 
??0UString@MyGUI@@QEAA@PEBD_K@Z 
??0UString@MyGUI@@QEAA@PEBG@Z 
??0UString@MyGUI@@QEAA@PEBG_K@Z 
??0UString@MyGUI@@QEAA@PEB_W@Z 
??0UString@MyGUI@@QEAA@PEB_W_K@Z 
??0UString@MyGUI@@QEAA@XZ 
??0UString@MyGUI@@QEAA@_KAEBG@Z 
??0UserData@MyGUI@@QEAA@AEBV01@@Z 
??0UserData@MyGUI@@QEAA@XZ 
??0Version@MyGUI@@QEAA@III@Z 
??0VertexColourType@MyGUI@@QEAA@W4Enum@01@@Z 
??0Widget@MyGUI@@QEAA@AEBV01@@Z 
??0Widget@MyGUI@@QEAA@XZ 
??0WidgetInfo@MyGUI@@QEAA@AEBU01@@Z 
??0WidgetInfo@MyGUI@@QEAA@XZ 
??0WidgetInput@MyGUI@@QEAA@AEBV01@@Z 
??0WidgetInput@MyGUI@@QEAA@XZ 
??0WidgetManager@MyGUI@@QEAA@AEBV01@@Z 
??0WidgetManager@MyGUI@@QEAA@XZ 
??0WidgetStyle@MyGUI@@QEAA@W4Enum@01@@Z 
??0WidgetStyle@MyGUI@@QEAA@XZ 
??0Window@MyGUI@@QEAA@AEBV01@@Z 
??0Window@MyGUI@@QEAA@XZ 
??0WindowsClipboardHandler@MyGUI@@QEAA@AEBV01@@Z 
??0WindowsClipboardHandler@MyGUI@@QEAA@XZ 
??0_base_iterator@UString@MyGUI@@IEAA@XZ 
??0_const_fwd_iterator@UString@MyGUI@@QEAA@AEBV012@@Z 
??0_const_fwd_iterator@UString@MyGUI@@QEAA@AEBV_fwd_iterator@12@@Z 
??0_const_fwd_iterator@UString@MyGUI@@QEAA@XZ 
??0_const_rev_iterator@UString@MyGUI@@QEAA@AEBV012@@Z 
??0_const_rev_iterator@UString@MyGUI@@QEAA@AEBV_rev_iterator@12@@Z 
??0_const_rev_iterator@UString@MyGUI@@QEAA@XZ 
??0_fwd_iterator@UString@MyGUI@@QEAA@AEBV012@@Z 
??0_fwd_iterator@UString@MyGUI@@QEAA@XZ 
??0_rev_iterator@UString@MyGUI@@QEAA@AEBV012@@Z 
??0_rev_iterator@UString@MyGUI@@QEAA@XZ 
??0invalid_data@UString@MyGUI@@QEAA@AEBV012@@Z 
??0invalid_data@UString@MyGUI@@QEAA@AEBV?$basic_string@DU?$char_traits@D@std@@V?$allocator@D@2@@std@@@Z 
??1?$Singleton@VClipboardManager@MyGUI@@@MyGUI@@UEAA@XZ 
??1?$Singleton@VColourManager@MyGUI@@@MyGUI@@UEAA@XZ 
??1?$Singleton@VControllerManager@MyGUI@@@MyGUI@@UEAA@XZ 
??1?$Singleton@VDataManager@MyGUI@@@MyGUI@@UEAA@XZ 
??1?$Singleton@VDynLibManager@MyGUI@@@MyGUI@@UEAA@XZ 
??1?$Singleton@VFactoryManager@MyGUI@@@MyGUI@@UEAA@XZ 
??1?$Singleton@VFontManager@MyGUI@@@MyGUI@@UEAA@XZ 
??1?$Singleton@VGui@MyGUI@@@MyGUI@@UEAA@XZ 
??1?$Singleton@VInputManager@MyGUI@@@MyGUI@@UEAA@XZ 
??1?$Singleton@VLanguageManager@MyGUI@@@MyGUI@@UEAA@XZ 
??1?$Singleton@VLayerManager@MyGUI@@@MyGUI@@UEAA@XZ 
??1?$Singleton@VLayoutManager@MyGUI@@@MyGUI@@UEAA@XZ 
??1?$Singleton@VPluginManager@MyGUI@@@MyGUI@@UEAA@XZ 
??1?$Singleton@VPointerManager@MyGUI@@@MyGUI@@UEAA@XZ 
??1?$Singleton@VRenderManager@MyGUI@@@MyGUI@@UEAA@XZ 
??1?$Singleton@VResourceManager@MyGUI@@@MyGUI@@UEAA@XZ 
??1?$Singleton@VScaleManager@MyGUI@@@MyGUI@@UEAA@XZ 
??1?$Singleton@VSkinManager@MyGUI@@@MyGUI@@UEAA@XZ 
??1?$Singleton@VSubWidgetManager@MyGUI@@@MyGUI@@UEAA@XZ 
??1?$Singleton@VToolTipManager@MyGUI@@@MyGUI@@UEAA@XZ 
??1?$Singleton@VWidgetManager@MyGUI@@@MyGUI@@UEAA@XZ 
??1Any@MyGUI@@QEAA@XZ 
??1BiIndexBase@MyGUI@@UEAA@XZ 
??1Button@MyGUI@@UEAA@XZ 
??1Canvas@MyGUI@@UEAA@XZ 
??1ChildSkinInfo@MyGUI@@QEAA@XZ 
??1ClipboardManager@MyGUI@@UEAA@XZ 
??1ColourManager@MyGUI@@UEAA@XZ 
??1ComboBox@MyGUI@@UEAA@XZ 
??1ConsoleLogListener@MyGUI@@UEAA@XZ 
??1ControllerEdgeHide@MyGUI@@UEAA@XZ 
??1ControllerFadeAlpha@MyGUI@@UEAA@XZ 
??1ControllerInfo@MyGUI@@QEAA@XZ 
??1ControllerItem@MyGUI@@UEAA@XZ 
??1ControllerManager@MyGUI@@UEAA@XZ 
??1ControllerPosition@MyGUI@@UEAA@XZ 
??1DDContainer@MyGUI@@UEAA@XZ 
??1DataFileStream@MyGUI@@UEAA@XZ 
??1DataManager@MyGUI@@UEAA@XZ 
??1DataMemoryStream@MyGUI@@UEAA@XZ 
??1DataStream@MyGUI@@UEAA@XZ 
??1Document@xml@MyGUI@@QEAA@XZ 
??1DynLib@MyGUI@@IEAA@XZ 
??1DynLibManager@MyGUI@@UEAA@XZ 
??1EditBox@MyGUI@@UEAA@XZ 
??1EditText@MyGUI@@UEAA@XZ 
??1EditTextStateInfo@MyGUI@@UEAA@XZ 
??1Element@xml@MyGUI@@QEAA@XZ 
??1Exception@MyGUI@@UEAA@XZ 
??1FactoryManager@MyGUI@@UEAA@XZ 
??1FileLogListener@MyGUI@@UEAA@XZ 
??1FontManager@MyGUI@@UEAA@XZ 
??1Gui@MyGUI@@UEAA@XZ 
??1ICroppedRectangle@MyGUI@@UEAA@XZ 
??1IDataStream@MyGUI@@UEAA@XZ 
??1IDelegateUnlink@delegates@MyGUI@@UEAA@XZ 
??1IFont@MyGUI@@UEAA@XZ 
??1IItem@MyGUI@@UEAA@XZ 
??1IItemContainer@MyGUI@@UEAA@XZ 
??1ILayer@MyGUI@@UEAA@XZ 
??1ILayerItem@MyGUI@@UEAA@XZ 
??1ILayerNode@MyGUI@@UEAA@XZ 
??1ILogFilter@MyGUI@@UEAA@XZ 
??1ILogListener@MyGUI@@UEAA@XZ 
??1IObject@MyGUI@@UEAA@XZ 
??1IPlugin@MyGUI@@UEAA@XZ 
??1IPointer@MyGUI@@UEAA@XZ 
??1IRenderTarget@MyGUI@@UEAA@XZ 
??1IResource@MyGUI@@MEAA@XZ 
??1ISerializable@MyGUI@@UEAA@XZ 
??1IStateInfo@MyGUI@@UEAA@XZ 
??1ISubWidget@MyGUI@@UEAA@XZ 
??1ISubWidgetRect@MyGUI@@UEAA@XZ 
??1ISubWidgetText@MyGUI@@UEAA@XZ 
??1ITexture@MyGUI@@UEAA@XZ 
??1ITextureInvalidateListener@MyGUI@@UEAA@XZ 
??1IUnlinkWidget@MyGUI@@UEAA@XZ 
??1IVertexBuffer@MyGUI@@UEAA@XZ 
??1ImageBox@MyGUI@@UEAA@XZ 
??1InputManager@MyGUI@@UEAA@XZ 
??1ItemBox@MyGUI@@UEAA@XZ 
??1LanguageManager@MyGUI@@UEAA@XZ 
??1LayerItem@MyGUI@@UEAA@XZ 
??1LayerManager@MyGUI@@UEAA@XZ 
??1LayerNode@MyGUI@@UEAA@XZ 
??1LayoutManager@MyGUI@@UEAA@XZ 
??1LevelLogFilter@MyGUI@@UEAA@XZ 
??1ListBox@MyGUI@@UEAA@XZ 
??1ListScrollBar@MyGUI@@UEAA@XZ 
??1LogManager@MyGUI@@QEAA@XZ 
??1LogSource@MyGUI@@QEAA@XZ 
??1LogStream@MyGUI@@QEAA@XZ 
??1MainSkin@MyGUI@@UEAA@XZ 
??1MaskPickInfo@MyGUI@@QEAA@XZ 
??1MenuBar@MyGUI@@UEAA@XZ 
??1MenuControl@MyGUI@@UEAA@XZ 
??1MenuItem@MyGUI@@UEAA@XZ 
??1MultiListBox@MyGUI@@UEAA@XZ 
??1MultiListItem@MyGUI@@UEAA@XZ 
??1MultiSlider@MyGUI@@UEAA@XZ 
??1OverlappedLayer@MyGUI@@UEAA@XZ 
??1PluginManager@MyGUI@@UEAA@XZ 
??1PointerManager@MyGUI@@UEAA@XZ 
??1PolygonalSkin@MyGUI@@UEAA@XZ 
??1PopupMenu@MyGUI@@UEAA@XZ 
??1ProgressBar@MyGUI@@UEAA@XZ 
??1RenderItem@MyGUI@@UEAA@XZ 
??1RenderManager@MyGUI@@UEAA@XZ 
??1ResourceImageSet@MyGUI@@EEAA@XZ 
??1ResourceImageSetPointer@MyGUI@@UEAA@XZ 
??1ResourceLayout@MyGUI@@UEAA@XZ 
??1ResourceManager@MyGUI@@UEAA@XZ 
??1ResourceManualFont@MyGUI@@UEAA@XZ 
??1ResourceManualPointer@MyGUI@@UEAA@XZ 
??1ResourceSkin@MyGUI@@UEAA@XZ 
??1ResourceTrueTypeFont@MyGUI@@UEAA@XZ 
??1RotatingSkin@MyGUI@@UEAA@XZ 
??1RotatingSkinStateInfo@MyGUI@@UEAA@XZ 
??1ScaleManager@MyGUI@@UEAA@XZ 
??1ScrollBar@MyGUI@@UEAA@XZ 
??1ScrollView@MyGUI@@UEAA@XZ 
??1ScrollViewBase@MyGUI@@MEAA@XZ 
??1SharedLayer@MyGUI@@UEAA@XZ 
??1SharedLayerNode@MyGUI@@UEAA@XZ 
??1SimpleText@MyGUI@@UEAA@XZ 
??1SkinItem@MyGUI@@UEAA@XZ 
??1SkinManager@MyGUI@@UEAA@XZ 
??1Slider@MyGUI@@UEAA@XZ 
??1SubSkin@MyGUI@@UEAA@XZ 
??1SubSkinStateInfo@MyGUI@@UEAA@XZ 
??1SubWidgetBinding@MyGUI@@QEAA@XZ 
??1SubWidgetManager@MyGUI@@UEAA@XZ 
??1TabControl@MyGUI@@UEAA@XZ 
??1TabItem@MyGUI@@UEAA@XZ 
??1TextBox@MyGUI@@UEAA@XZ 
??1TextIterator@MyGUI@@QEAA@XZ 
??1TileRect@MyGUI@@UEAA@XZ 
??1TileRectStateInfo@MyGUI@@UEAA@XZ 
??1ToolTipManager@MyGUI@@UEAA@XZ 
??1UString@MyGUI@@QEAA@XZ 
??1UserData@MyGUI@@UEAA@XZ 
??1Widget@MyGUI@@MEAA@XZ 
??1WidgetInfo@MyGUI@@QEAA@XZ 
??1WidgetInput@MyGUI@@UEAA@XZ 
??1WidgetManager@MyGUI@@UEAA@XZ 
??1Window@MyGUI@@UEAA@XZ 
??1WindowsClipboardHandler@MyGUI@@QEAA@XZ 
??1invalid_data@UString@MyGUI@@UEAA@XZ 
??4?$MemberObsolete@VButton@MyGUI@@@MyGUI@@QEAAAEAV01@AEBV01@@Z 
??4?$MemberObsolete@VComboBox@MyGUI@@@MyGUI@@QEAAAEAV01@AEBV01@@Z 
??4?$MemberObsolete@VEditBox@MyGUI@@@MyGUI@@QEAAAEAV01@AEBV01@@Z 
??4?$MemberObsolete@VFontManager@MyGUI@@@MyGUI@@QEAAAEAV01@AEBV01@@Z 
??4?$MemberObsolete@VGui@MyGUI@@@MyGUI@@QEAAAEAV01@AEBV01@@Z 
??4?$MemberObsolete@VImageBox@MyGUI@@@MyGUI@@QEAAAEAV01@AEBV01@@Z 
??4?$MemberObsolete@VInputManager@MyGUI@@@MyGUI@@QEAAAEAV01@AEBV01@@Z 
??4?$MemberObsolete@VItemBox@MyGUI@@@MyGUI@@QEAAAEAV01@AEBV01@@Z 
??4?$MemberObsolete@VLanguageManager@MyGUI@@@MyGUI@@QEAAAEAV01@AEBV01@@Z 
??4?$MemberObsolete@VLayerManager@MyGUI@@@MyGUI@@QEAAAEAV01@AEBV01@@Z 
??4?$MemberObsolete@VLayoutManager@MyGUI@@@MyGUI@@QEAAAEAV01@AEBV01@@Z 
??4?$MemberObsolete@VListBox@MyGUI@@@MyGUI@@QEAAAEAV01@AEBV01@@Z 
??4?$MemberObsolete@VMenuControl@MyGUI@@@MyGUI@@QEAAAEAV01@AEBV01@@Z 
??4?$MemberObsolete@VMenuItem@MyGUI@@@MyGUI@@QEAAAEAV01@AEBV01@@Z 
??4?$MemberObsolete@VMultiListBox@MyGUI@@@MyGUI@@QEAAAEAV01@AEBV01@@Z 
??4?$MemberObsolete@VPluginManager@MyGUI@@@MyGUI@@QEAAAEAV01@AEBV01@@Z 
??4?$MemberObsolete@VPointerManager@MyGUI@@@MyGUI@@QEAAAEAV01@AEBV01@@Z 
??4?$MemberObsolete@VProgressBar@MyGUI@@@MyGUI@@QEAAAEAV01@AEBV01@@Z 
??4?$MemberObsolete@VResourceManager@MyGUI@@@MyGUI@@QEAAAEAV01@AEBV01@@Z 
??4?$MemberObsolete@VScaleManager@MyGUI@@@MyGUI@@QEAAAEAV01@AEBV01@@Z 
??4?$MemberObsolete@VScrollBar@MyGUI@@@MyGUI@@QEAAAEAV01@AEBV01@@Z 
??4?$MemberObsolete@VScrollView@MyGUI@@@MyGUI@@QEAAAEAV01@AEBV01@@Z 
??4?$MemberObsolete@VSkinManager@MyGUI@@@MyGUI@@QEAAAEAV01@AEBV01@@Z 
??4?$MemberObsolete@VTabControl@MyGUI@@@MyGUI@@QEAAAEAV01@AEBV01@@Z 
??4?$MemberObsolete@VWidget@MyGUI@@@MyGUI@@QEAAAEAV01@AEBV01@@Z 
??4?$MemberObsolete@VWidgetManager@MyGUI@@@MyGUI@@QEAAAEAV01@AEBV01@@Z 
??4?$MemberObsolete@VWindow@MyGUI@@@MyGUI@@QEAAAEAV01@AEBV01@@Z 
??4?$Singleton@VClipboardManager@MyGUI@@@MyGUI@@QEAAAEAV01@AEBV01@@Z 
??4?$Singleton@VColourManager@MyGUI@@@MyGUI@@QEAAAEAV01@AEBV01@@Z 
??4?$Singleton@VControllerManager@MyGUI@@@MyGUI@@QEAAAEAV01@AEBV01@@Z 
??4?$Singleton@VDataManager@MyGUI@@@MyGUI@@QEAAAEAV01@AEBV01@@Z 
??4?$Singleton@VDynLibManager@MyGUI@@@MyGUI@@QEAAAEAV01@AEBV01@@Z 
??4?$Singleton@VFactoryManager@MyGUI@@@MyGUI@@QEAAAEAV01@AEBV01@@Z 
??4?$Singleton@VFontManager@MyGUI@@@MyGUI@@QEAAAEAV01@AEBV01@@Z 
??4?$Singleton@VGui@MyGUI@@@MyGUI@@QEAAAEAV01@AEBV01@@Z 
??4?$Singleton@VInputManager@MyGUI@@@MyGUI@@QEAAAEAV01@AEBV01@@Z 
??4?$Singleton@VLanguageManager@MyGUI@@@MyGUI@@QEAAAEAV01@AEBV01@@Z 
??4?$Singleton@VLayerManager@MyGUI@@@MyGUI@@QEAAAEAV01@AEBV01@@Z 
??4?$Singleton@VLayoutManager@MyGUI@@@MyGUI@@QEAAAEAV01@AEBV01@@Z 
??4?$Singleton@VPluginManager@MyGUI@@@MyGUI@@QEAAAEAV01@AEBV01@@Z 
??4?$Singleton@VPointerManager@MyGUI@@@MyGUI@@QEAAAEAV01@AEBV01@@Z 
??4?$Singleton@VRenderManager@MyGUI@@@MyGUI@@QEAAAEAV01@AEBV01@@Z 
??4?$Singleton@VResourceManager@MyGUI@@@MyGUI@@QEAAAEAV01@AEBV01@@Z 
??4?$Singleton@VScaleManager@MyGUI@@@MyGUI@@QEAAAEAV01@AEBV01@@Z 
??4?$Singleton@VSkinManager@MyGUI@@@MyGUI@@QEAAAEAV01@AEBV01@@Z 
??4?$Singleton@VSubWidgetManager@MyGUI@@@MyGUI@@QEAAAEAV01@AEBV01@@Z 
??4?$Singleton@VToolTipManager@MyGUI@@@MyGUI@@QEAAAEAV01@AEBV01@@Z 
??4?$Singleton@VWidgetManager@MyGUI@@@MyGUI@@QEAAAEAV01@AEBV01@@Z 
??4?$iterator@Urandom_access_iterator_tag@std@@G_JPEAGAEAG@std@@QEAAAEAU01@AEBU01@@Z 
??4Align@MyGUI@@QEAAAEAU01@AEBU01@@Z 
??4Any@MyGUI@@QEAAAEAV01@AEBUAnyEmpty@01@@Z 
??4Any@MyGUI@@QEAAAEAV01@AEBV01@@Z 
??4BackwardCompatibility@MyGUI@@QEAAAEAV01@AEBV01@@Z 
??4BiIndexBase@MyGUI@@QEAAAEAV01@AEBV01@@Z 
??4Button@MyGUI@@QEAAAEAV01@AEBV01@@Z 
??4Canvas@MyGUI@@QEAAAEAV01@AEBV01@@Z 
??4ChildSkinInfo@MyGUI@@QEAAAEAU01@AEBU01@@Z 
??4ClipboardManager@MyGUI@@QEAAAEAV01@AEBV01@@Z 
??4Colour@MyGUI@@QEAAAEAU01@AEBU01@@Z 
??4ColourManager@MyGUI@@QEAAAEAV01@AEBV01@@Z 
??4ComboBox@MyGUI@@QEAAAEAV01@AEBV01@@Z 
??4ConsoleLogListener@MyGUI@@QEAAAEAV01@AEBV01@@Z 
??4Constants@MyGUI@@QEAAAEAV01@AEBV01@@Z 
??4ControllerEdgeHide@MyGUI@@QEAAAEAV01@AEBV01@@Z 
??4ControllerFadeAlpha@MyGUI@@QEAAAEAV01@AEBV01@@Z 
??4ControllerInfo@MyGUI@@QEAAAEAU01@AEBU01@@Z 
??4ControllerItem@MyGUI@@QEAAAEAV01@AEBV01@@Z 
??4ControllerManager@MyGUI@@QEAAAEAV01@AEBV01@@Z 
??4ControllerPosition@MyGUI@@QEAAAEAV01@AEBV01@@Z 
??4CoordConverter@MyGUI@@QEAAAEAV01@AEBV01@@Z 
??4DDContainer@MyGUI@@QEAAAEAV01@AEBV01@@Z 
??4DDItemInfo@MyGUI@@QEAAAEAU01@AEBU01@@Z 
??4DDItemState@MyGUI@@QEAAAEAU01@AEBU01@@Z 
??4DDWidgetState@MyGUI@@QEAAAEAU01@AEBU01@@Z 
??4DataFileStream@MyGUI@@QEAAAEAV01@AEBV01@@Z 
??4DataManager@MyGUI@@QEAAAEAV01@AEBV01@@Z 
??4DataMemoryStream@MyGUI@@QEAAAEAV01@AEBV01@@Z 
??4DataStream@MyGUI@@QEAAAEAV01@AEBV01@@Z 
??4Document@xml@MyGUI@@QEAAAEAV012@AEBV012@@Z 
??4DynLib@MyGUI@@QEAAAEAV01@AEBV01@@Z 
??4DynLibManager@MyGUI@@QEAAAEAV01@AEBV01@@Z 
??4EditBox@MyGUI@@QEAAAEAV01@AEBV01@@Z 
??4EditText@MyGUI@@QEAAAEAV01@AEBV01@@Z 
??4EditTextStateInfo@MyGUI@@QEAAAEAV01@AEBV01@@Z 
??4Element@xml@MyGUI@@QEAAAEAV012@AEBV012@@Z 
??4ElementEnumerator@xml@MyGUI@@QEAAAEAV012@AEBV012@@Z 
??4Exception@MyGUI@@QEAAAEAV01@AEBV01@@Z 
??4FactoryManager@MyGUI@@QEAAAEAV01@AEBV01@@Z 
??4FlowDirection@MyGUI@@QEAAAEAU01@AEBU01@@Z 
??4FontManager@MyGUI@@QEAAAEAV01@AEBV01@@Z 
??4Gui@MyGUI@@QEAAAEAV01@AEBV01@@Z 
??4IBDrawItemInfo@MyGUI@@QEAAAEAU01@AEBU01@@Z 
??4IBNotifyItemData@MyGUI@@QEAAAEAU01@AEBU01@@Z 
??4ICroppedRectangle@MyGUI@@QEAAAEAV01@AEBV01@@Z 
??4IDataStream@MyGUI@@QEAAAEAV01@AEBV01@@Z 
??4IDelegateUnlink@delegates@MyGUI@@QEAAAEAV012@AEBV012@@Z 
??4IItem@MyGUI@@QEAAAEAV01@AEBV01@@Z 
??4IItemContainer@MyGUI@@QEAAAEAV01@AEBV01@@Z 
??4ILayer@MyGUI@@QEAAAEAV01@AEBV01@@Z 
??4ILayerItem@MyGUI@@QEAAAEAV01@AEBV01@@Z 
??4ILayerNode@MyGUI@@QEAAAEAV01@AEBV01@@Z 
??4ILogFilter@MyGUI@@QEAAAEAV01@AEBV01@@Z 
??4ILogListener@MyGUI@@QEAAAEAV01@AEBV01@@Z 
??4IObject@MyGUI@@QEAAAEAV01@AEBV01@@Z 
??4IPlugin@MyGUI@@QEAAAEAV01@AEBV01@@Z 
??4IRenderTarget@MyGUI@@QEAAAEAV01@AEBV01@@Z 
??4ISerializable@MyGUI@@QEAAAEAV01@AEBV01@@Z 
??4IStateInfo@MyGUI@@QEAAAEAV01@AEBV01@@Z 
??4ISubWidget@MyGUI@@QEAAAEAV01@AEBV01@@Z 
??4ISubWidgetRect@MyGUI@@QEAAAEAV01@AEBV01@@Z 
??4ISubWidgetText@MyGUI@@QEAAAEAV01@AEBV01@@Z 
??4ITexture@MyGUI@@QEAAAEAV01@AEBV01@@Z 
??4ITextureInvalidateListener@MyGUI@@QEAAAEAV01@AEBV01@@Z 
??4IUnlinkWidget@MyGUI@@QEAAAEAV01@AEBV01@@Z 
??4IVertexBuffer@MyGUI@@QEAAAEAV01@AEBV01@@Z 
??4ImageBox@MyGUI@@QEAAAEAV01@AEBV01@@Z 
??4InputManager@MyGUI@@QEAAAEAV01@AEBV01@@Z 
??4ItemBox@MyGUI@@QEAAAEAV01@AEBV01@@Z 
??4KeyCode@MyGUI@@QEAAAEAU01@AEBU01@@Z 
??4LanguageManager@MyGUI@@QEAAAEAV01@AEBV01@@Z 
??4LayerItem@MyGUI@@QEAAAEAV01@AEBV01@@Z 
??4LayerManager@MyGUI@@QEAAAEAV01@AEBV01@@Z 
??4LayerNode@MyGUI@@QEAAAEAV01@AEBV01@@Z 
??4LayoutManager@MyGUI@@QEAAAEAV01@AEBV01@@Z 
??4LevelLogFilter@MyGUI@@QEAAAEAV01@AEBV01@@Z 
??4ListBox@MyGUI@@QEAAAEAV01@AEBV01@@Z 
??4ListScrollBar@MyGUI@@QEAAAEAV01@AEBV01@@Z 
??4LogLevel@MyGUI@@QEAAAEAU01@AEBU01@@Z 
??4LogManager@MyGUI@@QEAAAEAV01@AEBV01@@Z 
??4LogSource@MyGUI@@QEAAAEAV01@AEBV01@@Z 
??4MainSkin@MyGUI@@QEAAAEAV01@AEBV01@@Z 
??4MaskPickInfo@MyGUI@@QEAAAEAV01@AEBV01@@Z 
??4MenuBar@MyGUI@@QEAAAEAV01@AEBV01@@Z 
??4MenuControl@MyGUI@@QEAAAEAV01@AEBV01@@Z 
??4MenuItem@MyGUI@@QEAAAEAV01@AEBV01@@Z 
??4MenuItemType@MyGUI@@QEAAAEAU01@AEBU01@@Z 
??4MouseButton@MyGUI@@QEAAAEAU01@AEBU01@@Z 
??4MultiListBox@MyGUI@@QEAAAEAV01@AEBV01@@Z 
??4MultiListItem@MyGUI@@QEAAAEAV01@AEBV01@@Z 
??4MultiSlider@MyGUI@@QEAAAEAV01@AEBV01@@Z 
??4OverlappedLayer@MyGUI@@QEAAAEAV01@AEBV01@@Z 
??4PixelFormat@MyGUI@@QEAAAEAU01@AEBU01@@Z 
??4PluginManager@MyGUI@@QEAAAEAV01@AEBV01@@Z 
??4PointerManager@MyGUI@@QEAAAEAV01@AEBV01@@Z 
??4PolygonalSkin@MyGUI@@QEAAAEAV01@AEBV01@@Z 
??4PopupMenu@MyGUI@@QEAAAEAV01@AEBV01@@Z 
??4ProgressBar@MyGUI@@QEAAAEAV01@AEBV01@@Z 
??4RenderItem@MyGUI@@QEAAAEAV01@AEBV01@@Z 
??4RenderManager@MyGUI@@QEAAAEAV01@AEBV01@@Z 
??4RenderTargetInfo@MyGUI@@QEAAAEAU01@AEBU01@@Z 
??4ResizingPolicy@MyGUI@@QEAAAEAU01@AEBU01@@Z 
??4ResourceManager@MyGUI@@QEAAAEAV01@AEBV01@@Z 
??4RotatingSkin@MyGUI@@QEAAAEAV01@AEBV01@@Z 
??4RotatingSkinStateInfo@MyGUI@@QEAAAEAV01@AEBV01@@Z 
??4ScaleManager@MyGUI@@QEAAAEAV01@AEBV01@@Z 
??4ScrollBar@MyGUI@@QEAAAEAV01@AEBV01@@Z 
??4ScrollView@MyGUI@@QEAAAEAV01@AEBV01@@Z 
??4ScrollViewBase@MyGUI@@QEAAAEAV01@AEBV01@@Z 
??4SharedLayer@MyGUI@@QEAAAEAV01@AEBV01@@Z 
??4SharedLayerNode@MyGUI@@QEAAAEAV01@AEBV01@@Z 
??4SimpleText@MyGUI@@QEAAAEAV01@AEBV01@@Z 
??4SkinItem@MyGUI@@QEAAAEAV01@AEBV01@@Z 
??4SkinManager@MyGUI@@QEAAAEAV01@AEBV01@@Z 
??4Slider@MyGUI@@QEAAAEAV01@AEBV01@@Z 
??4SubSkin@MyGUI@@QEAAAEAV01@AEBV01@@Z 
??4SubSkinStateInfo@MyGUI@@QEAAAEAV01@AEBV01@@Z 
??4SubWidgetBinding@MyGUI@@QEAAAEAV01@AEBV01@@Z 
??4SubWidgetManager@MyGUI@@QEAAAEAV01@AEBV01@@Z 
??4TabControl@MyGUI@@QEAAAEAV01@AEBV01@@Z 
??4TabItem@MyGUI@@QEAAAEAV01@AEBV01@@Z 
??4TextBox@MyGUI@@QEAAAEAV01@AEBV01@@Z 
??4TextIterator@MyGUI@@QEAAAEAV01@AEBV01@@Z 
??4TextureUsage@MyGUI@@QEAAAEAU01@AEBU01@@Z 
??4TileRect@MyGUI@@QEAAAEAV01@AEBV01@@Z 
??4TileRectStateInfo@MyGUI@@QEAAAEAV01@AEBV01@@Z 
??4Timer@MyGUI@@QEAAAEAV01@AEBV01@@Z 
??4ToolTipManager@MyGUI@@QEAAAEAV01@AEBV01@@Z 
??4UString@MyGUI@@QEAAAEAV01@AEBV01@@Z 
??4UString@MyGUI@@QEAAAEAV01@D@Z 
??4UString@MyGUI@@QEAAAEAV01@G@Z 
??4UString@MyGUI@@QEAAAEAV01@I@Z 
??4UString@MyGUI@@QEAAAEAV01@_W@Z 
??4UserData@MyGUI@@QEAAAEAV01@AEBV01@@Z 
??4Version@MyGUI@@QEAAAEAV01@AEBV01@@Z 
??4VertexColourType@MyGUI@@QEAAAEAU01@AEBU01@@Z 
??4Widget@MyGUI@@QEAAAEAV01@AEBV01@@Z 
??4WidgetInfo@MyGUI@@QEAAAEAU01@AEBU01@@Z 
??4WidgetInput@MyGUI@@QEAAAEAV01@AEBV01@@Z 
??4WidgetManager@MyGUI@@QEAAAEAV01@AEBV01@@Z 
??4WidgetStyle@MyGUI@@QEAAAEAU01@AEBU01@@Z 
??4Window@MyGUI@@QEAAAEAV01@AEBV01@@Z 
??4WindowsClipboardHandler@MyGUI@@QEAAAEAV01@AEBV01@@Z 
??4_base_iterator@UString@MyGUI@@QEAAAEAV012@AEBV012@@Z 
??4_const_fwd_iterator@UString@MyGUI@@QEAAAEAV012@AEBV012@@Z 
??4_const_rev_iterator@UString@MyGUI@@QEAAAEAV012@AEBV012@@Z 
??4_fwd_iterator@UString@MyGUI@@QEAAAEAV012@AEBV012@@Z 
??4_rev_iterator@UString@MyGUI@@QEAAAEAV012@AEBV012@@Z 
??4invalid_data@UString@MyGUI@@QEAAAEAV012@AEBV012@@Z 
??6LogStream@MyGUI@@QEAA?AV?$basic_string@DU?$char_traits@D@std@@V?$allocator@D@2@@std@@AEBUEnd@01@@Z 
??8Colour@MyGUI@@QEBA_NAEBU01@@Z 
??8UString@MyGUI@@QEBA_NAEBV01@@Z 
??9Colour@MyGUI@@QEBA_NAEBU01@@Z 
??9UString@MyGUI@@QEBA_NAEBV01@@Z 
??AUString@MyGUI@@QEAAAEAG_K@Z 
??AUString@MyGUI@@QEBAAEBG_K@Z 
??A_const_fwd_iterator@UString@MyGUI@@QEBAAEBG_J@Z 
??A_const_rev_iterator@UString@MyGUI@@QEBAAEBG_J@Z 
??A_fwd_iterator@UString@MyGUI@@QEBAAEAG_J@Z 
??A_rev_iterator@UString@MyGUI@@QEBAAEAG_J@Z 
??BUString@MyGUI@@QEBA?AV?$basic_string@DU?$char_traits@D@std@@V?$allocator@D@2@@std@@XZ 
??BUString@MyGUI@@QEBA?AV?$basic_string@_WU?$char_traits@_W@std@@V?$allocator@_W@2@@std@@XZ 
??CElementEnumerator@xml@MyGUI@@QEBAPEAVElement@12@XZ 
??D_const_fwd_iterator@UString@MyGUI@@QEBAAEBGXZ 
??D_const_rev_iterator@UString@MyGUI@@QEBAAEBGXZ 
??D_fwd_iterator@UString@MyGUI@@QEBAAEAGXZ 
??D_rev_iterator@UString@MyGUI@@QEBAAEAGXZ 
??E_const_fwd_iterator@UString@MyGUI@@QEAA?AV012@H@Z 
??E_const_fwd_iterator@UString@MyGUI@@QEAAAEAV012@XZ 
??E_const_rev_iterator@UString@MyGUI@@QEAA?AV012@H@Z 
??E_const_rev_iterator@UString@MyGUI@@QEAAAEAV012@XZ 
??E_fwd_iterator@UString@MyGUI@@QEAA?AV012@H@Z 
??E_fwd_iterator@UString@MyGUI@@QEAAAEAV012@XZ 
??E_rev_iterator@UString@MyGUI@@QEAA?AV012@H@Z 
??E_rev_iterator@UString@MyGUI@@QEAAAEAV012@XZ 
??F_const_fwd_iterator@UString@MyGUI@@QEAA?AV012@H@Z 
??F_const_fwd_iterator@UString@MyGUI@@QEAAAEAV012@XZ 
??F_const_rev_iterator@UString@MyGUI@@QEAA?AV012@H@Z 
??F_const_rev_iterator@UString@MyGUI@@QEAAAEAV012@XZ 
??F_fwd_iterator@UString@MyGUI@@QEAA?AV012@H@Z 
??F_fwd_iterator@UString@MyGUI@@QEAAAEAV012@XZ 
??F_rev_iterator@UString@MyGUI@@QEAA?AV012@H@Z 
??F_rev_iterator@UString@MyGUI@@QEAAAEAV012@XZ 
??G_const_fwd_iterator@UString@MyGUI@@QEAA?AV012@_J@Z 
??G_const_rev_iterator@UString@MyGUI@@QEAA?AV012@_J@Z 
??G_fwd_iterator@UString@MyGUI@@QEAA?AV012@_J@Z 
??G_rev_iterator@UString@MyGUI@@QEAA?AV012@_J@Z 
??H_const_fwd_iterator@UString@MyGUI@@QEAA?AV012@_J@Z 
??H_const_rev_iterator@UString@MyGUI@@QEAA?AV012@_J@Z 
??H_fwd_iterator@UString@MyGUI@@QEAA?AV012@_J@Z 
??H_rev_iterator@UString@MyGUI@@QEAA?AV012@_J@Z 
??MUString@MyGUI@@QEBA_NAEBV01@@Z 
??NUString@MyGUI@@QEBA_NAEBV01@@Z 
??OUString@MyGUI@@QEBA_NAEBV01@@Z 
??PUString@MyGUI@@QEBA_NAEBV01@@Z 
??Y_const_fwd_iterator@UString@MyGUI@@QEAAAEAV012@_J@Z 
??Y_const_rev_iterator@UString@MyGUI@@QEAAAEAV012@_J@Z 
??Y_fwd_iterator@UString@MyGUI@@QEAAAEAV012@_J@Z 
??Y_rev_iterator@UString@MyGUI@@QEAAAEAV012@_J@Z 
??Z_const_fwd_iterator@UString@MyGUI@@QEAAAEAV012@_J@Z 
??Z_const_rev_iterator@UString@MyGUI@@QEAAAEAV012@_J@Z 
??Z_fwd_iterator@UString@MyGUI@@QEAAAEAV012@_J@Z 
??Z_rev_iterator@UString@MyGUI@@QEAAAEAV012@_J@Z 
??_5Align@MyGUI@@QEAAAEAU01@AEBU01@@Z 
??_5TextureUsage@MyGUI@@QEAAAEAU01@AEBU01@@Z 
??_7?$Singleton@VClipboardManager@MyGUI@@@MyGUI@@6B@ 
??_7?$Singleton@VColourManager@MyGUI@@@MyGUI@@6B@ 
??_7?$Singleton@VControllerManager@MyGUI@@@MyGUI@@6B@ 
??_7?$Singleton@VDataManager@MyGUI@@@MyGUI@@6B@ 
??_7?$Singleton@VDynLibManager@MyGUI@@@MyGUI@@6B@ 
??_7?$Singleton@VFactoryManager@MyGUI@@@MyGUI@@6B@ 
??_7?$Singleton@VFontManager@MyGUI@@@MyGUI@@6B@ 
??_7?$Singleton@VGui@MyGUI@@@MyGUI@@6B@ 
??_7?$Singleton@VInputManager@MyGUI@@@MyGUI@@6B@ 
??_7?$Singleton@VLanguageManager@MyGUI@@@MyGUI@@6B@ 
??_7?$Singleton@VLayerManager@MyGUI@@@MyGUI@@6B@ 
??_7?$Singleton@VLayoutManager@MyGUI@@@MyGUI@@6B@ 
??_7?$Singleton@VPluginManager@MyGUI@@@MyGUI@@6B@ 
??_7?$Singleton@VPointerManager@MyGUI@@@MyGUI@@6B@ 
??_7?$Singleton@VRenderManager@MyGUI@@@MyGUI@@6B@ 
??_7?$Singleton@VResourceManager@MyGUI@@@MyGUI@@6B@ 
??_7?$Singleton@VScaleManager@MyGUI@@@MyGUI@@6B@ 
??_7?$Singleton@VSkinManager@MyGUI@@@MyGUI@@6B@ 
??_7?$Singleton@VSubWidgetManager@MyGUI@@@MyGUI@@6B@ 
??_7?$Singleton@VToolTipManager@MyGUI@@@MyGUI@@6B@ 
??_7?$Singleton@VWidgetManager@MyGUI@@@MyGUI@@6B@ 
??_7BiIndexBase@MyGUI@@6B@ 
??_7Button@MyGUI@@6BICroppedRectangle@1@@ 
??_7Button@MyGUI@@6BIDelegateUnlink@delegates@1@@ 
??_7Button@MyGUI@@6BIObject@1@@ 
??_7Button@MyGUI@@6BSkinItem@1@@ 
??_7Button@MyGUI@@6BUserData@1@@ 
??_7Button@MyGUI@@6BWidgetInput@1@@ 
??_7Canvas@MyGUI@@6B@ 
??_7Canvas@MyGUI@@6BICroppedRectangle@1@@ 
??_7Canvas@MyGUI@@6BIDelegateUnlink@delegates@1@@ 
??_7Canvas@MyGUI@@6BIObject@1@@ 
??_7Canvas@MyGUI@@6BSkinItem@1@@ 
??_7Canvas@MyGUI@@6BUserData@1@@ 
??_7Canvas@MyGUI@@6BWidgetInput@1@@ 
??_7ClipboardManager@MyGUI@@6B@ 
??_7ColourManager@MyGUI@@6B@ 
??_7ComboBox@MyGUI@@6BEditBox@1@@ 
??_7ComboBox@MyGUI@@6BICroppedRectangle@1@@ 
??_7ComboBox@MyGUI@@6BIDelegateUnlink@delegates@1@@ 
??_7ComboBox@MyGUI@@6BIItemContainer@1@@ 
??_7ComboBox@MyGUI@@6BIObject@1@@ 
??_7ComboBox@MyGUI@@6BSkinItem@1@@ 
??_7ComboBox@MyGUI@@6BUserData@1@@ 
??_7ComboBox@MyGUI@@6BWidgetInput@1@@ 
??_7ConsoleLogListener@MyGUI@@6B@ 
??_7ControllerEdgeHide@MyGUI@@6B@ 
??_7ControllerFadeAlpha@MyGUI@@6B@ 
??_7ControllerItem@MyGUI@@6B@ 
??_7ControllerManager@MyGUI@@6B?$Singleton@VControllerManager@MyGUI@@@1@@ 
??_7ControllerManager@MyGUI@@6BIUnlinkWidget@1@@ 
??_7ControllerPosition@MyGUI@@6B@ 
??_7DDContainer@MyGUI@@6BICroppedRectangle@1@@ 
??_7DDContainer@MyGUI@@6BIDelegateUnlink@delegates@1@@ 
??_7DDContainer@MyGUI@@6BIObject@1@@ 
??_7DDContainer@MyGUI@@6BSkinItem@1@@ 
??_7DDContainer@MyGUI@@6BUserData@1@@ 
??_7DDContainer@MyGUI@@6BWidgetInput@1@@ 
??_7DataFileStream@MyGUI@@6B@ 
??_7DataManager@MyGUI@@6B@ 
??_7DataMemoryStream@MyGUI@@6B@ 
??_7DataStream@MyGUI@@6B@ 
??_7DynLibManager@MyGUI@@6B@ 
??_7EditBox@MyGUI@@6B@ 
??_7EditBox@MyGUI@@6BICroppedRectangle@1@@ 
??_7EditBox@MyGUI@@6BIDelegateUnlink@delegates@1@@ 
??_7EditBox@MyGUI@@6BIObject@1@@ 
??_7EditBox@MyGUI@@6BSkinItem@1@@ 
??_7EditBox@MyGUI@@6BUserData@1@@ 
??_7EditBox@MyGUI@@6BWidgetInput@1@@ 
??_7EditText@MyGUI@@6BICroppedRectangle@1@@ 
??_7EditText@MyGUI@@6BIObject@1@@ 
??_7EditTextStateInfo@MyGUI@@6B@ 
??_7Exception@MyGUI@@6B@ 
??_7FactoryManager@MyGUI@@6B@ 
??_7FileLogListener@MyGUI@@6B@ 
??_7FontManager@MyGUI@@6B@ 
??_7Gui@MyGUI@@6B?$Singleton@VGui@MyGUI@@@1@@ 
??_7Gui@MyGUI@@6BIUnlinkWidget@1@@ 
??_7ICroppedRectangle@MyGUI@@6B@ 
??_7IDataStream@MyGUI@@6B@ 
??_7IDelegateUnlink@delegates@MyGUI@@6B@ 
??_7IFont@MyGUI@@6B@ 
??_7IItem@MyGUI@@6B@ 
??_7IItemContainer@MyGUI@@6B@ 
??_7ILayer@MyGUI@@6B@ 
??_7ILayerItem@MyGUI@@6B@ 
??_7ILayerNode@MyGUI@@6B@ 
??_7ILogFilter@MyGUI@@6B@ 
??_7ILogListener@MyGUI@@6B@ 
??_7IObject@MyGUI@@6B@ 
??_7IPlugin@MyGUI@@6B@ 
??_7IPointer@MyGUI@@6B@ 
??_7IRenderTarget@MyGUI@@6B@ 
??_7IResource@MyGUI@@6B@ 
??_7ISerializable@MyGUI@@6B@ 
??_7IStateInfo@MyGUI@@6B@ 
??_7ISubWidget@MyGUI@@6BICroppedRectangle@1@@ 
??_7ISubWidget@MyGUI@@6BIObject@1@@ 
??_7ISubWidgetRect@MyGUI@@6BICroppedRectangle@1@@ 
??_7ISubWidgetRect@MyGUI@@6BIObject@1@@ 
??_7ISubWidgetText@MyGUI@@6BICroppedRectangle@1@@ 
??_7ISubWidgetText@MyGUI@@6BIObject@1@@ 
??_7ITexture@MyGUI@@6B@ 
??_7ITextureInvalidateListener@MyGUI@@6B@ 
??_7IUnlinkWidget@MyGUI@@6B@ 
??_7IVertexBuffer@MyGUI@@6B@ 
??_7ImageBox@MyGUI@@6BICroppedRectangle@1@@ 
??_7ImageBox@MyGUI@@6BIDelegateUnlink@delegates@1@@ 
??_7ImageBox@MyGUI@@6BIObject@1@@ 
??_7ImageBox@MyGUI@@6BSkinItem@1@@ 
??_7ImageBox@MyGUI@@6BUserData@1@@ 
??_7ImageBox@MyGUI@@6BWidgetInput@1@@ 
??_7InputManager@MyGUI@@6B?$Singleton@VInputManager@MyGUI@@@1@@ 
??_7InputManager@MyGUI@@6BIUnlinkWidget@1@@ 
??_7ItemBox@MyGUI@@6B@ 
??_7ItemBox@MyGUI@@6BICroppedRectangle@1@@ 
??_7ItemBox@MyGUI@@6BIDelegateUnlink@delegates@1@@ 
??_7ItemBox@MyGUI@@6BIObject@1@@ 
??_7ItemBox@MyGUI@@6BSkinItem@1@@ 
??_7ItemBox@MyGUI@@6BUserData@1@@ 
??_7ItemBox@MyGUI@@6BWidgetInput@1@@ 
??_7LanguageManager@MyGUI@@6B@ 
??_7LayerItem@MyGUI@@6B@ 
??_7LayerManager@MyGUI@@6B?$Singleton@VLayerManager@MyGUI@@@1@@ 
??_7LayerManager@MyGUI@@6BIUnlinkWidget@1@@ 
??_7LayerNode@MyGUI@@6B@ 
??_7LayoutManager@MyGUI@@6B@ 
??_7LevelLogFilter@MyGUI@@6B@ 
??_7ListBox@MyGUI@@6B@ 
??_7ListBox@MyGUI@@6BICroppedRectangle@1@@ 
??_7ListBox@MyGUI@@6BIDelegateUnlink@delegates@1@@ 
??_7ListBox@MyGUI@@6BIObject@1@@ 
??_7ListBox@MyGUI@@6BSkinItem@1@@ 
??_7ListBox@MyGUI@@6BUserData@1@@ 
??_7ListBox@MyGUI@@6BWidgetInput@1@@ 
??_7ListScrollBar@MyGUI@@6BICroppedRectangle@1@@ 
??_7ListScrollBar@MyGUI@@6BIDelegateUnlink@delegates@1@@ 
??_7ListScrollBar@MyGUI@@6BIObject@1@@ 
??_7ListScrollBar@MyGUI@@6BSkinItem@1@@ 
??_7ListScrollBar@MyGUI@@6BUserData@1@@ 
??_7ListScrollBar@MyGUI@@6BWidgetInput@1@@ 
??_7MainSkin@MyGUI@@6BICroppedRectangle@1@@ 
??_7MainSkin@MyGUI@@6BIObject@1@@ 
??_7MenuBar@MyGUI@@6B@ 
??_7MenuBar@MyGUI@@6BICroppedRectangle@1@@ 
??_7MenuBar@MyGUI@@6BIDelegateUnlink@delegates@1@@ 
??_7MenuBar@MyGUI@@6BIObject@1@@ 
??_7MenuBar@MyGUI@@6BSkinItem@1@@ 
??_7MenuBar@MyGUI@@6BUserData@1@@ 
??_7MenuBar@MyGUI@@6BWidgetInput@1@@ 
??_7MenuControl@MyGUI@@6B@ 
??_7MenuControl@MyGUI@@6BICroppedRectangle@1@@ 
??_7MenuControl@MyGUI@@6BIDelegateUnlink@delegates@1@@ 
??_7MenuControl@MyGUI@@6BIObject@1@@ 
??_7MenuControl@MyGUI@@6BSkinItem@1@@ 
??_7MenuControl@MyGUI@@6BUserData@1@@ 
??_7MenuControl@MyGUI@@6BWidgetInput@1@@ 
??_7MenuItem@MyGUI@@6B@ 
??_7MenuItem@MyGUI@@6BICroppedRectangle@1@@ 
??_7MenuItem@MyGUI@@6BIDelegateUnlink@delegates@1@@ 
??_7MenuItem@MyGUI@@6BIObject@1@@ 
??_7MenuItem@MyGUI@@6BSkinItem@1@@ 
??_7MenuItem@MyGUI@@6BUserData@1@@ 
??_7MenuItem@MyGUI@@6BWidgetInput@1@@ 
??_7MultiListBox@MyGUI@@6BBiIndexBase@1@@ 
??_7MultiListBox@MyGUI@@6BICroppedRectangle@1@@ 
??_7MultiListBox@MyGUI@@6BIDelegateUnlink@delegates@1@@ 
??_7MultiListBox@MyGUI@@6BIItemContainer@1@@ 
??_7MultiListBox@MyGUI@@6BIObject@1@@ 
??_7MultiListBox@MyGUI@@6BSkinItem@1@@ 
??_7MultiListBox@MyGUI@@6BUserData@1@@ 
??_7MultiListBox@MyGUI@@6BWidgetInput@1@@ 
??_7MultiListItem@MyGUI@@6BICroppedRectangle@1@@ 
??_7MultiListItem@MyGUI@@6BIDelegateUnlink@delegates@1@@ 
??_7MultiListItem@MyGUI@@6BIObject@1@@ 
??_7MultiListItem@MyGUI@@6BSkinItem@1@@ 
??_7MultiListItem@MyGUI@@6BUserData@1@@ 
??_7MultiListItem@MyGUI@@6BWidgetInput@1@@ 
??_7MultiSlider@MyGUI@@6BICroppedRectangle@1@@ 
??_7MultiSlider@MyGUI@@6BIDelegateUnlink@delegates@1@@ 
??_7MultiSlider@MyGUI@@6BIObject@1@@ 
??_7MultiSlider@MyGUI@@6BSkinItem@1@@ 
??_7MultiSlider@MyGUI@@6BUserData@1@@ 
??_7MultiSlider@MyGUI@@6BWidgetInput@1@@ 
??_7OverlappedLayer@MyGUI@@6B@ 
??_7PluginManager@MyGUI@@6B@ 
??_7PointerManager@MyGUI@@6B?$Singleton@VPointerManager@MyGUI@@@1@@ 
??_7PointerManager@MyGUI@@6BIUnlinkWidget@1@@ 
??_7PolygonalSkin@MyGUI@@6BICroppedRectangle@1@@ 
??_7PolygonalSkin@MyGUI@@6BIObject@1@@ 
??_7PopupMenu@MyGUI@@6B@ 
??_7PopupMenu@MyGUI@@6BICroppedRectangle@1@@ 
??_7PopupMenu@MyGUI@@6BIDelegateUnlink@delegates@1@@ 
??_7PopupMenu@MyGUI@@6BIObject@1@@ 
??_7PopupMenu@MyGUI@@6BSkinItem@1@@ 
??_7PopupMenu@MyGUI@@6BUserData@1@@ 
??_7PopupMenu@MyGUI@@6BWidgetInput@1@@ 
??_7ProgressBar@MyGUI@@6BICroppedRectangle@1@@ 
??_7ProgressBar@MyGUI@@6BIDelegateUnlink@delegates@1@@ 
??_7ProgressBar@MyGUI@@6BIObject@1@@ 
??_7ProgressBar@MyGUI@@6BSkinItem@1@@ 
??_7ProgressBar@MyGUI@@6BUserData@1@@ 
??_7ProgressBar@MyGUI@@6BWidgetInput@1@@ 
??_7RenderItem@MyGUI@@6B@ 
??_7RenderManager@MyGUI@@6B@ 
??_7ResourceImageSet@MyGUI@@6B@ 
??_7ResourceImageSetPointer@MyGUI@@6B@ 
??_7ResourceLayout@MyGUI@@6B@ 
??_7ResourceManager@MyGUI@@6B@ 
??_7ResourceManualFont@MyGUI@@6B@ 
??_7ResourceManualPointer@MyGUI@@6B@ 
??_7ResourceSkin@MyGUI@@6B@ 
??_7ResourceTrueTypeFont@MyGUI@@6BIFont@1@@ 
??_7ResourceTrueTypeFont@MyGUI@@6BITextureInvalidateListener@1@@ 
??_7RotatingSkin@MyGUI@@6BICroppedRectangle@1@@ 
??_7RotatingSkin@MyGUI@@6BIObject@1@@ 
??_7RotatingSkinStateInfo@MyGUI@@6B@ 
??_7ScaleManager@MyGUI@@6B@ 
??_7ScrollBar@MyGUI@@6BICroppedRectangle@1@@ 
??_7ScrollBar@MyGUI@@6BIDelegateUnlink@delegates@1@@ 
??_7ScrollBar@MyGUI@@6BIObject@1@@ 
??_7ScrollBar@MyGUI@@6BSkinItem@1@@ 
??_7ScrollBar@MyGUI@@6BUserData@1@@ 
??_7ScrollBar@MyGUI@@6BWidgetInput@1@@ 
??_7ScrollView@MyGUI@@6B@ 
??_7ScrollView@MyGUI@@6BICroppedRectangle@1@@ 
??_7ScrollView@MyGUI@@6BIDelegateUnlink@delegates@1@@ 
??_7ScrollView@MyGUI@@6BIObject@1@@ 
??_7ScrollView@MyGUI@@6BSkinItem@1@@ 
??_7ScrollView@MyGUI@@6BUserData@1@@ 
??_7ScrollView@MyGUI@@6BWidgetInput@1@@ 
??_7ScrollViewBase@MyGUI@@6B@ 
??_7SharedLayer@MyGUI@@6B@ 
??_7SharedLayerNode@MyGUI@@6B@ 
??_7SimpleText@MyGUI@@6BICroppedRectangle@1@@ 
??_7SimpleText@MyGUI@@6BIObject@1@@ 
??_7SkinItem@MyGUI@@6B@ 
??_7SkinManager@MyGUI@@6B@ 
??_7Slider@MyGUI@@6BICroppedRectangle@1@@ 
??_7Slider@MyGUI@@6BIDelegateUnlink@delegates@1@@ 
??_7Slider@MyGUI@@6BIObject@1@@ 
??_7Slider@MyGUI@@6BSkinItem@1@@ 
??_7Slider@MyGUI@@6BUserData@1@@ 
??_7Slider@MyGUI@@6BWidgetInput@1@@ 
??_7SubSkin@MyGUI@@6BICroppedRectangle@1@@ 
??_7SubSkin@MyGUI@@6BIObject@1@@ 
??_7SubSkinStateInfo@MyGUI@@6B@ 
??_7SubWidgetManager@MyGUI@@6B@ 
??_7TabControl@MyGUI@@6B@ 
??_7TabControl@MyGUI@@6BICroppedRectangle@1@@ 
??_7TabControl@MyGUI@@6BIDelegateUnlink@delegates@1@@ 
??_7TabControl@MyGUI@@6BIObject@1@@ 
??_7TabControl@MyGUI@@6BSkinItem@1@@ 
??_7TabControl@MyGUI@@6BUserData@1@@ 
??_7TabControl@MyGUI@@6BWidgetInput@1@@ 
??_7TabItem@MyGUI@@6BICroppedRectangle@1@@ 
??_7TabItem@MyGUI@@6BIDelegateUnlink@delegates@1@@ 
??_7TabItem@MyGUI@@6BIObject@1@@ 
??_7TabItem@MyGUI@@6BSkinItem@1@@ 
??_7TabItem@MyGUI@@6BUserData@1@@ 
??_7TabItem@MyGUI@@6BWidgetInput@1@@ 
??_7TextBox@MyGUI@@6BICroppedRectangle@1@@ 
??_7TextBox@MyGUI@@6BIDelegateUnlink@delegates@1@@ 
??_7TextBox@MyGUI@@6BIObject@1@@ 
??_7TextBox@MyGUI@@6BSkinItem@1@@ 
??_7TextBox@MyGUI@@6BUserData@1@@ 
??_7TextBox@MyGUI@@6BWidgetInput@1@@ 
??_7TileRect@MyGUI@@6BICroppedRectangle@1@@ 
??_7TileRect@MyGUI@@6BIObject@1@@ 
??_7TileRectStateInfo@MyGUI@@6B@ 
??_7ToolTipManager@MyGUI@@6B?$Singleton@VToolTipManager@MyGUI@@@1@@ 
??_7ToolTipManager@MyGUI@@6BIUnlinkWidget@1@@ 
??_7UserData@MyGUI@@6B@ 
??_7Widget@MyGUI@@6BICroppedRectangle@1@@ 
??_7Widget@MyGUI@@6BIDelegateUnlink@delegates@1@@ 
??_7Widget@MyGUI@@6BIObject@1@@ 
??_7Widget@MyGUI@@6BSkinItem@1@@ 
??_7Widget@MyGUI@@6BUserData@1@@ 
??_7Widget@MyGUI@@6BWidgetInput@1@@ 
??_7WidgetInput@MyGUI@@6B@ 
??_7WidgetManager@MyGUI@@6B@ 
??_7Window@MyGUI@@6BICroppedRectangle@1@@ 
??_7Window@MyGUI@@6BIDelegateUnlink@delegates@1@@ 
??_7Window@MyGUI@@6BIObject@1@@ 
??_7Window@MyGUI@@6BSkinItem@1@@ 
??_7Window@MyGUI@@6BUserData@1@@ 
??_7Window@MyGUI@@6BWidgetInput@1@@ 
??_7invalid_data@UString@MyGUI@@6B@ 
??_B?1??getClassTypeName@Button@MyGUI@@SAAEBV?$basic_string@DU?$char_traits@D@std@@V?$allocator@D@2@@std@@XZ@51 
??_B?1??getClassTypeName@Canvas@MyGUI@@SAAEBV?$basic_string@DU?$char_traits@D@std@@V?$allocator@D@2@@std@@XZ@51 
??_B?1??getClassTypeName@ComboBox@MyGUI@@SAAEBV?$basic_string@DU?$char_traits@D@std@@V?$allocator@D@2@@std@@XZ@51 
??_B?1??getClassTypeName@ControllerEdgeHide@MyGUI@@SAAEBV?$basic_string@DU?$char_traits@D@std@@V?$allocator@D@2@@std@@XZ@51 
??_B?1??getClassTypeName@ControllerFadeAlpha@MyGUI@@SAAEBV?$basic_string@DU?$char_traits@D@std@@V?$allocator@D@2@@std@@XZ@51 
??_B?1??getClassTypeName@ControllerItem@MyGUI@@SAAEBV?$basic_string@DU?$char_traits@D@std@@V?$allocator@D@2@@std@@XZ@51 
??_B?1??getClassTypeName@ControllerPosition@MyGUI@@SAAEBV?$basic_string@DU?$char_traits@D@std@@V?$allocator@D@2@@std@@XZ@51 
??_B?1??getClassTypeName@DDContainer@MyGUI@@SAAEBV?$basic_string@DU?$char_traits@D@std@@V?$allocator@D@2@@std@@XZ@51 
??_B?1??getClassTypeName@EditBox@MyGUI@@SAAEBV?$basic_string@DU?$char_traits@D@std@@V?$allocator@D@2@@std@@XZ@51 
??_B?1??getClassTypeName@EditText@MyGUI@@SAAEBV?$basic_string@DU?$char_traits@D@std@@V?$allocator@D@2@@std@@XZ@51 
??_B?1??getClassTypeName@EditTextStateInfo@MyGUI@@SAAEBV?$basic_string@DU?$char_traits@D@std@@V?$allocator@D@2@@std@@XZ@51 
??_B?1??getClassTypeName@IFont@MyGUI@@SAAEBV?$basic_string@DU?$char_traits@D@std@@V?$allocator@D@2@@std@@XZ@51 
??_B?1??getClassTypeName@ILayer@MyGUI@@SAAEBV?$basic_string@DU?$char_traits@D@std@@V?$allocator@D@2@@std@@XZ@51 
??_B?1??getClassTypeName@ILayerNode@MyGUI@@SAAEBV?$basic_string@DU?$char_traits@D@std@@V?$allocator@D@2@@std@@XZ@51 
??_B?1??getClassTypeName@IObject@MyGUI@@SAAEBV?$basic_string@DU?$char_traits@D@std@@V?$allocator@D@2@@std@@XZ@51 
??_B?1??getClassTypeName@IPointer@MyGUI@@SAAEBV?$basic_string@DU?$char_traits@D@std@@V?$allocator@D@2@@std@@XZ@51 
??_B?1??getClassTypeName@IResource@MyGUI@@SAAEBV?$basic_string@DU?$char_traits@D@std@@V?$allocator@D@2@@std@@XZ@51 
??_B?1??getClassTypeName@ISerializable@MyGUI@@SAAEBV?$basic_string@DU?$char_traits@D@std@@V?$allocator@D@2@@std@@XZ@51 
??_B?1??getClassTypeName@IStateInfo@MyGUI@@SAAEBV?$basic_string@DU?$char_traits@D@std@@V?$allocator@D@2@@std@@XZ@51 
??_B?1??getClassTypeName@ISubWidget@MyGUI@@SAAEBV?$basic_string@DU?$char_traits@D@std@@V?$allocator@D@2@@std@@XZ@51 
??_B?1??getClassTypeName@ISubWidgetRect@MyGUI@@SAAEBV?$basic_string@DU?$char_traits@D@std@@V?$allocator@D@2@@std@@XZ@51 
??_B?1??getClassTypeName@ISubWidgetText@MyGUI@@SAAEBV?$basic_string@DU?$char_traits@D@std@@V?$allocator@D@2@@std@@XZ@51 
??_B?1??getClassTypeName@ImageBox@MyGUI@@SAAEBV?$basic_string@DU?$char_traits@D@std@@V?$allocator@D@2@@std@@XZ@51 
??_B?1??getClassTypeName@ItemBox@MyGUI@@SAAEBV?$basic_string@DU?$char_traits@D@std@@V?$allocator@D@2@@std@@XZ@51 
??_B?1??getClassTypeName@LayerNode@MyGUI@@SAAEBV?$basic_string@DU?$char_traits@D@std@@V?$allocator@D@2@@std@@XZ@51 
??_B?1??getClassTypeName@ListBox@MyGUI@@SAAEBV?$basic_string@DU?$char_traits@D@std@@V?$allocator@D@2@@std@@XZ@51 
??_B?1??getClassTypeName@ListScrollBar@MyGUI@@SAAEBV?$basic_string@DU?$char_traits@D@std@@V?$allocator@D@2@@std@@XZ@51 
??_B?1??getClassTypeName@MainSkin@MyGUI@@SAAEBV?$basic_string@DU?$char_traits@D@std@@V?$allocator@D@2@@std@@XZ@51 
??_B?1??getClassTypeName@MenuBar@MyGUI@@SAAEBV?$basic_string@DU?$char_traits@D@std@@V?$allocator@D@2@@std@@XZ@51 
??_B?1??getClassTypeName@MenuControl@MyGUI@@SAAEBV?$basic_string@DU?$char_traits@D@std@@V?$allocator@D@2@@std@@XZ@51 
??_B?1??getClassTypeName@MenuItem@MyGUI@@SAAEBV?$basic_string@DU?$char_traits@D@std@@V?$allocator@D@2@@std@@XZ@51 
??_B?1??getClassTypeName@MultiListBox@MyGUI@@SAAEBV?$basic_string@DU?$char_traits@D@std@@V?$allocator@D@2@@std@@XZ@51 
??_B?1??getClassTypeName@MultiListItem@MyGUI@@SAAEBV?$basic_string@DU?$char_traits@D@std@@V?$allocator@D@2@@std@@XZ@51 
??_B?1??getClassTypeName@MultiSlider@MyGUI@@SAAEBV?$basic_string@DU?$char_traits@D@std@@V?$allocator@D@2@@std@@XZ@51 
??_B?1??getClassTypeName@OverlappedLayer@MyGUI@@SAAEBV?$basic_string@DU?$char_traits@D@std@@V?$allocator@D@2@@std@@XZ@51 
??_B?1??getClassTypeName@PolygonalSkin@MyGUI@@SAAEBV?$basic_string@DU?$char_traits@D@std@@V?$allocator@D@2@@std@@XZ@51 
??_B?1??getClassTypeName@PopupMenu@MyGUI@@SAAEBV?$basic_string@DU?$char_traits@D@std@@V?$allocator@D@2@@std@@XZ@51 
??_B?1??getClassTypeName@ProgressBar@MyGUI@@SAAEBV?$basic_string@DU?$char_traits@D@std@@V?$allocator@D@2@@std@@XZ@51 
??_B?1??getClassTypeName@ResourceImageSet@MyGUI@@SAAEBV?$basic_string@DU?$char_traits@D@std@@V?$allocator@D@2@@std@@XZ@51 
??_B?1??getClassTypeName@ResourceImageSetPointer@MyGUI@@SAAEBV?$basic_string@DU?$char_traits@D@std@@V?$allocator@D@2@@std@@XZ@51 
??_B?1??getClassTypeName@ResourceLayout@MyGUI@@SAAEBV?$basic_string@DU?$char_traits@D@std@@V?$allocator@D@2@@std@@XZ@51 
??_B?1??getClassTypeName@ResourceManualFont@MyGUI@@SAAEBV?$basic_string@DU?$char_traits@D@std@@V?$allocator@D@2@@std@@XZ@51 
??_B?1??getClassTypeName@ResourceManualPointer@MyGUI@@SAAEBV?$basic_string@DU?$char_traits@D@std@@V?$allocator@D@2@@std@@XZ@51 
??_B?1??getClassTypeName@ResourceSkin@MyGUI@@SAAEBV?$basic_string@DU?$char_traits@D@std@@V?$allocator@D@2@@std@@XZ@51 
??_B?1??getClassTypeName@ResourceTrueTypeFont@MyGUI@@SAAEBV?$basic_string@DU?$char_traits@D@std@@V?$allocator@D@2@@std@@XZ@51 
??_B?1??getClassTypeName@RotatingSkin@MyGUI@@SAAEBV?$basic_string@DU?$char_traits@D@std@@V?$allocator@D@2@@std@@XZ@51 
??_B?1??getClassTypeName@RotatingSkinStateInfo@MyGUI@@SAAEBV?$basic_string@DU?$char_traits@D@std@@V?$allocator@D@2@@std@@XZ@51 
??_B?1??getClassTypeName@ScrollBar@MyGUI@@SAAEBV?$basic_string@DU?$char_traits@D@std@@V?$allocator@D@2@@std@@XZ@51 
??_B?1??getClassTypeName@ScrollView@MyGUI@@SAAEBV?$basic_string@DU?$char_traits@D@std@@V?$allocator@D@2@@std@@XZ@51 
??_B?1??getClassTypeName@SharedLayer@MyGUI@@SAAEBV?$basic_string@DU?$char_traits@D@std@@V?$allocator@D@2@@std@@XZ@51 
??_B?1??getClassTypeName@SharedLayerNode@MyGUI@@SAAEBV?$basic_string@DU?$char_traits@D@std@@V?$allocator@D@2@@std@@XZ@51 
??_B?1??getClassTypeName@SimpleText@MyGUI@@SAAEBV?$basic_string@DU?$char_traits@D@std@@V?$allocator@D@2@@std@@XZ@51 
??_B?1??getClassTypeName@Slider@MyGUI@@SAAEBV?$basic_string@DU?$char_traits@D@std@@V?$allocator@D@2@@std@@XZ@51 
??_B?1??getClassTypeName@SubSkin@MyGUI@@SAAEBV?$basic_string@DU?$char_traits@D@std@@V?$allocator@D@2@@std@@XZ@51 
??_B?1??getClassTypeName@SubSkinStateInfo@MyGUI@@SAAEBV?$basic_string@DU?$char_traits@D@std@@V?$allocator@D@2@@std@@XZ@51 
??_B?1??getClassTypeName@TabControl@MyGUI@@SAAEBV?$basic_string@DU?$char_traits@D@std@@V?$allocator@D@2@@std@@XZ@51 
??_B?1??getClassTypeName@TabItem@MyGUI@@SAAEBV?$basic_string@DU?$char_traits@D@std@@V?$allocator@D@2@@std@@XZ@51 
??_B?1??getClassTypeName@TextBox@MyGUI@@SAAEBV?$basic_string@DU?$char_traits@D@std@@V?$allocator@D@2@@std@@XZ@51 
??_B?1??getClassTypeName@TileRect@MyGUI@@SAAEBV?$basic_string@DU?$char_traits@D@std@@V?$allocator@D@2@@std@@XZ@51 
??_B?1??getClassTypeName@TileRectStateInfo@MyGUI@@SAAEBV?$basic_string@DU?$char_traits@D@std@@V?$allocator@D@2@@std@@XZ@51 
??_B?1??getClassTypeName@Widget@MyGUI@@SAAEBV?$basic_string@DU?$char_traits@D@std@@V?$allocator@D@2@@std@@XZ@51 
??_B?1??getClassTypeName@Window@MyGUI@@SAAEBV?$basic_string@DU?$char_traits@D@std@@V?$allocator@D@2@@std@@XZ@51 
??_B?1??getValueNames@Align@MyGUI@@AEBAAEBV?$map@V?$basic_string@DU?$char_traits@D@std@@V?$allocator@D@2@@std@@HU?$less@V?$basic_string@DU?$char_traits@D@std@@V?$allocator@D@2@@std@@@2@V?$allocator@U?$pair@$$CBV?$basic_string@DU?$char_traits@D@std@@V?$allocator@D@2@@std@@H@std@@@2@@std@@XZ@51 
??_FAlign@MyGUI@@QEAAXXZ 
??_FDDItemState@MyGUI@@QEAAXXZ 
??_FFlowDirection@MyGUI@@QEAAXXZ 
??_FKeyCode@MyGUI@@QEAAXXZ 
??_FMenuItemType@MyGUI@@QEAAXXZ 
??_FMouseButton@MyGUI@@QEAAXXZ 
??_FPixelFormat@MyGUI@@QEAAXXZ 
??_FResizingPolicy@MyGUI@@QEAAXXZ 
??_FTextureUsage@MyGUI@@QEAAXXZ 
??_FVersion@MyGUI@@QEAAXXZ 
??_FVertexColourType@MyGUI@@QEAAXXZ 
?AddGroupImage@ResourceImageSet@MyGUI@@QEAAXAEBUGroupImage@2@@Z 
?Black@Colour@MyGUI@@2U12@B 
?Blue@Colour@MyGUI@@2U12@B 
?Green@Colour@MyGUI@@2U12@B 
?Null@Any@MyGUI@@2UAnyEmpty@12@A 
?Red@Colour@MyGUI@@2U12@B 
?TrackMove@ScrollBar@MyGUI@@IEAAXHH@Z 
?Update@PointerManager@MyGUI@@AEAAXXZ 
?White@Colour@MyGUI@@2U12@B 
?Zero@Colour@MyGUI@@2U12@B 
?_activateItem@ListBox@MyGUI@@IEAAXPEAVWidget@2@@Z 
?_addItem@ComboBox@MyGUI@@UEAAXAEBVUString@2@@Z 
?_addItem@IItemContainer@MyGUI@@UEAAXAEBVUString@2@@Z 
?_addItem@ListBox@MyGUI@@UEAAXAEBVUString@2@@Z 
?_addItem@MenuControl@MyGUI@@UEAAXAEBVUString@2@@Z 
?_addItem@MultiListBox@MyGUI@@UEAAXAEBVUString@2@@Z 
?_addItem@TabControl@MyGUI@@UEAAXAEBVUString@2@@Z 
?_become@_base_iterator@UString@MyGUI@@IEAAXAEBV123@@Z 
?_checkAlign@ListBox@MyGUI@@QEAAXXZ 
?_checkMapping@ListBox@MyGUI@@AEAAXAEBV?$basic_string@DU?$char_traits@D@std@@V?$allocator@D@2@@std@@@Z 
?_checkMargin@ICroppedRectangle@MyGUI@@IEAA_NXZ 
?_checkOutside@ICroppedRectangle@MyGUI@@IEBA_NXZ 
?_checkPoint@Widget@MyGUI@@QEBA_NHH@Z 
?_cleanBuffer@UString@MyGUI@@AEBAXXZ 
?_cont@UString@MyGUI@@0EB 
?_cont_mask@UString@MyGUI@@0EB 
?_correctSkinItemView@SkinItem@MyGUI@@IEAAXXZ 
?_correctView@EditText@MyGUI@@UEAAXXZ 
?_correctView@ISubWidget@MyGUI@@UEAAXXZ 
?_correctView@PolygonalSkin@MyGUI@@UEAAXXZ 
?_correctView@RotatingSkin@MyGUI@@UEAAXXZ 
?_correctView@SubSkin@MyGUI@@UEAAXXZ 
?_correctView@TileRect@MyGUI@@UEAAXXZ 
?_createItemButton@TabControl@MyGUI@@IEAAXXZ 
?_createLayerObject@LayerManager@MyGUI@@AEAAPEAVILayer@2@AEBV?$basic_string@DU?$char_traits@D@std@@V?$allocator@D@2@@std@@@Z 
?_createSkinItem@SkinItem@MyGUI@@IEAAXPEAVResourceSkin@2@@Z 
?_createSkinWidget@Widget@MyGUI@@QEAAPEAV12@UWidgetStyle@2@AEBV?$basic_string@DU?$char_traits@D@std@@V?$allocator@D@2@@std@@1AEBU?$TCoord@H@types@2@UAlign@2@11@Z 
?_deleteDelayWidgets@WidgetManager@MyGUI@@QEAAXXZ 
?_deleteSkinItem@SkinItem@MyGUI@@IEAAXXZ 
?_deleteWidget@WidgetManager@MyGUI@@QEAAXPEAVWidget@2@@Z 
?_destroyAllChildWidget@Gui@MyGUI@@AEAAXXZ 
?_destroyAllChildWidget@PointerManager@MyGUI@@AEAAXXZ 
?_destroyAllChildWidget@Widget@MyGUI@@IEAAXXZ 
?_destroyChildWidget@Gui@MyGUI@@AEAAXPEAVWidget@2@@Z 
?_destroyChildWidget@PointerManager@MyGUI@@AEAAXPEAVWidget@2@@Z 
?_destroyChildWidget@Widget@MyGUI@@QEAAXPEAV12@@Z 
?_destroyTexture@Canvas@MyGUI@@IEAAX_N@Z 
?_forcePick@Widget@MyGUI@@QEAAXPEAV12@@Z 
?_getActionScale@Window@MyGUI@@AEAA?AU?$TCoord@H@types@2@PEAVWidget@2@@Z 
?_getBufferStr@UString@MyGUI@@AEBAXXZ 
?_getBufferUTF32Str@UString@MyGUI@@AEBAXXZ 
?_getBufferWStr@UString@MyGUI@@AEBAXXZ 
?_getCharacter@_base_iterator@UString@MyGUI@@IEBAIXZ 
?_getClientAbsoluteRect@ItemBox@MyGUI@@AEAA?AU?$TRect@H@types@2@XZ 
?_getClientWidget@ItemBox@MyGUI@@AEAAPEAVWidget@2@XZ 
?_getClientWidget@ListBox@MyGUI@@AEAAPEAVWidget@2@XZ 
?_getClientWidget@MenuControl@MyGUI@@AEAAPEAVWidget@2@XZ 
?_getContainer@Widget@MyGUI@@QEAAPEAV12@XZ 
?_getContainerIndex@ItemBox@MyGUI@@MEAA_KAEBU?$TPoint@H@types@2@@Z 
?_getContainerIndex@Widget@MyGUI@@MEAA_KAEBU?$TPoint@H@types@2@@Z 
?_getContentSize@MenuItem@MyGUI@@QEAA?AU?$TSize@H@types@2@XZ 
?_getImageBox@Button@MyGUI@@QEAAPEAVImageBox@2@XZ 
?_getItemAt@IItemContainer@MyGUI@@UEAAPEAVWidget@2@_K@Z 
?_getItemAt@MenuControl@MyGUI@@UEAAPEAVWidget@2@_K@Z 
?_getItemAt@MultiListBox@MyGUI@@UEAAPEAVWidget@2@_K@Z 
?_getItemAt@TabControl@MyGUI@@UEAAPEAVWidget@2@_K@Z 
?_getItemContainer@IItem@MyGUI@@UEAAPEAVIItemContainer@2@XZ 
?_getItemContainer@MenuItem@MyGUI@@UEAAPEAVIItemContainer@2@XZ 
?_getItemCount@ComboBox@MyGUI@@UEAA_KXZ 
?_getItemCount@IItemContainer@MyGUI@@UEAA_KXZ 
?_getItemCount@ListBox@MyGUI@@UEAA_KXZ 
?_getItemCount@MenuControl@MyGUI@@UEAA_KXZ 
?_getItemCount@MultiListBox@MyGUI@@UEAA_KXZ 
?_getItemCount@TabControl@MyGUI@@UEAA_KXZ 
?_getItemIndex@ItemBox@MyGUI@@MEAA_KPEAVWidget@2@@Z 
?_getItemIndex@ListBox@MyGUI@@MEAA_KPEAVWidget@2@@Z 
?_getItemIndex@Widget@MyGUI@@UEAA_KPEAV12@@Z 
?_getItemNameAt@ComboBox@MyGUI@@UEAAAEBVUString@2@_K@Z 
?_getItemNameAt@IItemContainer@MyGUI@@UEAAAEBVUString@2@_K@Z 
?_getItemNameAt@ListBox@MyGUI@@UEAAAEBVUString@2@_K@Z 
?_getItemNameAt@MenuControl@MyGUI@@UEAAAEBVUString@2@_K@Z 
?_getItemNameAt@MultiListBox@MyGUI@@UEAAAEBVUString@2@_K@Z 
?_getItemNameAt@TabControl@MyGUI@@UEAAAEBVUString@2@_K@Z 
?_getMargin@ICroppedRectangle@MyGUI@@QEBAAEBU?$TRect@H@types@2@XZ 
?_getMarginBottom@ICroppedRectangle@MyGUI@@QEBAHXZ 
?_getMarginLeft@ICroppedRectangle@MyGUI@@QEBAHXZ 
?_getMarginRight@ICroppedRectangle@MyGUI@@QEBAHXZ 
?_getMarginTop@ICroppedRectangle@MyGUI@@QEBAHXZ 
?_getMiddleLine@PolygonalSkin@MyGUI@@IEAA?AU?$TPoint@M@types@2@AEBU342@00@Z 
?_getPerpendicular@PolygonalSkin@MyGUI@@IEAA?AU?$TPoint@M@types@2@AEBU342@0@Z 
?_getRealAlpha@Widget@MyGUI@@AEBAMXZ 
?_getTextWidth@TabControl@MyGUI@@IEAAHAEBVUString@2@@Z 
?_getTextureName@SkinItem@MyGUI@@QEBAAEBV?$basic_string@DU?$char_traits@D@std@@V?$allocator@D@2@@std@@XZ 
?_getViewBottom@ICroppedRectangle@MyGUI@@QEBAHXZ 
?_getViewHeight@ICroppedRectangle@MyGUI@@QEBAHXZ 
?_getViewLeft@ICroppedRectangle@MyGUI@@QEBAHXZ 
?_getViewRight@ICroppedRectangle@MyGUI@@QEBAHXZ 
?_getViewTop@ICroppedRectangle@MyGUI@@QEBAHXZ 
?_getViewWidth@ICroppedRectangle@MyGUI@@QEBAHXZ 
?_getWidgetBar@TabControl@MyGUI@@QEAAPEAVWidget@2@XZ 
?_getWidgetTemplate@TabControl@MyGUI@@QEAAPEAVWidget@2@XZ 
?_get_index@_base_iterator@UString@MyGUI@@IEBA_KXZ 
?_init@UString@MyGUI@@AEAAXXZ 
?_initialise@Widget@MyGUI@@QEAAXUWidgetStyle@2@AEBU?$TCoord@H@types@2@AEBV?$basic_string@DU?$char_traits@D@std@@V?$allocator@D@2@@std@@PEAV12@PEAVICroppedRectangle@2@2@Z 
?_insertItem@TabControl@MyGUI@@IEAAX_KAEBVUString@2@PEAVTabItem@2@VAny@2@@Z 
?_isMargin@ICroppedRectangle@MyGUI@@QEBA_NXZ 
?_jump_to@_base_iterator@UString@MyGUI@@IEAAX_K@Z 
?_lead1@UString@MyGUI@@0EB 
?_lead1_mask@UString@MyGUI@@0EB 
?_lead2@UString@MyGUI@@0EB 
?_lead2_mask@UString@MyGUI@@0EB 
?_lead3@UString@MyGUI@@0EB 
?_lead3_mask@UString@MyGUI@@0EB 
?_lead4@UString@MyGUI@@0EB 
?_lead4_mask@UString@MyGUI@@0EB 
?_lead5@UString@MyGUI@@0EB 
?_lead5_mask@UString@MyGUI@@0EB 
?_linkChildWidget@Gui@MyGUI@@QEAAXPEAVWidget@2@@Z 
?_linkChildWidget@Widget@MyGUI@@AEAAXPEAV12@@Z 
?_load@ColourManager@MyGUI@@AEAAXPEAVElement@xml@2@AEBV?$basic_string@DU?$char_traits@D@std@@V?$allocator@D@2@@std@@VVersion@2@@Z 
?_load@FontManager@MyGUI@@AEAAXPEAVElement@xml@2@AEBV?$basic_string@DU?$char_traits@D@std@@V?$allocator@D@2@@std@@VVersion@2@@Z 
?_load@LanguageManager@MyGUI@@AEAAXPEAVElement@xml@2@AEBV?$basic_string@DU?$char_traits@D@std@@V?$allocator@D@2@@std@@VVersion@2@@Z 
?_load@LayerManager@MyGUI@@AEAAXPEAVElement@xml@2@AEBV?$basic_string@DU?$char_traits@D@std@@V?$allocator@D@2@@std@@VVersion@2@@Z 
?_load@LayoutManager@MyGUI@@AEAAXPEAVElement@xml@2@AEBV?$basic_string@DU?$char_traits@D@std@@V?$allocator@D@2@@std@@VVersion@2@@Z 
?_load@PluginManager@MyGUI@@AEAAXPEAVElement@xml@2@AEBV?$basic_string@DU?$char_traits@D@std@@V?$allocator@D@2@@std@@VVersion@2@@Z 
?_load@PointerManager@MyGUI@@AEAAXPEAVElement@xml@2@AEBV?$basic_string@DU?$char_traits@D@std@@V?$allocator@D@2@@std@@VVersion@2@@Z 
?_load@SkinManager@MyGUI@@AEAAXPEAVElement@xml@2@AEBV?$basic_string@DU?$char_traits@D@std@@V?$allocator@D@2@@std@@VVersion@2@@Z 
?_loadImplement@ResourceManager@MyGUI@@AEAA_NAEBV?$basic_string@DU?$char_traits@D@std@@V?$allocator@D@2@@std@@_N00@Z 
?_loadLanguage@LanguageManager@MyGUI@@AEAAXPEAVIDataStream@2@_N@Z 
?_loadLanguageXML@LanguageManager@MyGUI@@AEAAXPEAVIDataStream@2@_N@Z 
?_loadList@ResourceManager@MyGUI@@AEAAXPEAVElement@xml@2@AEBV?$basic_string@DU?$char_traits@D@std@@V?$allocator@D@2@@std@@VVersion@2@@Z 
?_load_buffer_UTF32@UString@MyGUI@@AEBAXXZ 
?_load_buffer_UTF8@UString@MyGUI@@AEBAXXZ 
?_load_buffer_WStr@UString@MyGUI@@AEBAXXZ 
?_moveNext@_base_iterator@UString@MyGUI@@IEAAXXZ 
?_movePrev@_base_iterator@UString@MyGUI@@IEAAXXZ 
?_notifyDeleteItem@MenuControl@MyGUI@@QEAAXPEAVMenuItem@2@@Z 
?_notifyDeleteItem@TabControl@MyGUI@@IEAAXPEAVTabItem@2@@Z 
?_notifyDeletePopup@MenuControl@MyGUI@@QEAAXPEAVMenuItem@2@@Z 
?_notifyUpdateName@MenuControl@MyGUI@@QEAAXPEAVMenuItem@2@@Z 
?_rebuildGeometry@PolygonalSkin@MyGUI@@IEAAXXZ 
?_rebuildGeometry@RotatingSkin@MyGUI@@IEAAXXZ 
?_redrawItem@ListBox@MyGUI@@IEAAX_K@Z 
?_redrawItemRange@ListBox@MyGUI@@IEAAX_K@Z 
?_removeItemAt@ComboBox@MyGUI@@UEAAX_K@Z 
?_removeItemAt@IItemContainer@MyGUI@@UEAAX_K@Z 
?_removeItemAt@ListBox@MyGUI@@UEAAX_K@Z 
?_removeItemAt@MenuControl@MyGUI@@UEAAX_K@Z 
?_removeItemAt@MultiListBox@MyGUI@@UEAAX_K@Z 
?_removeItemAt@TabControl@MyGUI@@UEAAX_K@Z 
?_resetContainer@ComboBox@MyGUI@@UEAAX_N@Z 
?_resetContainer@ItemBox@MyGUI@@UEAAX_N@Z 
?_resetContainer@ListBox@MyGUI@@UEAAX_N@Z 
?_resetContainer@Widget@MyGUI@@UEAAX_N@Z 
?_resetMouseFocusWidget@InputManager@MyGUI@@QEAAXXZ 
?_riseKeyButtonPressed@WidgetInput@MyGUI@@QEAAXUKeyCode@2@I@Z 
?_riseKeyButtonReleased@WidgetInput@MyGUI@@QEAAXUKeyCode@2@@Z 
?_riseKeyChangeRootFocus@WidgetInput@MyGUI@@QEAAX_N@Z 
?_riseKeyLostFocus@WidgetInput@MyGUI@@QEAAXPEAVWidget@2@@Z 
?_riseKeySetFocus@WidgetInput@MyGUI@@QEAAXPEAVWidget@2@@Z 
?_riseMouseButtonClick@WidgetInput@MyGUI@@QEAAXXZ 
?_riseMouseButtonDoubleClick@WidgetInput@MyGUI@@QEAAXXZ 
?_riseMouseButtonPressed@WidgetInput@MyGUI@@QEAAXHHUMouseButton@2@@Z 
?_riseMouseButtonReleased@WidgetInput@MyGUI@@QEAAXHHUMouseButton@2@@Z 
?_riseMouseChangeRootFocus@WidgetInput@MyGUI@@QEAAX_N@Z 
?_riseMouseDrag@WidgetInput@MyGUI@@QEAAXHHUMouseButton@2@@Z 
?_riseMouseLostFocus@WidgetInput@MyGUI@@QEAAXPEAVWidget@2@@Z 
?_riseMouseMove@WidgetInput@MyGUI@@QEAAXHH@Z 
?_riseMouseSetFocus@WidgetInput@MyGUI@@QEAAXPEAVWidget@2@@Z 
?_riseMouseWheel@WidgetInput@MyGUI@@QEAAXH@Z 
?_seekFwd@_base_iterator@UString@MyGUI@@IEAAX_K@Z 
?_seekRev@_base_iterator@UString@MyGUI@@IEAAX_K@Z 
?_selectIndex@ListBox@MyGUI@@IEAAX_K_N@Z 
?_sendEventChangeScroll@ListBox@MyGUI@@QEAAX_K@Z 
?_setAlign@EditText@MyGUI@@UEAAXAEBU?$TSize@H@types@2@@Z 
?_setAlign@ISubWidget@MyGUI@@UEAAXAEBU?$TSize@H@types@2@@Z 
?_setAlign@MainSkin@MyGUI@@UEAAXAEBU?$TSize@H@types@2@@Z 
?_setAlign@PolygonalSkin@MyGUI@@UEAAXAEBU?$TSize@H@types@2@@Z 
?_setAlign@RotatingSkin@MyGUI@@UEAAXAEBU?$TSize@H@types@2@@Z 
?_setAlign@SubSkin@MyGUI@@UEAAXAEBU?$TSize@H@types@2@@Z 
?_setAlign@TileRect@MyGUI@@UEAAXAEBU?$TSize@H@types@2@@Z 
?_setAlign@Widget@MyGUI@@QEAAXAEBU?$TSize@H@types@2@0@Z 
?_setCharacter@_base_iterator@UString@MyGUI@@IEAAHI@Z 
?_setColour@ISubWidgetRect@MyGUI@@UEAAXAEBUColour@2@@Z 
?_setColour@PolygonalSkin@MyGUI@@UEAAXAEBUColour@2@@Z 
?_setColour@RotatingSkin@MyGUI@@UEAAXAEBUColour@2@@Z 
?_setColour@SubSkin@MyGUI@@UEAAXAEBUColour@2@@Z 
?_setColour@TileRect@MyGUI@@UEAAXAEBUColour@2@@Z 
?_setContainer@Widget@MyGUI@@QEAAXPEAV12@@Z 
?_setContainerItemInfo@DDContainer@MyGUI@@UEAAX_K_N1@Z 
?_setContainerItemInfo@ItemBox@MyGUI@@MEAAX_K_N1@Z 
?_setCroppedParent@ICroppedRectangle@MyGUI@@QEAAXPEAV12@@Z 
?_setInternalData@UserData@MyGUI@@QEAAXVAny@2@@Z 
?_setItemChildVisibleAt@MenuControl@MyGUI@@AEAAX_K_N1@Z 
?_setItemFocus@ListBox@MyGUI@@QEAAX_K_N@Z 
?_setItemNameAt@ComboBox@MyGUI@@UEAAX_KAEBVUString@2@@Z 
?_setItemNameAt@IItemContainer@MyGUI@@UEAAX_KAEBVUString@2@@Z 
?_setItemNameAt@ListBox@MyGUI@@UEAAX_KAEBVUString@2@@Z 
?_setItemNameAt@MenuControl@MyGUI@@UEAAX_KAEBVUString@2@@Z 
?_setItemNameAt@MultiListBox@MyGUI@@UEAAX_KAEBVUString@2@@Z 
?_setItemNameAt@TabControl@MyGUI@@UEAAX_KAEBVUString@2@@Z 
?_setItemSelected@IItemContainer@MyGUI@@UEAAXPEAVIItem@2@@Z 
?_setItemSelected@MenuControl@MyGUI@@UEAAXPEAVIItem@2@@Z 
?_setMouseFocus@Button@MyGUI@@QEAAX_N@Z 
?_setRootKeyFocus@WidgetInput@MyGUI@@QEAAX_N@Z 
?_setRootMouseFocus@WidgetInput@MyGUI@@QEAAX_N@Z 
?_setScrollView@ListBox@MyGUI@@IEAAX_K@Z 
?_setSkinItemAlign@SkinItem@MyGUI@@IEAAXAEBU?$TSize@H@types@2@@Z 
?_setSkinItemAlpha@SkinItem@MyGUI@@IEAAXM@Z 
?_setSkinItemColour@SkinItem@MyGUI@@IEAAXAEBUColour@2@@Z 
?_setSkinItemState@SkinItem@MyGUI@@IEAA_NAEBV?$basic_string@DU?$char_traits@D@std@@V?$allocator@D@2@@std@@@Z 
?_setSkinItemVisible@SkinItem@MyGUI@@IEAAX_N@Z 
?_setState@Button@MyGUI@@IEAA_NAEBV?$basic_string@DU?$char_traits@D@std@@V?$allocator@D@2@@std@@@Z 
?_setSubSkinVisible@SkinItem@MyGUI@@IEAAX_N@Z 
?_setTextColour@EditBox@MyGUI@@AEAAX_K0AEBUColour@2@_N@Z 
?_setTextColour@EditText@MyGUI@@AEAAXAEBUColour@2@@Z 
?_setTextureName@SkinItem@MyGUI@@QEAAXAEBV?$basic_string@DU?$char_traits@D@std@@V?$allocator@D@2@@std@@@Z 
?_setUVSet@Canvas@MyGUI@@IEAAXAEBU?$TRect@M@types@2@@Z 
?_setUVSet@ISubWidgetRect@MyGUI@@UEAAXAEBU?$TRect@M@types@2@@Z 
?_setUVSet@ImageBox@MyGUI@@AEAAXAEBU?$TRect@M@types@2@@Z 
?_setUVSet@PolygonalSkin@MyGUI@@UEAAXAEBU?$TRect@M@types@2@@Z 
?_setUVSet@RotatingSkin@MyGUI@@UEAAXAEBU?$TRect@M@types@2@@Z 
?_setUVSet@SubSkin@MyGUI@@UEAAXAEBU?$TRect@M@types@2@@Z 
?_setUVSet@TileRect@MyGUI@@UEAAXAEBU?$TRect@M@types@2@@Z 
?_setWidgetState@Widget@MyGUI@@QEAA_NAEBV?$basic_string@DU?$char_traits@D@std@@V?$allocator@D@2@@std@@@Z 
?_showItem@TabControl@MyGUI@@IEAAXPEAVTabItem@2@_N1@Z 
?_shutdown@Widget@MyGUI@@QEAAXXZ 
?_swapColumnsAt@MultiListBox@MyGUI@@AEAAX_K0@Z 
?_test_begin@_base_iterator@UString@MyGUI@@IEBA_NXZ 
?_test_end@_base_iterator@UString@MyGUI@@IEBA_NXZ 
?_unlinkChildWidget@Gui@MyGUI@@QEAAXPEAVWidget@2@@Z 
?_unlinkChildWidget@Widget@MyGUI@@AEAAXPEAV12@@Z 
?_unlinkWidget@ControllerManager@MyGUI@@EEAAXPEAVWidget@2@@Z 
?_unlinkWidget@Gui@MyGUI@@EEAAXPEAVWidget@2@@Z 
?_unlinkWidget@InputManager@MyGUI@@EEAAXPEAVWidget@2@@Z 
?_unlinkWidget@LayerManager@MyGUI@@EEAAXPEAVWidget@2@@Z 
?_unlinkWidget@PointerManager@MyGUI@@EEAAXPEAVWidget@2@@Z 
?_unlinkWidget@ToolTipManager@MyGUI@@UEAAXPEAVWidget@2@@Z 
?_unloadDelayDynLibs@DynLibManager@MyGUI@@QEAAXXZ 
?_unwrapItem@MultiListBox@MyGUI@@AEAAXPEAVMultiListItem@2@@Z 
?_updateAbsolutePoint@Widget@MyGUI@@AEAAXXZ 
?_updateAllVisible@ItemBox@MyGUI@@IEAAX_N@Z 
?_updateAlpha@Widget@MyGUI@@AEAAXXZ 
?_updateChilds@Widget@MyGUI@@QEAAXXZ 
?_updateEnabled@Widget@MyGUI@@AEAAXXZ 
?_updateItems@MenuControl@MyGUI@@QEAAX_K@Z 
?_updateSizeForEmpty@MenuControl@MyGUI@@QEAAXXZ 
?_updateSkinItemView@SkinItem@MyGUI@@IEAAXXZ 
?_updateView@EditText@MyGUI@@UEAAXXZ 
?_updateView@ISubWidget@MyGUI@@UEAAXXZ 
?_updateView@PolygonalSkin@MyGUI@@UEAAXXZ 
?_updateView@RotatingSkin@MyGUI@@UEAAXXZ 
?_updateView@SubSkin@MyGUI@@UEAAXXZ 
?_updateView@TileRect@MyGUI@@UEAAXXZ 
?_updateView@Widget@MyGUI@@IEAAXXZ 
?_updateVisible@Widget@MyGUI@@AEAAXXZ 
?_utf16_char_length@UString@MyGUI@@SA_KG@Z 
?_utf16_char_length@UString@MyGUI@@SA_KI@Z 
?_utf16_independent_char@UString@MyGUI@@SA_NG@Z 
?_utf16_surrogate_follow@UString@MyGUI@@SA_NG@Z 
?_utf16_surrogate_lead@UString@MyGUI@@SA_NG@Z 
?_utf16_to_utf32@UString@MyGUI@@SA_KQEBGAEAI@Z 
?_utf32_to_utf16@UString@MyGUI@@SA_KAEBIQEAG@Z 
?_utf32_to_utf8@UString@MyGUI@@SA_KAEBIQEAE@Z 
?_utf8_char_length@UString@MyGUI@@SA_KE@Z 
?_utf8_char_length@UString@MyGUI@@SA_KI@Z 
?_utf8_start_char@UString@MyGUI@@SA_NE@Z 
?_utf8_to_utf32@UString@MyGUI@@SA_KQEBEAEAI@Z 
?_verifyUTF8@UString@MyGUI@@SA_KAEBV?$basic_string@DU?$char_traits@D@std@@V?$allocator@D@2@@std@@@Z 
?_verifyUTF8@UString@MyGUI@@SA_KPEBE@Z 
?_wrapItem@MenuControl@MyGUI@@AEAAXPEAVMenuItem@2@_KAEBVUString@2@UMenuItemType@2@AEBV?$basic_string@DU?$char_traits@D@std@@V?$allocator@D@2@@std@@VAny@2@@Z 
?_wrapItem@MultiListBox@MyGUI@@AEAAXPEAVMultiListItem@2@@Z 
?_wrapItemChild@MenuControl@MyGUI@@QEAAXPEAVMenuItem@2@PEAV12@@Z 
?actionWidgetDestroy@action@MyGUI@@YAXPEAVWidget@2@PEAVControllerItem@2@@Z 
?actionWidgetHide@ComboBox@MyGUI@@AEAAXPEAVWidget@2@PEAVControllerItem@2@@Z 
?actionWidgetHide@TabControl@MyGUI@@AEAAXPEAVWidget@2@PEAVControllerItem@2@@Z 
?actionWidgetHide@action@MyGUI@@YAXPEAVWidget@2@PEAVControllerItem@2@@Z 
?actionWidgetShow@action@MyGUI@@YAXPEAVWidget@2@PEAVControllerItem@2@@Z 
?add@SubWidgetBinding@MyGUI@@QEAAXAEBV?$basic_string@DU?$char_traits@D@std@@V?$allocator@D@2@@std@@PEAVIStateInfo@2@0@Z 
?addAttribute@Element@xml@MyGUI@@QEAAXAEBV?$basic_string@DU?$char_traits@D@std@@V?$allocator@D@2@@std@@0@Z 
?addChild@ResourceSkin@MyGUI@@AEAAXAEBUChildSkinInfo@2@@Z 
?addChildItem@LayerItem@MyGUI@@QEAAXPEAV12@@Z 
?addChildNode@LayerItem@MyGUI@@QEAAXPEAV12@@Z 
?addCodePoint@ResourceTrueTypeFont@MyGUI@@AEAAXI@Z 
?addCodePointRange@ResourceTrueTypeFont@MyGUI@@QEAAXII@Z 
?addColour@ColourManager@MyGUI@@QEAA_NAEBV?$basic_string@DU?$char_traits@D@std@@V?$allocator@D@2@@std@@AEBUColour@2@_N@Z 
?addColumn@MultiListBox@MyGUI@@QEAAXAEBVUString@2@HVAny@2@@Z 
?addContent@Element@xml@MyGUI@@QEAAXAEBV?$basic_string@DU?$char_traits@D@std@@V?$allocator@D@2@@std@@@Z 
?addDrawItem@RenderItem@MyGUI@@QEAAXPEAVISubWidget@2@_K@Z 
?addGlyphInfo@ResourceManualFont@MyGUI@@QEAAXIAEBUGlyphInfo@2@@Z 
?addInfo@ResourceSkin@MyGUI@@AEAAXAEBVSubWidgetBinding@2@@Z 
?addItem@ComboBox@MyGUI@@QEAAXAEBVUString@2@VAny@2@@Z 
?addItem@ControllerManager@MyGUI@@QEAAXPEAVWidget@2@PEAVControllerItem@2@@Z 
?addItem@ImageBox@MyGUI@@QEAAXAEBU?$TCoord@H@types@2@@Z 
?addItem@ItemBox@MyGUI@@QEAAXVAny@2@_N@Z 
?addItem@ListBox@MyGUI@@QEAAXAEBVUString@2@VAny@2@@Z 
?addItem@MenuControl@MyGUI@@QEAAPEAVMenuItem@2@AEBVUString@2@UMenuItemType@2@AEBV?$basic_string@DU?$char_traits@D@std@@V?$allocator@D@2@@std@@VAny@2@@Z 
?addItem@MultiListBox@MyGUI@@QEAAXAEBVUString@2@VAny@2@@Z 
?addItem@TabControl@MyGUI@@QEAAPEAVTabItem@2@AEBVUString@2@VAny@2@@Z 
?addItemFrame@ImageBox@MyGUI@@QEAAX_KAEBU?$TCoord@H@types@2@@Z 
?addItemFrameDuplicate@ImageBox@MyGUI@@QEAAX_K0@Z 
?addLoadedFont@FontManager@MyGUI@@QEAAXAEBV?$basic_string@DU?$char_traits@D@std@@V?$allocator@D@2@@std@@@Z 
?addLogListener@LogSource@MyGUI@@QEAAXPEAVILogListener@2@@Z 
?addLogSource@LogManager@MyGUI@@QEAAXPEAVLogSource@2@@Z 
?addParam@ChildSkinInfo@MyGUI@@QEAAXAEBV?$basic_string@DU?$char_traits@D@std@@V?$allocator@D@2@@std@@0@Z 
?addProperty@ResourceSkin@MyGUI@@AEAAXAEBV?$basic_string@DU?$char_traits@D@std@@V?$allocator@D@2@@std@@0@Z 
?addRenderItem@LayerItem@MyGUI@@QEAAXPEAVISubWidget@2@@Z 
?addResource@ResourceManager@MyGUI@@QEAAXPEAVIResource@2@@Z 
?addText@EditBox@MyGUI@@QEAAXAEBVUString@2@@Z 
?addTime@ControllerEdgeHide@MyGUI@@UEAA_NPEAVWidget@2@M@Z 
?addTime@ControllerFadeAlpha@MyGUI@@UEAA_NPEAVWidget@2@M@Z 
?addTime@ControllerPosition@MyGUI@@UEAA_NPEAVWidget@2@M@Z 
?addToRenderItem@LayerNode@MyGUI@@UEAAPEAVRenderItem@2@PEAVITexture@2@_N1@Z 
?addToRenderItemFirstQueue@LayerNode@MyGUI@@IEAAPEAVRenderItem@2@PEAVITexture@2@_N@Z 
?addToRenderItemSecondQueue@LayerNode@MyGUI@@IEAAPEAVRenderItem@2@PEAVITexture@2@_N@Z 
?addUserTag@LanguageManager@MyGUI@@QEAAXAEBVUString@2@0@Z 
?addUsing@SharedLayerNode@MyGUI@@QEAAXXZ 
?addWidget@Widget@MyGUI@@AEAAXPEAV12@@Z 
?addWidgetModal@InputManager@MyGUI@@QEAAXPEAVWidget@2@@Z 
?animateStop@Window@MyGUI@@IEAAXPEAVWidget@2@PEAVControllerItem@2@@Z 
?append@UString@MyGUI@@QEAAAEAV12@AEBV12@@Z 
?append@UString@MyGUI@@QEAAAEAV12@AEBV12@_K1@Z 
?append@UString@MyGUI@@QEAAAEAV12@PEBD_K@Z 
?append@UString@MyGUI@@QEAAAEAV12@PEBG@Z 
?append@UString@MyGUI@@QEAAAEAV12@PEBG_K@Z 
?append@UString@MyGUI@@QEAAAEAV12@PEB_W_K@Z 
?append@UString@MyGUI@@QEAAAEAV12@V_fwd_iterator@12@0@Z 
?append@UString@MyGUI@@QEAAAEAV12@_KD@Z 
?append@UString@MyGUI@@QEAAAEAV12@_KG@Z 
?append@UString@MyGUI@@QEAAAEAV12@_KI@Z 
?append@UString@MyGUI@@QEAAAEAV12@_K_W@Z 
?apply@ScaleManager@MyGUI@@QEBA?AU?$TCoord@H@types@2@AEBU342@@Z 
?apply@ScaleManager@MyGUI@@QEBA?AU?$TPoint@H@types@2@AEBU342@@Z 
?apply@ScaleManager@MyGUI@@QEBA?AU?$TSize@H@types@2@AEBU342@@Z 
?applyH@ScaleManager@MyGUI@@QEBAHAEBH@Z 
?applyH@ScaleManager@MyGUI@@QEBAMAEBM@Z 
?applyMin@ScaleManager@MyGUI@@QEBAMAEBM@Z 
?applyW@ScaleManager@MyGUI@@QEBAHAEBH@Z 
?asUTF32@UString@MyGUI@@QEBAAEBV?$basic_string@IU?$char_traits@I@std@@V?$allocator@I@2@@std@@XZ 
?asUTF32_c_str@UString@MyGUI@@QEBAPEBIXZ 
?asUTF8@UString@MyGUI@@QEBAAEBV?$basic_string@DU?$char_traits@D@std@@V?$allocator@D@2@@std@@XZ 
?asUTF8_c_str@UString@MyGUI@@QEBAPEBDXZ 
?asWStr@UString@MyGUI@@QEBAAEBV?$basic_string@_WU?$char_traits@_W@std@@V?$allocator@_W@2@@std@@XZ 
?asWStr_c_str@UString@MyGUI@@QEBAPEB_WXZ 
?assign@UString@MyGUI@@QEAAAEAV12@AEBV12@@Z 
?assign@UString@MyGUI@@QEAAAEAV12@AEBV12@_K1@Z 
?assign@UString@MyGUI@@QEAAAEAV12@AEBV?$basic_string@DU?$char_traits@D@std@@V?$allocator@D@2@@std@@@Z 
?assign@UString@MyGUI@@QEAAAEAV12@AEBV?$basic_string@_WU?$char_traits@_W@std@@V?$allocator@_W@2@@std@@@Z 
?assign@UString@MyGUI@@QEAAAEAV12@PEBD@Z 
?assign@UString@MyGUI@@QEAAAEAV12@PEBD_K@Z 
?assign@UString@MyGUI@@QEAAAEAV12@PEBG@Z 
?assign@UString@MyGUI@@QEAAAEAV12@PEBG_K@Z 
?assign@UString@MyGUI@@QEAAAEAV12@PEB_W@Z 
?assign@UString@MyGUI@@QEAAAEAV12@PEB_W_K@Z 
?assign@UString@MyGUI@@QEAAAEAV12@V_fwd_iterator@12@0@Z 
?assign@UString@MyGUI@@QEAAAEAV12@_KAEBG@Z 
?at@UString@MyGUI@@QEAAAEAG_K@Z 
?at@UString@MyGUI@@QEBAAEBG_K@Z 
?attachItemToNode@LayerItem@MyGUI@@UEAAXPEAVILayer@2@PEAVILayerNode@2@@Z 
?attachLayerItem@LayerNode@MyGUI@@UEAAXPEAVILayerItem@2@@Z 
?attachToLayerItemNode@LayerItem@MyGUI@@IEAAXPEAVILayerNode@2@_N@Z 
?attachToLayerNode@LayerManager@MyGUI@@QEAAXAEBV?$basic_string@DU?$char_traits@D@std@@V?$allocator@D@2@@std@@PEAVWidget@2@@Z 
?attachToWidget@Widget@MyGUI@@QEAAXPEAV12@UWidgetStyle@2@AEBV?$basic_string@DU?$char_traits@D@std@@V?$allocator@D@2@@std@@@Z 
?autoWrapGlyphPos@ResourceTrueTypeFont@MyGUI@@AEAAXHHHAEAH0@Z 
?baseCreateWidget@Gui@MyGUI@@AEAAPEAVWidget@2@UWidgetStyle@2@AEBV?$basic_string@DU?$char_traits@D@std@@V?$allocator@D@2@@std@@1AEBU?$TCoord@H@types@2@UAlign@2@11@Z 
?baseCreateWidget@PointerManager@MyGUI@@AEAAPEAVWidget@2@UWidgetStyle@2@AEBV?$basic_string@DU?$char_traits@D@std@@V?$allocator@D@2@@std@@1AEBU?$TCoord@H@types@2@UAlign@2@11@Z 
?baseCreateWidget@Widget@MyGUI@@IEAAPEAV12@UWidgetStyle@2@AEBV?$basic_string@DU?$char_traits@D@std@@V?$allocator@D@2@@std@@1AEBU?$TCoord@H@types@2@UAlign@2@11_N@Z 
?baseUpdateEnable@Button@MyGUI@@MEAAXXZ 
?baseUpdateEnable@Widget@MyGUI@@MEAAXXZ 
?begin@UString@MyGUI@@QEAA?AV_fwd_iterator@12@XZ 
?begin@UString@MyGUI@@QEBA?AV_const_fwd_iterator@12@XZ 
?beginToItem@TabControl@MyGUI@@QEAAXPEAVTabItem@2@@Z 
?beginToItemAt@ComboBox@MyGUI@@QEAAX_K@Z 
?beginToItemAt@ListBox@MyGUI@@QEAAX_K@Z 
?beginToItemAt@TabControl@MyGUI@@QEAAX_K@Z 
?beginToItemFirst@ComboBox@MyGUI@@QEAAXXZ 
?beginToItemFirst@ListBox@MyGUI@@QEAAXXZ 
?beginToItemFirst@TabControl@MyGUI@@QEAAXXZ 
?beginToItemLast@ComboBox@MyGUI@@QEAAXXZ 
?beginToItemLast@ListBox@MyGUI@@QEAAXXZ 
?beginToItemLast@TabControl@MyGUI@@QEAAXXZ 
?beginToItemSelected@ComboBox@MyGUI@@QEAAXXZ 
?beginToItemSelected@ListBox@MyGUI@@QEAAXXZ 
?beginToItemSelected@TabControl@MyGUI@@QEAAXXZ 
?c_str@UString@MyGUI@@QEBAPEBGXZ 
?calcIndexByWidget@ItemBox@MyGUI@@AEAA_KPEAVWidget@2@@Z 
?calculateListPosition@ComboBox@MyGUI@@AEAA?AU?$TCoord@H@types@2@XZ 
?capacity@UString@MyGUI@@QEBA_KXZ 
?castUnsafe@Any@MyGUI@@QEBAPEAXXZ 
?changeWidgetSkin@Widget@MyGUI@@QEAAXAEBV?$basic_string@DU?$char_traits@D@std@@V?$allocator@D@2@@std@@@Z 
?checkBasis@ResourceSkin@MyGUI@@AEAAXXZ 
?checkCreate@Canvas@MyGUI@@IEBA_NHH@Z 
?checkPair@Document@xml@MyGUI@@AEAA_NAEAV?$basic_string@DU?$char_traits@D@std@@V?$allocator@D@2@@std@@0@Z 
?checkProperty@BackwardCompatibility@MyGUI@@SA_NPEAVWidget@2@AEAV?$basic_string@DU?$char_traits@D@std@@V?$allocator@D@2@@std@@1@Z 
?checkState@ResourceSkin@MyGUI@@AEAAXAEBV?$basic_string@DU?$char_traits@D@std@@V?$allocator@D@2@@std@@@Z 
?checkState@ResourceSkin@MyGUI@@AEAAXAEBV?$map@V?$basic_string@DU?$char_traits@D@std@@V?$allocator@D@2@@std@@PEAVIStateInfo@MyGUI@@U?$less@V?$basic_string@DU?$char_traits@D@std@@V?$allocator@D@2@@std@@@2@V?$allocator@U?$pair@$$CBV?$basic_string@DU?$char_traits@D@std@@V?$allocator@D@2@@std@@PEAVIStateInfo@MyGUI@@@std@@@2@@std@@@Z 
?checkVertexSize@EditText@MyGUI@@AEAAXXZ 
?clear@Colour@MyGUI@@QEAAXXZ 
?clear@ColourManager@MyGUI@@QEAAXXZ 
?clear@ControllerManager@MyGUI@@AEAAXXZ 
?clear@Document@xml@MyGUI@@QEAAXXZ 
?clear@Element@xml@MyGUI@@QEAAXXZ 
?clear@LayerManager@MyGUI@@AEAAXXZ 
?clear@ResourceManager@MyGUI@@QEAAXXZ 
?clear@ResourceSkin@MyGUI@@AEAAXXZ 
?clear@SubWidgetBinding@MyGUI@@QEAAXXZ 
?clear@TextIterator@MyGUI@@AEAAXXZ 
?clear@UString@MyGUI@@QEAAXXZ 
?clearClipboardData@ClipboardManager@MyGUI@@QEAAXAEBV?$basic_string@DU?$char_traits@D@std@@V?$allocator@D@2@@std@@@Z 
?clearCodePoints@ResourceTrueTypeFont@MyGUI@@AEAAXXZ 
?clearColumnDataAt@MultiListBox@MyGUI@@QEAAX_K@Z 
?clearDeclaration@Document@xml@MyGUI@@AEAAXXZ 
?clearIndexSelected@ComboBox@MyGUI@@QEAAXXZ 
?clearIndexSelected@ItemBox@MyGUI@@QEAAXXZ 
?clearIndexSelected@ListBox@MyGUI@@QEAAXXZ 
?clearIndexSelected@MultiListBox@MyGUI@@QEAAXXZ 
?clearItemData@MenuControl@MyGUI@@QEAAXPEAVMenuItem@2@@Z 
?clearItemData@TabControl@MyGUI@@QEAAXPEAVTabItem@2@@Z 
?clearItemDataAt@ComboBox@MyGUI@@QEAAX_K@Z 
?clearItemDataAt@ItemBox@MyGUI@@QEAAX_K@Z 
?clearItemDataAt@ListBox@MyGUI@@QEAAX_K@Z 
?clearItemDataAt@MenuControl@MyGUI@@QEAAX_K@Z 
?clearItemDataAt@MultiListBox@MyGUI@@QEAAX_K@Z 
?clearItemDataAt@TabControl@MyGUI@@QEAAX_K@Z 
?clearLastError@Document@xml@MyGUI@@QEAAXXZ 
?clearNewLine@TextIterator@MyGUI@@QEAAXAEAVUString@2@@Z 
?clearRoot@Document@xml@MyGUI@@AEAAXXZ 
?clearSubItemDataAt@MultiListBox@MyGUI@@QEAAX_K0@Z 
?clearTagColour@TextIterator@MyGUI@@QEAAXXZ 
?clearText@TextIterator@MyGUI@@QEAAXXZ 
?clearUserString@UserData@MyGUI@@QEAA_NAEBV?$basic_string@DU?$char_traits@D@std@@V?$allocator@D@2@@std@@@Z 
?clearUserStrings@UserData@MyGUI@@QEAAXXZ 
?clearUserTags@LanguageManager@MyGUI@@QEAAXXZ 
?close@FileLogListener@MyGUI@@UEAAXXZ 
?close@ILogListener@MyGUI@@UEAAXXZ 
?close@LogManager@MyGUI@@AEAAXXZ 
?close@LogSource@MyGUI@@QEAAXXZ 
?commandCopy@EditBox@MyGUI@@AEAAXXZ 
?commandCut@EditBox@MyGUI@@AEAAXXZ 
?commandMerge@EditBox@MyGUI@@AEAAXXZ 
?commandPast@EditBox@MyGUI@@AEAAXXZ 
?commandPosition@EditBox@MyGUI@@AEAAX_K00PEAV?$vector@UTextCommandInfo@MyGUI@@V?$allocator@UTextCommandInfo@MyGUI@@@std@@@std@@@Z 
?commandRedo@EditBox@MyGUI@@AEAA_NXZ 
?commandResetHistory@EditBox@MyGUI@@AEAAXXZ 
?commandResetRedo@EditBox@MyGUI@@AEAAXXZ 
?commandUndo@EditBox@MyGUI@@AEAA_NXZ 
?compare@IDelegateUnlink@delegates@MyGUI@@QEBA_NPEAV123@@Z 
?compare@MultiListBox@MyGUI@@AEAA_NPEAVListBox@2@_K1@Z 
?compare@UString@MyGUI@@QEBAHAEBV12@@Z 
?compare@UString@MyGUI@@QEBAHPEBG@Z 
?compare@UString@MyGUI@@QEBAH_K0AEBV12@00@Z 
?compare@UString@MyGUI@@QEBAH_K0AEBV12@@Z 
?compare@UString@MyGUI@@QEBAH_K0PEBD0@Z 
?compare@UString@MyGUI@@QEBAH_K0PEBG0@Z 
?compare@UString@MyGUI@@QEBAH_K0PEB_W0@Z 
?convertFromRelative@CoordConverter@MyGUI@@SA?AU?$TCoord@H@types@2@AEBU?$TCoord@M@42@AEBU?$TSize@H@42@@Z 
?convertFromRelative@CoordConverter@MyGUI@@SA?AU?$TPoint@H@types@2@AEBU?$TPoint@M@42@AEBU?$TSize@H@42@@Z 
?convertFromRelative@CoordConverter@MyGUI@@SA?AU?$TSize@H@types@2@AEBU?$TSize@M@42@AEBU342@@Z 
?convertTagColour@TextIterator@MyGUI@@SA?AVUString@2@AEBUColour@2@@Z 
?convertTextureCoord@CoordConverter@MyGUI@@SA?AU?$TRect@M@types@2@AEBU?$TCoord@H@42@AEBU?$TSize@H@42@@Z 
?convertToBack@BiIndexBase@MyGUI@@IEBA_K_K@Z 
?convertToFace@BiIndexBase@MyGUI@@IEBA_K_K@Z 
?convertToRelative@CoordConverter@MyGUI@@SA?AU?$TCoord@M@types@2@AEBU?$TCoord@H@42@AEBU?$TSize@H@42@@Z 
?convertToRelative@CoordConverter@MyGUI@@SA?AU?$TPoint@M@types@2@AEBU?$TPoint@H@42@AEBU?$TSize@H@42@@Z 
?convertToRelative@CoordConverter@MyGUI@@SA?AU?$TSize@M@types@2@AEBU?$TSize@H@42@0@Z 
?correctUV@Canvas@MyGUI@@IEAAXXZ 
?countUsing@SharedLayerNode@MyGUI@@QEBA_KXZ 
?create@SubWidgetBinding@MyGUI@@QEAAXAEBU?$TCoord@H@types@2@UAlign@2@AEBV?$basic_string@DU?$char_traits@D@std@@V?$allocator@D@2@@std@@@Z 
?createButton@TabControl@MyGUI@@AEAAPEAVButton@2@XZ 
?createChild@Element@xml@MyGUI@@QEAAPEAV123@AEBV?$basic_string@DU?$char_traits@D@std@@V?$allocator@D@2@@std@@0UElementType@23@@Z 
?createChildItemNode@LayerNode@MyGUI@@UEAAPEAVILayerNode@2@XZ 
?createChildItemNode@OverlappedLayer@MyGUI@@UEAAPEAVILayerNode@2@XZ 
?createChildItemNode@SharedLayer@MyGUI@@UEAAPEAVILayerNode@2@XZ 
?createControllerFadeAlpha@ComboBox@MyGUI@@AEAAPEAVControllerFadeAlpha@2@MM_N@Z 
?createControllerFadeAlpha@MenuControl@MyGUI@@AEAAPEAVControllerFadeAlpha@2@MM_N@Z 
?createControllerFadeAlpha@TabControl@MyGUI@@AEAAPEAVControllerFadeAlpha@2@MM_N@Z 
?createControllerFadeAlpha@Window@MyGUI@@AEAAPEAVControllerFadeAlpha@2@MM_N@Z 
?createCopy@Element@xml@MyGUI@@QEAAPEAV123@XZ 
?createDeclaration@Document@xml@MyGUI@@QEAAPEAVElement@23@AEBV?$basic_string@DU?$char_traits@D@std@@V?$allocator@D@2@@std@@0@Z 
?createDefault@SkinManager@MyGUI@@AEAAXAEBV?$basic_string@DU?$char_traits@D@std@@V?$allocator@D@2@@std@@@Z 
?createDefaultSource@LogManager@MyGUI@@QEAAXAEBV?$basic_string@DU?$char_traits@D@std@@V?$allocator@D@2@@std@@@Z 
?createDrawItem@EditText@MyGUI@@UEAAXPEAVITexture@2@PEAVILayerNode@2@@Z 
?createDrawItem@PolygonalSkin@MyGUI@@UEAAXPEAVITexture@2@PEAVILayerNode@2@@Z 
?createDrawItem@RotatingSkin@MyGUI@@UEAAXPEAVITexture@2@PEAVILayerNode@2@@Z 
?createDrawItem@SubSkin@MyGUI@@UEAAXPEAVITexture@2@PEAVILayerNode@2@@Z 
?createDrawItem@TileRect@MyGUI@@UEAAXPEAVITexture@2@PEAVILayerNode@2@@Z 
?createExactTexture@Canvas@MyGUI@@IEAAXHHUTextureUsage@2@UPixelFormat@2@@Z 
?createFaceGlyph@ResourceTrueTypeFont@MyGUI@@AEAAHIIHAEBQEAUFT_FaceRec_@@HAEAV?$map@JV?$map@IPEAUGlyphInfo@MyGUI@@U?$less@I@std@@V?$allocator@U?$pair@$$CBIPEAUGlyphInfo@MyGUI@@@std@@@4@@std@@U?$less@J@2@V?$allocator@U?$pair@$$CBJV?$map@IPEAUGlyphInfo@MyGUI@@U?$less@I@std@@V?$allocator@U?$pair@$$CBIPEAUGlyphInfo@MyGUI@@@std@@@4@@std@@@std@@@2@@std@@@Z 
?createFaceGlyphInfo@ResourceTrueTypeFont@MyGUI@@AEAA?AUGlyphInfo@2@IHPEAUFT_GlyphSlotRec_@@@Z 
?createGlyph@ResourceTrueTypeFont@MyGUI@@AEAAHIAEBUGlyphInfo@2@AEAV?$map@JV?$map@IPEAUGlyphInfo@MyGUI@@U?$less@I@std@@V?$allocator@U?$pair@$$CBIPEAUGlyphInfo@MyGUI@@@std@@@4@@std@@U?$less@J@2@V?$allocator@U?$pair@$$CBJV?$map@IPEAUGlyphInfo@MyGUI@@U?$less@I@std@@V?$allocator@U?$pair@$$CBIPEAUGlyphInfo@MyGUI@@@std@@@4@@std@@@std@@@2@@std@@@Z 
?createItem@ControllerManager@MyGUI@@QEAAPEAVControllerItem@2@AEBV?$basic_string@DU?$char_traits@D@std@@V?$allocator@D@2@@std@@@Z 
?createItemChild@MenuControl@MyGUI@@QEAAPEAV12@PEAVMenuItem@2@@Z 
?createItemChild@MenuItem@MyGUI@@QEAAPEAVMenuControl@2@XZ 
?createItemChildAt@MenuControl@MyGUI@@QEAAPEAV12@_K@Z 
?createItemChildByType@MenuControl@MyGUI@@AEAAPEAVWidget@2@_KAEBV?$basic_string@DU?$char_traits@D@std@@V?$allocator@D@2@@std@@@Z 
?createLayerAt@LayerManager@MyGUI@@QEAAPEAVILayer@2@AEBV?$basic_string@DU?$char_traits@D@std@@V?$allocator@D@2@@std@@0_K@Z 
?createLayout@ResourceLayout@MyGUI@@QEAA?AV?$vector@PEAVWidget@MyGUI@@V?$allocator@PEAVWidget@MyGUI@@@std@@@std@@AEBV?$basic_string@DU?$char_traits@D@std@@V?$allocator@D@2@@4@PEAVWidget@2@@Z 
?createObject@FactoryManager@MyGUI@@QEAAPEAVIObject@2@AEBV?$basic_string@DU?$char_traits@D@std@@V?$allocator@D@2@@std@@0@Z 
?createRoot@Document@xml@MyGUI@@QEAAPEAVElement@23@AEBV?$basic_string@DU?$char_traits@D@std@@V?$allocator@D@2@@std@@@Z 
?createTexture@Canvas@MyGUI@@QEAAXAEBU?$TSize@H@types@2@W4TextureResizeMode@12@UTextureUsage@2@UPixelFormat@2@@Z 
?createTexture@Canvas@MyGUI@@QEAAXHHW4TextureResizeMode@12@UTextureUsage@2@UPixelFormat@2@@Z 
?createTexture@Canvas@MyGUI@@QEAAXW4TextureResizeMode@12@UTextureUsage@2@UPixelFormat@2@@Z 
?createWidget@ResourceLayout@MyGUI@@QEAAPEAVWidget@2@AEBUWidgetInfo@2@AEBV?$basic_string@DU?$char_traits@D@std@@V?$allocator@D@2@@std@@PEAV32@_N@Z 
?createWidget@WidgetManager@MyGUI@@QEAAPEAVWidget@2@UWidgetStyle@2@AEBV?$basic_string@DU?$char_traits@D@std@@V?$allocator@D@2@@std@@1AEBU?$TCoord@H@types@2@PEAV32@PEAVICroppedRectangle@2@1@Z 
?createWidgetRealT@Gui@MyGUI@@QEAAPEAVWidget@2@AEBV?$basic_string@DU?$char_traits@D@std@@V?$allocator@D@2@@std@@0AEBU?$TCoord@M@types@2@UAlign@2@00@Z 
?createWidgetRealT@Gui@MyGUI@@QEAAPEAVWidget@2@AEBV?$basic_string@DU?$char_traits@D@std@@V?$allocator@D@2@@std@@0MMMMUAlign@2@00@Z 
?createWidgetRealT@Widget@MyGUI@@QEAAPEAV12@AEBV?$basic_string@DU?$char_traits@D@std@@V?$allocator@D@2@@std@@0AEBU?$TCoord@M@types@2@UAlign@2@0@Z 
?createWidgetRealT@Widget@MyGUI@@QEAAPEAV12@AEBV?$basic_string@DU?$char_traits@D@std@@V?$allocator@D@2@@std@@0MMMMUAlign@2@0@Z 
?createWidgetT@Gui@MyGUI@@QEAAPEAVWidget@2@AEBV?$basic_string@DU?$char_traits@D@std@@V?$allocator@D@2@@std@@0AEBU?$TCoord@H@types@2@UAlign@2@00@Z 
?createWidgetT@Gui@MyGUI@@QEAAPEAVWidget@2@AEBV?$basic_string@DU?$char_traits@D@std@@V?$allocator@D@2@@std@@0HHHHUAlign@2@00@Z 
?createWidgetT@Widget@MyGUI@@QEAAPEAV12@AEBV?$basic_string@DU?$char_traits@D@std@@V?$allocator@D@2@@std@@0AEBU?$TCoord@H@types@2@UAlign@2@0@Z 
?createWidgetT@Widget@MyGUI@@QEAAPEAV12@AEBV?$basic_string@DU?$char_traits@D@std@@V?$allocator@D@2@@std@@0HHHHUAlign@2@0@Z 
?createWidgetT@Widget@MyGUI@@QEAAPEAV12@UWidgetStyle@2@AEBV?$basic_string@DU?$char_traits@D@std@@V?$allocator@D@2@@std@@1AEBU?$TCoord@H@types@2@UAlign@2@11@Z 
?current@ElementEnumerator@xml@MyGUI@@QEAAPEAVElement@23@XZ 
?cutMaxLength@TextIterator@MyGUI@@QEAAX_K@Z 
?cutMaxLengthFromBeginning@TextIterator@MyGUI@@QEAAX_K@Z 
?data@UString@MyGUI@@QEBAPEBGXZ 
?deleteAllItemFrames@ImageBox@MyGUI@@QEAAX_K@Z 
?deleteAllItems@ImageBox@MyGUI@@QEAAXXZ 
?deleteItem@ImageBox@MyGUI@@QEAAX_K@Z 
?deleteItemFrame@ImageBox@MyGUI@@QEAAX_K0@Z 
?deleteTextSelect@EditBox@MyGUI@@AEAA_N_N@Z 
?deleteTextSelection@EditBox@MyGUI@@QEAAXXZ 
?deserialization@EditTextStateInfo@MyGUI@@EEAAXPEAVElement@xml@2@VVersion@2@@Z 
?deserialization@IResource@MyGUI@@MEAAXPEAVElement@xml@2@VVersion@2@@Z 
?deserialization@ISerializable@MyGUI@@UEAAXPEAVElement@xml@2@VVersion@2@@Z 
?deserialization@OverlappedLayer@MyGUI@@UEAAXPEAVElement@xml@2@VVersion@2@@Z 
?deserialization@ResourceImageSet@MyGUI@@EEAAXPEAVElement@xml@2@VVersion@2@@Z 
?deserialization@ResourceImageSetPointer@MyGUI@@UEAAXPEAVElement@xml@2@VVersion@2@@Z 
?deserialization@ResourceLayout@MyGUI@@UEAAXPEAVElement@xml@2@VVersion@2@@Z 
?deserialization@ResourceManualFont@MyGUI@@UEAAXPEAVElement@xml@2@VVersion@2@@Z 
?deserialization@ResourceManualPointer@MyGUI@@UEAAXPEAVElement@xml@2@VVersion@2@@Z 
?deserialization@ResourceSkin@MyGUI@@UEAAXPEAVElement@xml@2@VVersion@2@@Z 
?deserialization@ResourceTrueTypeFont@MyGUI@@UEAAXPEAVElement@xml@2@VVersion@2@@Z 
?deserialization@RotatingSkinStateInfo@MyGUI@@EEAAXPEAVElement@xml@2@VVersion@2@@Z 
?deserialization@SharedLayer@MyGUI@@UEAAXPEAVElement@xml@2@VVersion@2@@Z 
?deserialization@SubSkinStateInfo@MyGUI@@EEAAXPEAVElement@xml@2@VVersion@2@@Z 
?deserialization@TileRectStateInfo@MyGUI@@EEAAXPEAVElement@xml@2@VVersion@2@@Z 
?destroy@LayerManager@MyGUI@@AEAAXPEAVILayer@2@@Z 
?destroyAllChildWidget@Gui@MyGUI@@QEAAXXZ 
?destroyChildItemNode@LayerNode@MyGUI@@UEAAXPEAVILayerNode@2@@Z 
?destroyChildItemNode@OverlappedLayer@MyGUI@@UEAAXPEAVILayerNode@2@@Z 
?destroyChildItemNode@SharedLayer@MyGUI@@UEAAXPEAVILayerNode@2@@Z 
?destroyChildWidget@Gui@MyGUI@@QEAAXPEAVWidget@2@@Z 
?destroyDrawItem@EditText@MyGUI@@UEAAXXZ 
?destroyDrawItem@PolygonalSkin@MyGUI@@UEAAXXZ 
?destroyDrawItem@RotatingSkin@MyGUI@@UEAAXXZ 
?destroyDrawItem@SubSkin@MyGUI@@UEAAXXZ 
?destroyDrawItem@TileRect@MyGUI@@UEAAXXZ 
?destroyObject@FactoryManager@MyGUI@@QEAAXPEAVIObject@2@@Z 
?destroySkinWidget@Widget@MyGUI@@IEAAXPEAV12@@Z 
?destroySmooth@Window@MyGUI@@QEAAXXZ 
?destroyTexture@Canvas@MyGUI@@QEAAXXZ 
?destroyWidget@Gui@MyGUI@@QEAAXPEAVWidget@2@@Z 
?destroyWidget@WidgetManager@MyGUI@@QEAAXPEAVWidget@2@@Z 
?destroyWidgets@Gui@MyGUI@@QEAAXAEAV?$Enumerator@V?$vector@PEAVWidget@MyGUI@@V?$allocator@PEAVWidget@MyGUI@@@std@@@std@@@2@@Z 
?destroyWidgets@Gui@MyGUI@@QEAAXAEBV?$vector@PEAVWidget@MyGUI@@V?$allocator@PEAVWidget@MyGUI@@@std@@@std@@@Z 
?destroyWidgets@WidgetManager@MyGUI@@QEAAXAEBV?$vector@PEAVWidget@MyGUI@@V?$allocator@PEAVWidget@MyGUI@@@std@@@std@@@Z 
?destroyWidgets@WidgetManager@MyGUI@@QEAAXV?$Enumerator@V?$vector@PEAVWidget@MyGUI@@V?$allocator@PEAVWidget@MyGUI@@@std@@@std@@@2@@Z 
?detachFromLayer@LayerItem@MyGUI@@UEAAXXZ 
?detachFromLayer@LayerManager@MyGUI@@QEAAXPEAVWidget@2@@Z 
?detachFromLayerItemNode@LayerItem@MyGUI@@IEAAX_N@Z 
?detachFromWidget@Widget@MyGUI@@QEAAXAEBV?$basic_string@DU?$char_traits@D@std@@V?$allocator@D@2@@std@@@Z 
?detachLayerItem@LayerNode@MyGUI@@UEAAXPEAVILayerItem@2@@Z 
?doManualRender@ISubWidget@MyGUI@@UEAAXPEAVIVertexBuffer@2@PEAVITexture@2@_K@Z 
?doRender@EditText@MyGUI@@UEAAXXZ 
?doRender@PolygonalSkin@MyGUI@@UEAAXXZ 
?doRender@RotatingSkin@MyGUI@@UEAAXXZ 
?doRender@SimpleText@MyGUI@@UEAAXXZ 
?doRender@SubSkin@MyGUI@@UEAAXXZ 
?doRender@TileRect@MyGUI@@UEAAXXZ 
?drawGlyph@EditText@MyGUI@@AEBAXAEBURenderTargetInfo@2@AEAPEAUVertex@2@AEA_KU?$TRect@M@types@2@3I@Z 
?drawQuad@EditText@MyGUI@@AEBAXAEAPEAUVertex@2@AEA_KAEBU?$TRect@M@types@2@M2I@Z 
?dynlibError@DynLib@MyGUI@@IEBA?AV?$basic_string@DU?$char_traits@D@std@@V?$allocator@D@2@@std@@XZ 
?empty@Any@MyGUI@@QEBA_NXZ 
?empty@MaskPickInfo@MyGUI@@QEBA_NXZ 
?empty@UString@MyGUI@@QEBA_NXZ 
?end@UString@MyGUI@@QEAA?AV_fwd_iterator@12@XZ 
?end@UString@MyGUI@@QEBA?AV_const_fwd_iterator@12@XZ 
?endDrop@DDContainer@MyGUI@@IEAAX_N@Z 
?eof@DataMemoryStream@MyGUI@@UEAA_NXZ 
?eof@DataStream@MyGUI@@UEAA_NXZ 
?erase@TextIterator@MyGUI@@AEAA?AV_fwd_iterator@UString@2@V342@0@Z 
?erase@UString@MyGUI@@QEAA?AV_fwd_iterator@12@V312@0@Z 
?erase@UString@MyGUI@@QEAA?AV_fwd_iterator@12@V312@@Z 
?erase@UString@MyGUI@@QEAAAEAV12@_K0@Z 
?eraseContent@ItemBox@MyGUI@@EEAAXXZ 
?eraseContent@ScrollViewBase@MyGUI@@MEAAXXZ 
?eraseFromStart@TextIterator@MyGUI@@QEAA_NXZ 
?eraseText@EditBox@MyGUI@@AEAAX_K0_N@Z 
?eraseText@EditBox@MyGUI@@QEAAX_K0@Z 
?eraseView@EditBox@MyGUI@@IEAAXXZ 
?fillState@ResourceSkin@MyGUI@@AEAAXAEBV?$map@V?$basic_string@DU?$char_traits@D@std@@V?$allocator@D@2@@std@@PEAVIStateInfo@MyGUI@@U?$less@V?$basic_string@DU?$char_traits@D@std@@V?$allocator@D@2@@std@@@2@V?$allocator@U?$pair@$$CBV?$basic_string@DU?$char_traits@D@std@@V?$allocator@D@2@@std@@PEAVIStateInfo@MyGUI@@@std@@@2@@std@@_K@Z 
?find@Document@xml@MyGUI@@AEAA_KAEBV?$basic_string@DU?$char_traits@D@std@@V?$allocator@D@2@@std@@D_K@Z 
?find@UString@MyGUI@@QEBA_KAEBV12@_K@Z 
?find@UString@MyGUI@@QEBA_KD_K@Z 
?find@UString@MyGUI@@QEBA_KG_K@Z 
?find@UString@MyGUI@@QEBA_KI_K@Z 
?find@UString@MyGUI@@QEBA_KPEBD_K1@Z 
?find@UString@MyGUI@@QEBA_KPEBG_K1@Z 
?find@UString@MyGUI@@QEBA_KPEB_W_K1@Z 
?find@UString@MyGUI@@QEBA_K_W_K@Z 
?findAttribute@Element@xml@MyGUI@@QEAA?AV?$basic_string@DU?$char_traits@D@std@@V?$allocator@D@2@@std@@AEBV45@@Z 
?findAttribute@Element@xml@MyGUI@@QEAA_NAEBV?$basic_string@DU?$char_traits@D@std@@V?$allocator@D@2@@std@@AEAV45@@Z 
?findByName@ResourceManager@MyGUI@@QEBAPEAVIResource@2@AEBV?$basic_string@DU?$char_traits@D@std@@V?$allocator@D@2@@std@@@Z 
?findCurrentActiveItem@ItemBox@MyGUI@@IEAAXXZ 
?findItemById@MenuControl@MyGUI@@QEAAPEAVMenuItem@2@AEBV?$basic_string@DU?$char_traits@D@std@@V?$allocator@D@2@@std@@_N@Z 
?findItemIndex@MenuControl@MyGUI@@QEAA_KPEAVMenuItem@2@@Z 
?findItemIndex@TabControl@MyGUI@@QEAA_KPEAVTabItem@2@@Z 
?findItemIndexWith@ComboBox@MyGUI@@QEAA_KAEBVUString@2@@Z 
?findItemIndexWith@ListBox@MyGUI@@QEAA_KAEBVUString@2@@Z 
?findItemIndexWith@MenuControl@MyGUI@@QEAA_KAEBVUString@2@@Z 
?findItemIndexWith@TabControl@MyGUI@@QEAA_KAEBVUString@2@@Z 
?findItemWith@MenuControl@MyGUI@@QEAAPEAVMenuItem@2@AEBVUString@2@@Z 
?findItemWith@TabControl@MyGUI@@QEAAPEAVTabItem@2@AEBVUString@2@@Z 
?findSubItemWith@MultiListBox@MyGUI@@QEAA_K_KAEBVUString@2@@Z 
?findWidget@Widget@MyGUI@@QEAAPEAV12@AEBV?$basic_string@DU?$char_traits@D@std@@V?$allocator@D@2@@std@@@Z 
?findWidgetT@Gui@MyGUI@@QEAAPEAVWidget@2@AEBV?$basic_string@DU?$char_traits@D@std@@V?$allocator@D@2@@std@@0_N@Z 
?findWidgetT@Gui@MyGUI@@QEAAPEAVWidget@2@AEBV?$basic_string@DU?$char_traits@D@std@@V?$allocator@D@2@@std@@_N@Z 
?findWidgets@Widget@MyGUI@@QEAAXAEBV?$basic_string@DU?$char_traits@D@std@@V?$allocator@D@2@@std@@AEAV?$vector@PEAVWidget@MyGUI@@V?$allocator@PEAVWidget@MyGUI@@@std@@@4@@Z 
?find_first_not_of@UString@MyGUI@@QEBA_KAEBV12@_K1@Z 
?find_first_not_of@UString@MyGUI@@QEBA_KD_K@Z 
?find_first_not_of@UString@MyGUI@@QEBA_KG_K@Z 
?find_first_not_of@UString@MyGUI@@QEBA_KI_K@Z 
?find_first_not_of@UString@MyGUI@@QEBA_K_W_K@Z 
?find_first_of@UString@MyGUI@@QEBA_KAEBV12@_K1@Z 
?find_first_of@UString@MyGUI@@QEBA_KD_K@Z 
?find_first_of@UString@MyGUI@@QEBA_KG_K@Z 
?find_first_of@UString@MyGUI@@QEBA_KI_K@Z 
?find_first_of@UString@MyGUI@@QEBA_K_W_K@Z 
?find_last_not_of@UString@MyGUI@@QEBA_KAEBV12@_K1@Z 
?find_last_not_of@UString@MyGUI@@QEBA_KD_K@Z 
?find_last_not_of@UString@MyGUI@@QEBA_KG_K@Z 
?find_last_not_of@UString@MyGUI@@QEBA_KI_K@Z 
?find_last_not_of@UString@MyGUI@@QEBA_K_W_K@Z 
?find_last_of@UString@MyGUI@@QEBA_KAEBV12@_K1@Z 
?find_last_of@UString@MyGUI@@QEBA_KD_K@Z 
?find_last_of@UString@MyGUI@@QEBA_KG_K@Z 
?find_last_of@UString@MyGUI@@QEBA_KI_K@Z 
?find_last_of@UString@MyGUI@@QEBA_K_W_K@Z 
?firstEncoding@InputManager@MyGUI@@AEAAXUKeyCode@2@_N@Z 
?flipList@MultiListBox@MyGUI@@AEAAXXZ 
?flush@FileLogListener@MyGUI@@UEAAXXZ 
?flush@ILogListener@MyGUI@@UEAAXXZ 
?flush@LogManager@MyGUI@@QEAAXXZ 
?flush@LogSource@MyGUI@@QEAAXXZ 
?frameAdvise@Canvas@MyGUI@@IEAAX_N@Z 
?frameAdvise@ImageBox@MyGUI@@AEAAX_N@Z 
?frameAdvise@MultiListBox@MyGUI@@AEAAX_N@Z 
?frameEntered@Canvas@MyGUI@@IEAAXM@Z 
?frameEntered@ControllerManager@MyGUI@@AEAAXM@Z 
?frameEntered@EditBox@MyGUI@@AEAAXM@Z 
?frameEntered@ImageBox@MyGUI@@AEAAXM@Z 
?frameEntered@InputManager@MyGUI@@AEAAXM@Z 
?frameEntered@MultiListBox@MyGUI@@AEAAXM@Z 
?frameEntered@ProgressBar@MyGUI@@AEAAXM@Z 
?frameEvent@Gui@MyGUI@@QEAAXM@Z 
?getAbsoluteCoord@ICroppedRectangle@MyGUI@@QEBA?AU?$TCoord@H@types@2@XZ 
?getAbsoluteLeft@ICroppedRectangle@MyGUI@@QEBAHXZ 
?getAbsolutePosition@ICroppedRectangle@MyGUI@@QEBAAEBU?$TPoint@H@types@2@XZ 
?getAbsoluteRect@ICroppedRectangle@MyGUI@@QEBA?AU?$TRect@H@types@2@XZ 
?getAbsoluteTop@ICroppedRectangle@MyGUI@@QEBAHXZ 
?getActionScale@Window@MyGUI@@QEBAAEBU?$TCoord@H@types@2@XZ 
?getAlign@Widget@MyGUI@@QEBA?AUAlign@2@XZ 
?getAlpha@EditText@MyGUI@@QEBAMXZ 
?getAlpha@Widget@MyGUI@@QEBAMXZ 
?getAlphaVisible@Window@MyGUI@@AEBAMXZ 
?getAngle@RotatingSkin@MyGUI@@QEBAMXZ 
?getAngle@RotatingSkinStateInfo@MyGUI@@QEBAMXZ 
?getAttributes@Element@xml@MyGUI@@QEBAAEBV?$vector@U?$pair@V?$basic_string@DU?$char_traits@D@std@@V?$allocator@D@2@@std@@V12@@std@@V?$allocator@U?$pair@V?$basic_string@DU?$char_traits@D@std@@V?$allocator@D@2@@std@@V12@@std@@@2@@std@@XZ 
?getAutoAlpha@Window@MyGUI@@QEBA_NXZ 
?getBasisInfo@ResourceSkin@MyGUI@@QEBAAEBV?$vector@USubWidgetInfo@MyGUI@@V?$allocator@USubWidgetInfo@MyGUI@@@std@@@std@@XZ 
?getBottom@ICroppedRectangle@MyGUI@@QEBAHXZ 
?getButton@TabControl@MyGUI@@AEAAPEAVButton@2@PEAVTabItem@2@@Z 
?getButton@TabItem@MyGUI@@QEAAPEAVButton@2@XZ 
?getButtonAutoWidth@TabControl@MyGUI@@QEBA_NXZ 
?getButtonDefaultWidth@TabControl@MyGUI@@QEBAHXZ 
?getButtonHeight@MultiListBox@MyGUI@@AEBAHXZ 
?getButtonWidth@TabControl@MyGUI@@QEAAHPEAVTabItem@2@@Z 
?getButtonWidthAt@TabControl@MyGUI@@QEAAH_K@Z 
?getByName@FontManager@MyGUI@@QEBAPEAVIFont@2@AEBV?$basic_string@DU?$char_traits@D@std@@V?$allocator@D@2@@std@@@Z 
?getByName@LayerManager@MyGUI@@QEBAPEAVILayer@2@AEBV?$basic_string@DU?$char_traits@D@std@@V?$allocator@D@2@@std@@_N@Z 
?getByName@LayoutManager@MyGUI@@QEBAPEAVResourceLayout@2@AEBV?$basic_string@DU?$char_traits@D@std@@V?$allocator@D@2@@std@@_N@Z 
?getByName@PointerManager@MyGUI@@QEBAPEAVIPointer@2@AEBV?$basic_string@DU?$char_traits@D@std@@V?$allocator@D@2@@std@@@Z 
?getByName@ResourceManager@MyGUI@@QEBAPEAVIResource@2@AEBV?$basic_string@DU?$char_traits@D@std@@V?$allocator@D@2@@std@@_N@Z 
?getByName@SkinManager@MyGUI@@QEBAPEAVResourceSkin@2@AEBV?$basic_string@DU?$char_traits@D@std@@V?$allocator@D@2@@std@@@Z 
?getCanvasAlign@ScrollView@MyGUI@@QEBA?AUAlign@2@XZ 
?getCanvasSize@ScrollView@MyGUI@@QEAA?AU?$TSize@H@types@2@XZ 
?getCaption@EditBox@MyGUI@@UEAAAEBVUString@2@XZ 
?getCaption@EditText@MyGUI@@UEBAAEBVUString@2@XZ 
?getCaption@ISubWidgetText@MyGUI@@UEBAAEBVUString@2@XZ 
?getCaption@ListScrollBar@MyGUI@@QEAAAEBVUString@2@XZ 
?getCaption@MultiListItem@MyGUI@@UEAAAEBVUString@2@XZ 
?getCaption@MultiSlider@MyGUI@@QEAAAEBVUString@2@XZ 
?getCaption@Slider@MyGUI@@QEAAAEBVUString@2@XZ 
?getCaption@TabItem@MyGUI@@UEAAAEBVUString@2@XZ 
?getCaption@TextBox@MyGUI@@UEAAAEBVUString@2@XZ 
?getCaption@Window@MyGUI@@UEAAAEBVUString@2@XZ 
?getCaptionWidget@Window@MyGUI@@QEAAPEAVTextBox@2@XZ 
?getCategoryName@ControllerManager@MyGUI@@QEBAAEBV?$basic_string@DU?$char_traits@D@std@@V?$allocator@D@2@@std@@XZ 
?getCategoryName@LayerManager@MyGUI@@QEBAAEBV?$basic_string@DU?$char_traits@D@std@@V?$allocator@D@2@@std@@XZ 
?getCategoryName@ResourceManager@MyGUI@@QEBAAEBV?$basic_string@DU?$char_traits@D@std@@V?$allocator@D@2@@std@@XZ 
?getCategoryName@SubWidgetManager@MyGUI@@QEBAAEBV?$basic_string@DU?$char_traits@D@std@@V?$allocator@D@2@@std@@XZ 
?getCategoryName@WidgetManager@MyGUI@@QEBAAEBV?$basic_string@DU?$char_traits@D@std@@V?$allocator@D@2@@std@@XZ 
?getCenter@RotatingSkin@MyGUI@@QEBA?AU?$TPoint@H@types@2@_N@Z 
?getCenter@RotatingSkinStateInfo@MyGUI@@QEBAAEBU?$TPoint@H@types@2@XZ 
?getChar@UString@MyGUI@@QEBAI_K@Z 
?getCharacter@_const_fwd_iterator@UString@MyGUI@@QEBAIXZ 
?getCharacter@_fwd_iterator@UString@MyGUI@@QEBAIXZ 
?getChild@ResourceSkin@MyGUI@@QEBAAEBV?$vector@UChildSkinInfo@MyGUI@@V?$allocator@UChildSkinInfo@MyGUI@@@std@@@std@@XZ 
?getChildAt@Widget@MyGUI@@QEAAPEAV12@_K@Z 
?getChildCount@Widget@MyGUI@@QEAA_KXZ 
?getClassTypeName@?$Singleton@VClipboardManager@MyGUI@@@MyGUI@@SAPEBDXZ 
?getClassTypeName@?$Singleton@VColourManager@MyGUI@@@MyGUI@@SAPEBDXZ 
?getClassTypeName@?$Singleton@VControllerManager@MyGUI@@@MyGUI@@SAPEBDXZ 
?getClassTypeName@?$Singleton@VDataManager@MyGUI@@@MyGUI@@SAPEBDXZ 
?getClassTypeName@?$Singleton@VDynLibManager@MyGUI@@@MyGUI@@SAPEBDXZ 
?getClassTypeName@?$Singleton@VFactoryManager@MyGUI@@@MyGUI@@SAPEBDXZ 
?getClassTypeName@?$Singleton@VFontManager@MyGUI@@@MyGUI@@SAPEBDXZ 
?getClassTypeName@?$Singleton@VGui@MyGUI@@@MyGUI@@SAPEBDXZ 
?getClassTypeName@?$Singleton@VInputManager@MyGUI@@@MyGUI@@SAPEBDXZ 
?getClassTypeName@?$Singleton@VLanguageManager@MyGUI@@@MyGUI@@SAPEBDXZ 
?getClassTypeName@?$Singleton@VLayerManager@MyGUI@@@MyGUI@@SAPEBDXZ 
?getClassTypeName@?$Singleton@VLayoutManager@MyGUI@@@MyGUI@@SAPEBDXZ 
?getClassTypeName@?$Singleton@VPluginManager@MyGUI@@@MyGUI@@SAPEBDXZ 
?getClassTypeName@?$Singleton@VPointerManager@MyGUI@@@MyGUI@@SAPEBDXZ 
?getClassTypeName@?$Singleton@VRenderManager@MyGUI@@@MyGUI@@SAPEBDXZ 
?getClassTypeName@?$Singleton@VResourceManager@MyGUI@@@MyGUI@@SAPEBDXZ 
?getClassTypeName@?$Singleton@VScaleManager@MyGUI@@@MyGUI@@SAPEBDXZ 
?getClassTypeName@?$Singleton@VSkinManager@MyGUI@@@MyGUI@@SAPEBDXZ 
?getClassTypeName@?$Singleton@VSubWidgetManager@MyGUI@@@MyGUI@@SAPEBDXZ 
?getClassTypeName@?$Singleton@VToolTipManager@MyGUI@@@MyGUI@@SAPEBDXZ 
?getClassTypeName@?$Singleton@VWidgetManager@MyGUI@@@MyGUI@@SAPEBDXZ 
?getClassTypeName@Button@MyGUI@@SAAEBV?$basic_string@DU?$char_traits@D@std@@V?$allocator@D@2@@std@@XZ 
?getClassTypeName@Canvas@MyGUI@@SAAEBV?$basic_string@DU?$char_traits@D@std@@V?$allocator@D@2@@std@@XZ 
?getClassTypeName@ComboBox@MyGUI@@SAAEBV?$basic_string@DU?$char_traits@D@std@@V?$allocator@D@2@@std@@XZ 
?getClassTypeName@ControllerEdgeHide@MyGUI@@SAAEBV?$basic_string@DU?$char_traits@D@std@@V?$allocator@D@2@@std@@XZ 
?getClassTypeName@ControllerFadeAlpha@MyGUI@@SAAEBV?$basic_string@DU?$char_traits@D@std@@V?$allocator@D@2@@std@@XZ 
?getClassTypeName@ControllerItem@MyGUI@@SAAEBV?$basic_string@DU?$char_traits@D@std@@V?$allocator@D@2@@std@@XZ 
?getClassTypeName@ControllerPosition@MyGUI@@SAAEBV?$basic_string@DU?$char_traits@D@std@@V?$allocator@D@2@@std@@XZ 
?getClassTypeName@DDContainer@MyGUI@@SAAEBV?$basic_string@DU?$char_traits@D@std@@V?$allocator@D@2@@std@@XZ 
?getClassTypeName@EditBox@MyGUI@@SAAEBV?$basic_string@DU?$char_traits@D@std@@V?$allocator@D@2@@std@@XZ 
?getClassTypeName@EditText@MyGUI@@SAAEBV?$basic_string@DU?$char_traits@D@std@@V?$allocator@D@2@@std@@XZ 
?getClassTypeName@EditTextStateInfo@MyGUI@@SAAEBV?$basic_string@DU?$char_traits@D@std@@V?$allocator@D@2@@std@@XZ 
?getClassTypeName@IFont@MyGUI@@SAAEBV?$basic_string@DU?$char_traits@D@std@@V?$allocator@D@2@@std@@XZ 
?getClassTypeName@ILayer@MyGUI@@SAAEBV?$basic_string@DU?$char_traits@D@std@@V?$allocator@D@2@@std@@XZ 
?getClassTypeName@ILayerNode@MyGUI@@SAAEBV?$basic_string@DU?$char_traits@D@std@@V?$allocator@D@2@@std@@XZ 
?getClassTypeName@IObject@MyGUI@@SAAEBV?$basic_string@DU?$char_traits@D@std@@V?$allocator@D@2@@std@@XZ 
?getClassTypeName@IPointer@MyGUI@@SAAEBV?$basic_string@DU?$char_traits@D@std@@V?$allocator@D@2@@std@@XZ 
?getClassTypeName@IResource@MyGUI@@SAAEBV?$basic_string@DU?$char_traits@D@std@@V?$allocator@D@2@@std@@XZ 
?getClassTypeName@ISerializable@MyGUI@@SAAEBV?$basic_string@DU?$char_traits@D@std@@V?$allocator@D@2@@std@@XZ 
?getClassTypeName@IStateInfo@MyGUI@@SAAEBV?$basic_string@DU?$char_traits@D@std@@V?$allocator@D@2@@std@@XZ 
?getClassTypeName@ISubWidget@MyGUI@@SAAEBV?$basic_string@DU?$char_traits@D@std@@V?$allocator@D@2@@std@@XZ 
?getClassTypeName@ISubWidgetRect@MyGUI@@SAAEBV?$basic_string@DU?$char_traits@D@std@@V?$allocator@D@2@@std@@XZ 
?getClassTypeName@ISubWidgetText@MyGUI@@SAAEBV?$basic_string@DU?$char_traits@D@std@@V?$allocator@D@2@@std@@XZ 
?getClassTypeName@ImageBox@MyGUI@@SAAEBV?$basic_string@DU?$char_traits@D@std@@V?$allocator@D@2@@std@@XZ 
?getClassTypeName@ItemBox@MyGUI@@SAAEBV?$basic_string@DU?$char_traits@D@std@@V?$allocator@D@2@@std@@XZ 
?getClassTypeName@LayerNode@MyGUI@@SAAEBV?$basic_string@DU?$char_traits@D@std@@V?$allocator@D@2@@std@@XZ 
?getClassTypeName@ListBox@MyGUI@@SAAEBV?$basic_string@DU?$char_traits@D@std@@V?$allocator@D@2@@std@@XZ 
?getClassTypeName@ListScrollBar@MyGUI@@SAAEBV?$basic_string@DU?$char_traits@D@std@@V?$allocator@D@2@@std@@XZ 
?getClassTypeName@MainSkin@MyGUI@@SAAEBV?$basic_string@DU?$char_traits@D@std@@V?$allocator@D@2@@std@@XZ 
?getClassTypeName@MenuBar@MyGUI@@SAAEBV?$basic_string@DU?$char_traits@D@std@@V?$allocator@D@2@@std@@XZ 
?getClassTypeName@MenuControl@MyGUI@@SAAEBV?$basic_string@DU?$char_traits@D@std@@V?$allocator@D@2@@std@@XZ 
?getClassTypeName@MenuItem@MyGUI@@SAAEBV?$basic_string@DU?$char_traits@D@std@@V?$allocator@D@2@@std@@XZ 
?getClassTypeName@MultiListBox@MyGUI@@SAAEBV?$basic_string@DU?$char_traits@D@std@@V?$allocator@D@2@@std@@XZ 
?getClassTypeName@MultiListItem@MyGUI@@SAAEBV?$basic_string@DU?$char_traits@D@std@@V?$allocator@D@2@@std@@XZ 
?getClassTypeName@MultiSlider@MyGUI@@SAAEBV?$basic_string@DU?$char_traits@D@std@@V?$allocator@D@2@@std@@XZ 
?getClassTypeName@OverlappedLayer@MyGUI@@SAAEBV?$basic_string@DU?$char_traits@D@std@@V?$allocator@D@2@@std@@XZ 
?getClassTypeName@PolygonalSkin@MyGUI@@SAAEBV?$basic_string@DU?$char_traits@D@std@@V?$allocator@D@2@@std@@XZ 
?getClassTypeName@PopupMenu@MyGUI@@SAAEBV?$basic_string@DU?$char_traits@D@std@@V?$allocator@D@2@@std@@XZ 
?getClassTypeName@ProgressBar@MyGUI@@SAAEBV?$basic_string@DU?$char_traits@D@std@@V?$allocator@D@2@@std@@XZ 
?getClassTypeName@ResourceImageSet@MyGUI@@SAAEBV?$basic_string@DU?$char_traits@D@std@@V?$allocator@D@2@@std@@XZ 
?getClassTypeName@ResourceImageSetPointer@MyGUI@@SAAEBV?$basic_string@DU?$char_traits@D@std@@V?$allocator@D@2@@std@@XZ 
?getClassTypeName@ResourceLayout@MyGUI@@SAAEBV?$basic_string@DU?$char_traits@D@std@@V?$allocator@D@2@@std@@XZ 
?getClassTypeName@ResourceManualFont@MyGUI@@SAAEBV?$basic_string@DU?$char_traits@D@std@@V?$allocator@D@2@@std@@XZ 
?getClassTypeName@ResourceManualPointer@MyGUI@@SAAEBV?$basic_string@DU?$char_traits@D@std@@V?$allocator@D@2@@std@@XZ 
?getClassTypeName@ResourceSkin@MyGUI@@SAAEBV?$basic_string@DU?$char_traits@D@std@@V?$allocator@D@2@@std@@XZ 
?getClassTypeName@ResourceTrueTypeFont@MyGUI@@SAAEBV?$basic_string@DU?$char_traits@D@std@@V?$allocator@D@2@@std@@XZ 
?getClassTypeName@RotatingSkin@MyGUI@@SAAEBV?$basic_string@DU?$char_traits@D@std@@V?$allocator@D@2@@std@@XZ 
?getClassTypeName@RotatingSkinStateInfo@MyGUI@@SAAEBV?$basic_string@DU?$char_traits@D@std@@V?$allocator@D@2@@std@@XZ 
?getClassTypeName@ScrollBar@MyGUI@@SAAEBV?$basic_string@DU?$char_traits@D@std@@V?$allocator@D@2@@std@@XZ 
?getClassTypeName@ScrollView@MyGUI@@SAAEBV?$basic_string@DU?$char_traits@D@std@@V?$allocator@D@2@@std@@XZ 
?getClassTypeName@SharedLayer@MyGUI@@SAAEBV?$basic_string@DU?$char_traits@D@std@@V?$allocator@D@2@@std@@XZ 
?getClassTypeName@SharedLayerNode@MyGUI@@SAAEBV?$basic_string@DU?$char_traits@D@std@@V?$allocator@D@2@@std@@XZ 
?getClassTypeName@SimpleText@MyGUI@@SAAEBV?$basic_string@DU?$char_traits@D@std@@V?$allocator@D@2@@std@@XZ 
?getClassTypeName@Slider@MyGUI@@SAAEBV?$basic_string@DU?$char_traits@D@std@@V?$allocator@D@2@@std@@XZ 
?getClassTypeName@SubSkin@MyGUI@@SAAEBV?$basic_string@DU?$char_traits@D@std@@V?$allocator@D@2@@std@@XZ 
?getClassTypeName@SubSkinStateInfo@MyGUI@@SAAEBV?$basic_string@DU?$char_traits@D@std@@V?$allocator@D@2@@std@@XZ 
?getClassTypeName@TabControl@MyGUI@@SAAEBV?$basic_string@DU?$char_traits@D@std@@V?$allocator@D@2@@std@@XZ 
?getClassTypeName@TabItem@MyGUI@@SAAEBV?$basic_string@DU?$char_traits@D@std@@V?$allocator@D@2@@std@@XZ 
?getClassTypeName@TextBox@MyGUI@@SAAEBV?$basic_string@DU?$char_traits@D@std@@V?$allocator@D@2@@std@@XZ 
?getClassTypeName@TileRect@MyGUI@@SAAEBV?$basic_string@DU?$char_traits@D@std@@V?$allocator@D@2@@std@@XZ 
?getClassTypeName@TileRectStateInfo@MyGUI@@SAAEBV?$basic_string@DU?$char_traits@D@std@@V?$allocator@D@2@@std@@XZ 
?getClassTypeName@Widget@MyGUI@@SAAEBV?$basic_string@DU?$char_traits@D@std@@V?$allocator@D@2@@std@@XZ 
?getClassTypeName@Window@MyGUI@@SAAEBV?$basic_string@DU?$char_traits@D@std@@V?$allocator@D@2@@std@@XZ 
?getClientCoord@Widget@MyGUI@@QEAA?AU?$TCoord@H@types@2@XZ 
?getClientHeight@ProgressBar@MyGUI@@AEAAHXZ 
?getClientWidget@Widget@MyGUI@@QEAAPEAV12@XZ 
?getClientWidth@ProgressBar@MyGUI@@AEAAHXZ 
?getClipboardData@ClipboardManager@MyGUI@@QEAA?AV?$basic_string@DU?$char_traits@D@std@@V?$allocator@D@2@@std@@AEBV34@@Z 
?getCodePointRanges@ResourceTrueTypeFont@MyGUI@@QEBA?AV?$vector@U?$pair@II@std@@V?$allocator@U?$pair@II@std@@@2@@std@@XZ 
?getColour@ColourManager@MyGUI@@QEBAAEBUColour@2@AEBV?$basic_string@DU?$char_traits@D@std@@V?$allocator@D@2@@std@@AEBU32@@Z 
?getColour@EditTextStateInfo@MyGUI@@QEBAAEBUColour@2@XZ 
?getColumnCount@MultiListBox@MyGUI@@QEBA_KXZ 
?getColumnIndex@MultiListBox@MyGUI@@QEAA_KPEAVMultiListItem@2@@Z 
?getColumnName@MultiListBox@MyGUI@@QEAAAEBVUString@2@PEAVMultiListItem@2@@Z 
?getColumnNameAt@MultiListBox@MyGUI@@QEAAAEBVUString@2@_K@Z 
?getColumnWidth@MultiListBox@MyGUI@@AEBAH_KH00H@Z 
?getColumnWidthAt@MultiListBox@MyGUI@@QEAAH_K@Z 
?getComboModeDrop@ComboBox@MyGUI@@QEBA_NXZ 
?getContent@Element@xml@MyGUI@@QEBAAEBV?$basic_string@DU?$char_traits@D@std@@V?$allocator@D@2@@std@@XZ 
?getContentAlign@EditBox@MyGUI@@EEAA?AUAlign@2@XZ 
?getContentAlign@ItemBox@MyGUI@@EEAA?AUAlign@2@XZ 
?getContentAlign@ScrollView@MyGUI@@EEAA?AUAlign@2@XZ 
?getContentAlign@ScrollViewBase@MyGUI@@MEAA?AUAlign@2@XZ 
?getContentPosition@EditBox@MyGUI@@EEAA?AU?$TPoint@H@types@2@XZ 
?getContentPosition@ItemBox@MyGUI@@EEAA?AU?$TPoint@H@types@2@XZ 
?getContentPosition@ScrollView@MyGUI@@EEAA?AU?$TPoint@H@types@2@XZ 
?getContentPosition@ScrollViewBase@MyGUI@@MEAA?AU?$TPoint@H@types@2@XZ 
?getContentSize@EditBox@MyGUI@@EEAA?AU?$TSize@H@types@2@XZ 
?getContentSize@ItemBox@MyGUI@@EEAA?AU?$TSize@H@types@2@XZ 
?getContentSize@ScrollView@MyGUI@@EEAA?AU?$TSize@H@types@2@XZ 
?getContentSize@ScrollViewBase@MyGUI@@MEAA?AU?$TSize@H@types@2@XZ 
?getCoord@ICroppedRectangle@MyGUI@@QEBAAEBU?$TCoord@H@types@2@XZ 
?getCount@ResourceManager@MyGUI@@QEBA_KXZ 
?getCroppedParent@ICroppedRectangle@MyGUI@@QEAAPEAV12@XZ 
?getCurrentLanguage@LanguageManager@MyGUI@@QEBAAEBV?$basic_string@DU?$char_traits@D@std@@V?$allocator@D@2@@std@@XZ 
?getCurrentLayout@LayoutManager@MyGUI@@QEBAAEBV?$basic_string@DU?$char_traits@D@std@@V?$allocator@D@2@@std@@XZ 
?getCurrentMilliseconds@Timer@MyGUI@@AEAAKXZ 
?getCurrentUpdate@RenderItem@MyGUI@@QEBA_NXZ 
?getCurrentVertexBuffer@RenderItem@MyGUI@@QEBAPEAUVertex@2@XZ 
?getCursorCoord@EditText@MyGUI@@UEAA?AU?$TCoord@H@types@2@_K@Z 
?getCursorCoord@ISubWidgetText@MyGUI@@UEAA?AU?$TCoord@H@types@2@_K@Z 
?getCursorPoint@ISubWidgetText@MyGUI@@QEAA?AU?$TPoint@H@types@2@_K@Z 
?getCursorPosition@EditText@MyGUI@@UEAA_KAEBU?$TPoint@H@types@2@@Z 
?getCursorPosition@EditText@MyGUI@@UEBA_KXZ 
?getCursorPosition@ISubWidgetText@MyGUI@@UEAA_KAEBU?$TPoint@H@types@2@@Z 
?getCursorPosition@ISubWidgetText@MyGUI@@UEBA_KXZ 
?getCursorRect@ISubWidgetText@MyGUI@@QEAA?AU?$TRect@H@types@2@_K@Z 
?getDefaultFont@FontManager@MyGUI@@QEBAAEBV?$basic_string@DU?$char_traits@D@std@@V?$allocator@D@2@@std@@XZ 
?getDefaultHeight@ResourceManualFont@MyGUI@@UEAAHXZ 
?getDefaultHeight@ResourceTrueTypeFont@MyGUI@@UEAAHXZ 
?getDefaultPointer@PointerManager@MyGUI@@QEBAAEBV?$basic_string@DU?$char_traits@D@std@@V?$allocator@D@2@@std@@XZ 
?getDefaultSkin@SkinManager@MyGUI@@QEBA?BV?$basic_string@DU?$char_traits@D@std@@V?$allocator@D@2@@std@@XZ 
?getDefaultTextureFormat@Canvas@MyGUI@@SA?AUPixelFormat@2@XZ 
?getDefaultTextureUsage@Canvas@MyGUI@@SA?AUTextureUsage@2@XZ 
?getDelayVisible@ToolTipManager@MyGUI@@QEBAMXZ 
?getDepth@Widget@MyGUI@@QEBAHXZ 
?getDescription@Exception@MyGUI@@UEBAAEBV?$basic_string@DU?$char_traits@D@std@@V?$allocator@D@2@@std@@XZ 
?getEditMultiLine@EditBox@MyGUI@@QEBA_NXZ 
?getEditPassword@EditBox@MyGUI@@QEBA_NXZ 
?getEditReadOnly@EditBox@MyGUI@@QEBA_NXZ 
?getEditStatic@EditBox@MyGUI@@QEBA_NXZ 
?getEditWordWrap@EditBox@MyGUI@@QEBA_NXZ 
?getElementEnumerator@Element@xml@MyGUI@@QEAA?AVElementEnumerator@23@XZ 
?getEmptyString@Constants@MyGUI@@SAAEBV?$basic_string@DU?$char_traits@D@std@@V?$allocator@D@2@@std@@XZ 
?getEmptyUString@Constants@MyGUI@@SAAEBVUString@2@XZ 
?getEnabled@ConsoleLogListener@MyGUI@@QEBA_NXZ 
?getEnabled@Widget@MyGUI@@QEBA_NXZ 
?getEnumerator@Gui@MyGUI@@QEBA?AV?$Enumerator@V?$vector@PEAVWidget@MyGUI@@V?$allocator@PEAVWidget@MyGUI@@@std@@@std@@@2@XZ 
?getEnumerator@LayerManager@MyGUI@@QEBA?AV?$Enumerator@V?$vector@PEAVILayer@MyGUI@@V?$allocator@PEAVILayer@MyGUI@@@std@@@std@@@2@XZ 
?getEnumerator@LayerNode@MyGUI@@UEBA?AV?$Enumerator@V?$vector@PEAVILayerNode@MyGUI@@V?$allocator@PEAVILayerNode@MyGUI@@@std@@@std@@@2@XZ 
?getEnumerator@OverlappedLayer@MyGUI@@UEBA?AV?$Enumerator@V?$vector@PEAVILayerNode@MyGUI@@V?$allocator@PEAVILayerNode@MyGUI@@@std@@@std@@@2@XZ 
?getEnumerator@ResourceImageSet@MyGUI@@QEBA?AV?$Enumerator@V?$vector@UGroupImage@MyGUI@@V?$allocator@UGroupImage@MyGUI@@@std@@@std@@@2@XZ 
?getEnumerator@ResourceManager@MyGUI@@QEBA?AV?$Enumerator@V?$map@V?$basic_string@DU?$char_traits@D@std@@V?$allocator@D@2@@std@@PEAVIResource@MyGUI@@U?$less@V?$basic_string@DU?$char_traits@D@std@@V?$allocator@D@2@@std@@@2@V?$allocator@U?$pair@$$CBV?$basic_string@DU?$char_traits@D@std@@V?$allocator@D@2@@std@@PEAVIResource@MyGUI@@@std@@@2@@std@@@2@XZ 
?getEnumerator@SharedLayer@MyGUI@@UEBA?AV?$Enumerator@V?$vector@PEAVILayerNode@MyGUI@@V?$allocator@PEAVILayerNode@MyGUI@@@std@@@std@@@2@XZ 
?getEnumerator@Widget@MyGUI@@QEBA?AV?$Enumerator@V?$vector@PEAVWidget@MyGUI@@V?$allocator@PEAVWidget@MyGUI@@@std@@@std@@@2@XZ 
?getFactoryRename@BackwardCompatibility@MyGUI@@SA?AV?$basic_string@DU?$char_traits@D@std@@V?$allocator@D@2@@std@@AEBV34@0@Z 
?getFile@Exception@MyGUI@@UEBAAEBV?$basic_string@DU?$char_traits@D@std@@V?$allocator@D@2@@std@@XZ 
?getFileName@FileLogListener@MyGUI@@QEBAAEBV?$basic_string@DU?$char_traits@D@std@@V?$allocator@D@2@@std@@XZ 
?getFlowDirection@ComboBox@MyGUI@@QEBA?AUFlowDirection@2@XZ 
?getFlowDirection@ProgressBar@MyGUI@@QEBA?AUFlowDirection@2@XZ 
?getFontHeight@EditText@MyGUI@@UEBAHXZ 
?getFontHeight@ISubWidgetText@MyGUI@@UEBAHXZ 
?getFontHeight@TextBox@MyGUI@@QEAAHXZ 
?getFontName@EditText@MyGUI@@UEBAAEBV?$basic_string@DU?$char_traits@D@std@@V?$allocator@D@2@@std@@XZ 
?getFontName@ISubWidgetText@MyGUI@@UEBAAEBV?$basic_string@DU?$char_traits@D@std@@V?$allocator@D@2@@std@@XZ 
?getFontName@TextBox@MyGUI@@QEAAAEBV?$basic_string@DU?$char_traits@D@std@@V?$allocator@D@2@@std@@XZ 
?getFromStart@TextIterator@MyGUI@@QEAA?AVUString@2@XZ 
?getFullDescription@Exception@MyGUI@@UEBAAEBV?$basic_string@DU?$char_traits@D@std@@V?$allocator@D@2@@std@@XZ 
?getGlyphInfo@ResourceManualFont@MyGUI@@UEAAPEAUGlyphInfo@2@I@Z 
?getGlyphInfo@ResourceTrueTypeFont@MyGUI@@UEAAPEAUGlyphInfo@2@I@Z 
?getGroupIndex@ResourceImageSet@MyGUI@@AEAA_KAEBU?$TSize@H@types@2@@Z 
?getGroupIndex@ResourceImageSet@MyGUI@@AEAA_KAEBV?$basic_string@DU?$char_traits@D@std@@V?$allocator@D@2@@std@@@Z 
?getGroupSize@ResourceImageSet@MyGUI@@AEAAAEBU?$TSize@H@types@2@AEBV?$basic_string@DU?$char_traits@D@std@@V?$allocator@D@2@@std@@@Z 
?getGroupSize@ResourceImageSet@MyGUI@@AEAAAEBU?$TSize@H@types@2@_K@Z 
?getHScrollPage@EditBox@MyGUI@@EEAA_KXZ 
?getHScrollPage@ItemBox@MyGUI@@EEAA_KXZ 
?getHScrollPage@ScrollView@MyGUI@@EEAA_KXZ 
?getHScrollPage@ScrollViewBase@MyGUI@@MEAA_KXZ 
?getHScrollPosition@EditBox@MyGUI@@QEAA_KXZ 
?getHScrollRange@EditBox@MyGUI@@QEBA_KXZ 
?getHeaderWidth@TabControl@MyGUI@@QEAAHXZ 
?getHeight@ICroppedRectangle@MyGUI@@QEBAHXZ 
?getHex@Colour@MyGUI@@QEBA?AV?$basic_string@DU?$char_traits@D@std@@V?$allocator@D@2@@std@@XZ 
?getIconIndexByType@MenuControl@MyGUI@@AEBA?AV?$basic_string@DU?$char_traits@D@std@@V?$allocator@D@2@@std@@UMenuItemType@2@@Z 
?getImageIndex@ImageBox@MyGUI@@QEBA_KXZ 
?getImageIndex@ResourceImageSet@MyGUI@@AEAA_KAEAUGroupImage@2@AEBV?$basic_string@DU?$char_traits@D@std@@V?$allocator@D@2@@std@@@Z 
?getImageSize@ImageBox@MyGUI@@QEBA?AU?$TSize@H@types@2@XZ 
?getIndexByWidget@ItemBox@MyGUI@@QEAA_KPEAVWidget@2@@Z 
?getIndexByWidget@ListBox@MyGUI@@AEAA_KPEAVWidget@2@@Z 
?getIndexCount@BiIndexBase@MyGUI@@IEBA_KXZ 
?getIndexInfo@ResourceImageSet@MyGUI@@QEAA?AUImageIndexInfo@2@AEBU?$TSize@H@types@2@AEBV?$basic_string@DU?$char_traits@D@std@@V?$allocator@D@2@@std@@@Z 
?getIndexInfo@ResourceImageSet@MyGUI@@QEAA?AUImageIndexInfo@2@AEBU?$TSize@H@types@2@_K@Z 
?getIndexInfo@ResourceImageSet@MyGUI@@QEAA?AUImageIndexInfo@2@AEBV?$basic_string@DU?$char_traits@D@std@@V?$allocator@D@2@@std@@0@Z 
?getIndexInfo@ResourceImageSet@MyGUI@@QEAA?AUImageIndexInfo@2@AEBV?$basic_string@DU?$char_traits@D@std@@V?$allocator@D@2@@std@@_K@Z 
?getIndexInfo@ResourceImageSet@MyGUI@@QEAA?AUImageIndexInfo@2@_K0@Z 
?getIndexInfo@ResourceImageSet@MyGUI@@QEAA?AUImageIndexInfo@2@_KAEBV?$basic_string@DU?$char_traits@D@std@@V?$allocator@D@2@@std@@@Z 
?getIndexSelected@ComboBox@MyGUI@@QEBA_KXZ 
?getIndexSelected@ItemBox@MyGUI@@QEBA_KXZ 
?getIndexSelected@ListBox@MyGUI@@QEBA_KXZ 
?getIndexSelected@MultiListBox@MyGUI@@QEBA_KXZ 
?getIndexSelected@TabControl@MyGUI@@QEBA_KXZ 
?getInheritedEnabled@Widget@MyGUI@@QEBA_NXZ 
?getInheritedVisible@Widget@MyGUI@@QEBA_NXZ 
?getInheritsAlpha@Widget@MyGUI@@QEBA_NXZ 
?getInheritsPick@WidgetInput@MyGUI@@QEBA_NXZ 
?getInstance@?$Singleton@VClipboardManager@MyGUI@@@MyGUI@@SAAEAVClipboardManager@2@XZ 
?getInstance@?$Singleton@VColourManager@MyGUI@@@MyGUI@@SAAEAVColourManager@2@XZ 
?getInstance@?$Singleton@VControllerManager@MyGUI@@@MyGUI@@SAAEAVControllerManager@2@XZ 
?getInstance@?$Singleton@VDataManager@MyGUI@@@MyGUI@@SAAEAVDataManager@2@XZ 
?getInstance@?$Singleton@VDynLibManager@MyGUI@@@MyGUI@@SAAEAVDynLibManager@2@XZ 
?getInstance@?$Singleton@VFactoryManager@MyGUI@@@MyGUI@@SAAEAVFactoryManager@2@XZ 
?getInstance@?$Singleton@VFontManager@MyGUI@@@MyGUI@@SAAEAVFontManager@2@XZ 
?getInstance@?$Singleton@VGui@MyGUI@@@MyGUI@@SAAEAVGui@2@XZ 
?getInstance@?$Singleton@VInputManager@MyGUI@@@MyGUI@@SAAEAVInputManager@2@XZ 
?getInstance@?$Singleton@VLanguageManager@MyGUI@@@MyGUI@@SAAEAVLanguageManager@2@XZ 
?getInstance@?$Singleton@VLayerManager@MyGUI@@@MyGUI@@SAAEAVLayerManager@2@XZ 
?getInstance@?$Singleton@VLayoutManager@MyGUI@@@MyGUI@@SAAEAVLayoutManager@2@XZ 
?getInstance@?$Singleton@VPluginManager@MyGUI@@@MyGUI@@SAAEAVPluginManager@2@XZ 
?getInstance@?$Singleton@VPointerManager@MyGUI@@@MyGUI@@SAAEAVPointerManager@2@XZ 
?getInstance@?$Singleton@VRenderManager@MyGUI@@@MyGUI@@SAAEAVRenderManager@2@XZ 
?getInstance@?$Singleton@VResourceManager@MyGUI@@@MyGUI@@SAAEAVResourceManager@2@XZ 
?getInstance@?$Singleton@VScaleManager@MyGUI@@@MyGUI@@SAAEAVScaleManager@2@XZ 
?getInstance@?$Singleton@VSkinManager@MyGUI@@@MyGUI@@SAAEAVSkinManager@2@XZ 
?getInstance@?$Singleton@VSubWidgetManager@MyGUI@@@MyGUI@@SAAEAVSubWidgetManager@2@XZ 
?getInstance@?$Singleton@VToolTipManager@MyGUI@@@MyGUI@@SAAEAVToolTipManager@2@XZ 
?getInstance@?$Singleton@VWidgetManager@MyGUI@@@MyGUI@@SAAEAVWidgetManager@2@XZ 
?getInstance@LogManager@MyGUI@@SAAEAV12@XZ 
?getInstancePtr@?$Singleton@VClipboardManager@MyGUI@@@MyGUI@@SAPEAVClipboardManager@2@XZ 
?getInstancePtr@?$Singleton@VColourManager@MyGUI@@@MyGUI@@SAPEAVColourManager@2@XZ 
?getInstancePtr@?$Singleton@VControllerManager@MyGUI@@@MyGUI@@SAPEAVControllerManager@2@XZ 
?getInstancePtr@?$Singleton@VDataManager@MyGUI@@@MyGUI@@SAPEAVDataManager@2@XZ 
?getInstancePtr@?$Singleton@VDynLibManager@MyGUI@@@MyGUI@@SAPEAVDynLibManager@2@XZ 
?getInstancePtr@?$Singleton@VFactoryManager@MyGUI@@@MyGUI@@SAPEAVFactoryManager@2@XZ 
?getInstancePtr@?$Singleton@VFontManager@MyGUI@@@MyGUI@@SAPEAVFontManager@2@XZ 
?getInstancePtr@?$Singleton@VGui@MyGUI@@@MyGUI@@SAPEAVGui@2@XZ 
?getInstancePtr@?$Singleton@VInputManager@MyGUI@@@MyGUI@@SAPEAVInputManager@2@XZ 
?getInstancePtr@?$Singleton@VLanguageManager@MyGUI@@@MyGUI@@SAPEAVLanguageManager@2@XZ 
?getInstancePtr@?$Singleton@VLayerManager@MyGUI@@@MyGUI@@SAPEAVLayerManager@2@XZ 
?getInstancePtr@?$Singleton@VLayoutManager@MyGUI@@@MyGUI@@SAPEAVLayoutManager@2@XZ 
?getInstancePtr@?$Singleton@VPluginManager@MyGUI@@@MyGUI@@SAPEAVPluginManager@2@XZ 
?getInstancePtr@?$Singleton@VPointerManager@MyGUI@@@MyGUI@@SAPEAVPointerManager@2@XZ 
?getInstancePtr@?$Singleton@VRenderManager@MyGUI@@@MyGUI@@SAPEAVRenderManager@2@XZ 
?getInstancePtr@?$Singleton@VResourceManager@MyGUI@@@MyGUI@@SAPEAVResourceManager@2@XZ 
?getInstancePtr@?$Singleton@VScaleManager@MyGUI@@@MyGUI@@SAPEAVScaleManager@2@XZ 
?getInstancePtr@?$Singleton@VSkinManager@MyGUI@@@MyGUI@@SAPEAVSkinManager@2@XZ 
?getInstancePtr@?$Singleton@VSubWidgetManager@MyGUI@@@MyGUI@@SAPEAVSubWidgetManager@2@XZ 
?getInstancePtr@?$Singleton@VToolTipManager@MyGUI@@@MyGUI@@SAPEAVToolTipManager@2@XZ 
?getInstancePtr@?$Singleton@VWidgetManager@MyGUI@@@MyGUI@@SAPEAVWidgetManager@2@XZ 
?getInstancePtr@LogManager@MyGUI@@SAPEAV12@XZ 
?getInvertSelected@EditBox@MyGUI@@QEAA_NXZ 
?getInvertSelected@EditText@MyGUI@@UEBA_NXZ 
?getInvertSelected@ISubWidgetText@MyGUI@@UEBA_NXZ 
?getItemAt@MenuControl@MyGUI@@QEAAPEAVMenuItem@2@_K@Z 
?getItemAt@TabControl@MyGUI@@QEAAPEAVTabItem@2@_K@Z 
?getItemById@MenuControl@MyGUI@@QEAAPEAVMenuItem@2@AEBV?$basic_string@DU?$char_traits@D@std@@V?$allocator@D@2@@std@@@Z 
?getItemChecked@MenuItem@MyGUI@@QEBA_NXZ 
?getItemChild@MenuControl@MyGUI@@QEAAPEAV12@PEAVMenuItem@2@@Z 
?getItemChild@MenuItem@MyGUI@@QEAAPEAVMenuControl@2@XZ 
?getItemChildAt@MenuControl@MyGUI@@QEAAPEAV12@_K@Z 
?getItemCount@ComboBox@MyGUI@@QEBA_KXZ 
?getItemCount@ImageBox@MyGUI@@QEBA_KXZ 
?getItemCount@ItemBox@MyGUI@@QEBA_KXZ 
?getItemCount@ListBox@MyGUI@@QEBA_KXZ 
?getItemCount@MenuControl@MyGUI@@QEBA_KXZ 
?getItemCount@MultiListBox@MyGUI@@QEBA_KXZ 
?getItemCount@TabControl@MyGUI@@QEBA_KXZ 
?getItemFrameCount@ImageBox@MyGUI@@QEAA_K_K@Z 
?getItemFrameRate@ImageBox@MyGUI@@QEAAM_K@Z 
?getItemId@MenuControl@MyGUI@@QEAAAEBV?$basic_string@DU?$char_traits@D@std@@V?$allocator@D@2@@std@@PEAVMenuItem@2@@Z 
?getItemId@MenuItem@MyGUI@@QEAAAEBV?$basic_string@DU?$char_traits@D@std@@V?$allocator@D@2@@std@@XZ 
?getItemIdAt@MenuControl@MyGUI@@QEAAAEBV?$basic_string@DU?$char_traits@D@std@@V?$allocator@D@2@@std@@_K@Z 
?getItemIndex@MenuControl@MyGUI@@QEAA_KPEAVMenuItem@2@@Z 
?getItemIndex@MenuItem@MyGUI@@QEAA_KXZ 
?getItemIndex@TabControl@MyGUI@@QEAA_KPEAVTabItem@2@@Z 
?getItemIndexById@MenuControl@MyGUI@@QEAA_KAEBV?$basic_string@DU?$char_traits@D@std@@V?$allocator@D@2@@std@@@Z 
?getItemName@MenuControl@MyGUI@@QEAAAEBVUString@2@PEAVMenuItem@2@@Z 
?getItemName@MenuItem@MyGUI@@QEAAAEBVUString@2@XZ 
?getItemName@TabControl@MyGUI@@QEAAAEBVUString@2@PEAVTabItem@2@@Z 
?getItemNameAt@ComboBox@MyGUI@@QEAAAEBVUString@2@_K@Z 
?getItemNameAt@ListBox@MyGUI@@QEAAAEBVUString@2@_K@Z 
?getItemNameAt@MenuControl@MyGUI@@QEAAAEBVUString@2@_K@Z 
?getItemNameAt@MultiListBox@MyGUI@@QEAAAEBVUString@2@_K@Z 
?getItemNameAt@TabControl@MyGUI@@QEAAAEBVUString@2@_K@Z 
?getItemResource@ImageBox@MyGUI@@QEBAPEAVResourceImageSet@2@XZ 
?getItemSelect@ImageBox@MyGUI@@QEBA_KXZ 
?getItemSelected@TabControl@MyGUI@@QEAAPEAVTabItem@2@XZ 
?getItemType@MenuControl@MyGUI@@AEBA?AUMenuItemType@2@_N0@Z 
?getItemType@MenuControl@MyGUI@@QEAA?AUMenuItemType@2@PEAVMenuItem@2@@Z 
?getItemType@MenuItem@MyGUI@@QEAA?AUMenuItemType@2@XZ 
?getItemTypeAt@MenuControl@MyGUI@@QEAA?AUMenuItemType@2@_K@Z 
?getItemWidget@ItemBox@MyGUI@@IEAAPEAVWidget@2@_K@Z 
?getKeyFocusWidget@InputManager@MyGUI@@QEBAPEAVWidget@2@XZ 
?getLanguages@LanguageManager@MyGUI@@QEBA?AV?$vector@V?$basic_string@DU?$char_traits@D@std@@V?$allocator@D@2@@std@@V?$allocator@V?$basic_string@DU?$char_traits@D@std@@V?$allocator@D@2@@std@@@2@@std@@XZ 
?getLastError@Document@xml@MyGUI@@QEAA?AV?$basic_string@DU?$char_traits@D@std@@V?$allocator@D@2@@std@@XZ 
?getLastPressedPosition@InputManager@MyGUI@@QEBAAEBU?$TPoint@H@types@2@UMouseButton@2@@Z 
?getLayer@LayerItem@MyGUI@@QEBAPEAVILayer@2@XZ 
?getLayer@LayerManager@MyGUI@@QEAAPEAVILayer@2@_K@Z 
?getLayer@LayerNode@MyGUI@@UEBAPEAVILayer@2@XZ 
?getLayerCount@LayerManager@MyGUI@@QEBA_KXZ 
?getLayerItemByPoint@LayerNode@MyGUI@@UEBAPEAVILayerItem@2@HH@Z 
?getLayerItemByPoint@OverlappedLayer@MyGUI@@UEBAPEAVILayerItem@2@HH@Z 
?getLayerItemByPoint@SharedLayer@MyGUI@@UEBAPEAVILayerItem@2@HH@Z 
?getLayerItemByPoint@Widget@MyGUI@@MEBAPEAVILayerItem@2@HH@Z 
?getLayerItemCoord@Widget@MyGUI@@MEBAAEBU?$TCoord@H@types@2@XZ 
?getLayerName@PointerManager@MyGUI@@QEBAAEBV?$basic_string@DU?$char_traits@D@std@@V?$allocator@D@2@@std@@XZ 
?getLayerNode@LayerItem@MyGUI@@QEBAPEAVILayerNode@2@XZ 
?getLayerNodeAt@LayerNode@MyGUI@@UEBAPEAVILayerNode@2@_K@Z 
?getLayerNodeAt@OverlappedLayer@MyGUI@@UEBAPEAVILayerNode@2@_K@Z 
?getLayerNodeAt@SharedLayer@MyGUI@@UEBAPEAVILayerNode@2@_K@Z 
?getLayerNodeCount@LayerNode@MyGUI@@UEBA_KXZ 
?getLayerNodeCount@OverlappedLayer@MyGUI@@UEBA_KXZ 
?getLayerNodeCount@SharedLayer@MyGUI@@UEBA_KXZ 
?getLayoutData@ResourceLayout@MyGUI@@QEBAAEBV?$vector@UWidgetInfo@MyGUI@@V?$allocator@UWidgetInfo@MyGUI@@@std@@@std@@XZ 
?getLeft@ICroppedRectangle@MyGUI@@QEBAHXZ 
?getLine@Exception@MyGUI@@UEBAJXZ 
?getLineInfo@EditText@MyGUI@@UEBAAEBV?$vector@ULineInfo@MyGUI@@V?$allocator@ULineInfo@MyGUI@@@std@@@std@@XZ 
?getLineSize@ScrollBar@MyGUI@@QEBAHXZ 
?getLoadedFonts@FontManager@MyGUI@@QEBAAEBV?$set@V?$basic_string@DU?$char_traits@D@std@@V?$allocator@D@2@@std@@U?$less@V?$basic_string@DU?$char_traits@D@std@@V?$allocator@D@2@@std@@@2@V?$allocator@V?$basic_string@DU?$char_traits@D@std@@V?$allocator@D@2@@std@@@2@@std@@XZ 
?getLoggingLevel@LevelLogFilter@MyGUI@@QEBA?AULogLevel@2@XZ 
?getLoggingLevel@LogManager@MyGUI@@QEBA?AULogLevel@2@XZ 
?getMajor@Version@MyGUI@@QEBAIXZ 
?getManualRender@RenderItem@MyGUI@@QEBA_NXZ 
?getMaxListLength@ComboBox@MyGUI@@QEBAHXZ 
?getMaxSize@Window@MyGUI@@QEAA?AU?$TSize@H@types@2@XZ 
?getMaxTextLength@EditBox@MyGUI@@QEBA_KXZ 
?getMenuCtrlParent@MenuItem@MyGUI@@QEAAPEAVMenuControl@2@XZ 
?getMenuItemParent@MenuControl@MyGUI@@QEAAPEAVMenuItem@2@XZ 
?getMilliseconds@Timer@MyGUI@@QEAAKXZ 
?getMinSize@Window@MyGUI@@QEAA?AU?$TSize@H@types@2@XZ 
?getMinTrackSize@ScrollBar@MyGUI@@QEBAHXZ 
?getMinor@Version@MyGUI@@QEBAIXZ 
?getMixedNativeAlpha@EditText@MyGUI@@AEAAIM@Z 
?getModeImage@Button@MyGUI@@QEBA_NXZ 
?getMouseFocusWidget@InputManager@MyGUI@@QEBAPEAVWidget@2@XZ 
?getMousePosition@InputManager@MyGUI@@QEBAAEBU?$TPoint@H@types@2@XZ 
?getMousePositionByLayer@InputManager@MyGUI@@QEAA?AU?$TPoint@H@types@2@XZ 
?getMovable@Window@MyGUI@@QEBA_NXZ 
?getMoveToClick@ScrollBar@MyGUI@@QEBA_NXZ 
?getName@DynLib@MyGUI@@QEBA?AV?$basic_string@DU?$char_traits@D@std@@V?$allocator@D@2@@std@@XZ 
?getName@Element@xml@MyGUI@@QEBAAEBV?$basic_string@DU?$char_traits@D@std@@V?$allocator@D@2@@std@@XZ 
?getName@ILayer@MyGUI@@QEBAAEBV?$basic_string@DU?$char_traits@D@std@@V?$allocator@D@2@@std@@XZ 
?getName@Widget@MyGUI@@QEBAAEBV?$basic_string@DU?$char_traits@D@std@@V?$allocator@D@2@@std@@XZ 
?getNeedCompression@RenderItem@MyGUI@@QEBA_NXZ 
?getNeedDragDrop@DDContainer@MyGUI@@QEBA_NXZ 
?getNeedKeyFocus@WidgetInput@MyGUI@@QEBA_NXZ 
?getNeedMouseFocus@WidgetInput@MyGUI@@QEBA_NXZ 
?getNeedToolTip@WidgetInput@MyGUI@@QEBA_NXZ 
?getNeedVertexCount@RenderItem@MyGUI@@QEBA_KXZ 
?getNodeDepth@LayerNode@MyGUI@@UEAAMXZ 
?getOnlyText@EditBox@MyGUI@@QEAA?AVUString@2@XZ 
?getOnlyText@TextIterator@MyGUI@@SA?AVUString@2@AEBV32@@Z 
?getOptimalHeight@ListBox@MyGUI@@QEAAHXZ 
?getOverflowToTheLeft@EditBox@MyGUI@@QEBA_NXZ 
?getOwner@MultiListItem@MyGUI@@AEAAPEAVMultiListBox@2@XZ 
?getParent@Element@xml@MyGUI@@QEBAPEAV123@XZ 
?getParent@LayerNode@MyGUI@@UEBAPEAVILayerNode@2@XZ 
?getParent@Widget@MyGUI@@QEBAPEAV12@XZ 
?getParentSize@Widget@MyGUI@@QEBA?AU?$TSize@H@types@2@XZ 
?getPasswordChar@EditBox@MyGUI@@QEBAIXZ 
?getPatch@Version@MyGUI@@QEBAIXZ 
?getPointer@WidgetInput@MyGUI@@QEBAAEBV?$basic_string@DU?$char_traits@D@std@@V?$allocator@D@2@@std@@XZ 
?getPopupAccept@MenuControl@MyGUI@@QEBA_NXZ 
?getPosition@ICroppedRectangle@MyGUI@@QEBA?AU?$TPoint@H@types@2@XZ 
?getPosition@OverlappedLayer@MyGUI@@UEBA?AU?$TPoint@H@types@2@HH@Z 
?getPosition@SharedLayer@MyGUI@@UEBA?AU?$TPoint@H@types@2@HH@Z 
?getPosition@TextIterator@MyGUI@@QEBA_KXZ 
?getProgressAutoTrack@ProgressBar@MyGUI@@QEBA_NXZ 
?getProgressPosition@ProgressBar@MyGUI@@QEBA_KXZ 
?getProgressRange@ProgressBar@MyGUI@@QEBA_KXZ 
?getProperties@ResourceSkin@MyGUI@@QEBAAEBV?$map@V?$basic_string@DU?$char_traits@D@std@@V?$allocator@D@2@@std@@V12@U?$less@V?$basic_string@DU?$char_traits@D@std@@V?$allocator@D@2@@std@@@2@V?$allocator@U?$pair@$$CBV?$basic_string@DU?$char_traits@D@std@@V?$allocator@D@2@@std@@V12@@std@@@2@@std@@XZ 
?getPropertyRename@BackwardCompatibility@MyGUI@@SA?AV?$basic_string@DU?$char_traits@D@std@@V?$allocator@D@2@@std@@AEBV34@@Z 
?getRealClient@ScrollView@MyGUI@@QEBAPEAVWidget@2@XZ 
?getRealString@EditBox@MyGUI@@AEAAAEBVUString@2@XZ 
?getRect@RotatingSkinStateInfo@MyGUI@@QEBAAEBU?$TRect@M@types@2@XZ 
?getRect@SubSkinStateInfo@MyGUI@@QEBAAEBU?$TRect@M@types@2@XZ 
?getRect@TileRectStateInfo@MyGUI@@QEBAAEBU?$TRect@M@types@2@XZ 
?getRenderTarget@ITexture@MyGUI@@UEAAPEAVIRenderTarget@2@XZ 
?getRenderTarget@RenderItem@MyGUI@@QEAAPEAVIRenderTarget@2@XZ 
?getRepeatEnabled@ScrollBar@MyGUI@@QEBA_NXZ 
?getRepeatStepTime@ScrollBar@MyGUI@@QEBAMM@Z 
?getRepeatTriggerTime@ScrollBar@MyGUI@@QEBAMM@Z 
?getResizeMode@Canvas@MyGUI@@QEBA?AW4TextureResizeMode@12@XZ 
?getResourceName@IResource@MyGUI@@QEBAAEBV?$basic_string@DU?$char_traits@D@std@@V?$allocator@D@2@@std@@XZ 
?getRight@ICroppedRectangle@MyGUI@@QEBAHXZ 
?getRoot@Document@xml@MyGUI@@QEBAPEAVElement@23@XZ 
?getRootKeyFocus@WidgetInput@MyGUI@@QEBA_NXZ 
?getRootMouseFocus@WidgetInput@MyGUI@@QEBA_NXZ 
?getSTDOutputEnabled@LogManager@MyGUI@@QEBA_NXZ 
?getScrollPage@ScrollBar@MyGUI@@QEBA_KXZ 
?getScrollPosition@ScrollBar@MyGUI@@QEBA_KXZ 
?getScrollRange@ScrollBar@MyGUI@@QEBA_KXZ 
?getScrollValue@Slider@MyGUI@@QEBAHXZ 
?getScrollViewPage@ScrollBar@MyGUI@@QEBA_KXZ 
?getScrollWheelPage@ScrollBar@MyGUI@@QEBA_KXZ 
?getSelectBackground@EditText@MyGUI@@UEBA_NXZ 
?getSelectBackground@ISubWidgetText@MyGUI@@UEBA_NXZ 
?getSeparator@MultiListBox@MyGUI@@AEAAPEAVWidget@2@_K@Z 
?getShadow@EditText@MyGUI@@UEBA_NXZ 
?getShadow@ISubWidgetText@MyGUI@@UEBA_NXZ 
?getShadowColour@EditText@MyGUI@@UEBAAEBUColour@2@XZ 
?getShadowColour@ISubWidgetText@MyGUI@@UEBAAEBUColour@2@XZ 
?getShift@EditTextStateInfo@MyGUI@@QEBA_NXZ 
?getSize@ICroppedRectangle@MyGUI@@QEBA?AU?$TSize@H@types@2@XZ 
?getSize@OverlappedLayer@MyGUI@@UEBAAEBU?$TSize@H@types@2@XZ 
?getSize@ResourceSkin@MyGUI@@QEBAAEBU?$TSize@H@types@2@XZ 
?getSize@ResourceTrueTypeFont@MyGUI@@QEBAMXZ 
?getSize@SharedLayer@MyGUI@@UEBAAEBU?$TSize@H@types@2@XZ 
?getSize@TextIterator@MyGUI@@QEBA_KXZ 
?getSkinByType@MenuControl@MyGUI@@AEBAAEBV?$basic_string@DU?$char_traits@D@std@@V?$allocator@D@2@@std@@UMenuItemType@2@@Z 
?getSkinName@ResourceSkin@MyGUI@@QEBAAEBV?$basic_string@DU?$char_traits@D@std@@V?$allocator@D@2@@std@@XZ 
?getSkinRename@BackwardCompatibility@MyGUI@@SA?AV?$basic_string@DU?$char_traits@D@std@@V?$allocator@D@2@@std@@AEBV34@@Z 
?getSkinWidgetsByName@Widget@MyGUI@@IEAA?AV?$vector@PEAVWidget@MyGUI@@V?$allocator@PEAVWidget@MyGUI@@@std@@@std@@AEBV?$basic_string@DU?$char_traits@D@std@@V?$allocator@D@2@@4@@Z 
?getSlider@MultiSlider@MyGUI@@QEAAPEAVSlider@2@_K@Z 
?getSliderCaption@MultiSlider@MyGUI@@QEAAAEBVUString@2@_K@Z 
?getSmoothShow@ComboBox@MyGUI@@QEBA_NXZ 
?getSmoothShow@TabControl@MyGUI@@QEBA_NXZ 
?getSnap@Window@MyGUI@@QEBA_NXZ 
?getSnappedCoord@Window@MyGUI@@AEAAXAEAU?$TCoord@H@types@2@@Z 
?getSource@Exception@MyGUI@@UEBAAEBV?$basic_string@DU?$char_traits@D@std@@V?$allocator@D@2@@std@@XZ 
?getStateCategoryName@SubWidgetManager@MyGUI@@QEBAAEBV?$basic_string@DU?$char_traits@D@std@@V?$allocator@D@2@@std@@XZ 
?getStateInfo@ResourceSkin@MyGUI@@QEBAAEBV?$map@V?$basic_string@DU?$char_traits@D@std@@V?$allocator@D@2@@std@@V?$vector@PEAVIStateInfo@MyGUI@@V?$allocator@PEAVIStateInfo@MyGUI@@@std@@@2@U?$less@V?$basic_string@DU?$char_traits@D@std@@V?$allocator@D@2@@std@@@2@V?$allocator@U?$pair@$$CBV?$basic_string@DU?$char_traits@D@std@@V?$allocator@D@2@@std@@V?$vector@PEAVIStateInfo@MyGUI@@V?$allocator@PEAVIStateInfo@MyGUI@@@std@@@2@@std@@@2@@std@@XZ 
?getStateSelected@Button@MyGUI@@QEBA_NXZ 
?getSubItemAt@MultiListBox@MyGUI@@AEAAPEAVListBox@2@_K@Z 
?getSubItemNameAt@MultiListBox@MyGUI@@QEAAAEBVUString@2@_K0@Z 
?getSubWidgetMain@SkinItem@MyGUI@@QEAAPEAVISubWidgetRect@2@XZ 
?getSubWidgetText@SkinItem@MyGUI@@QEAAPEAVISubWidgetText@2@XZ 
?getSubstituteCodePoint@ResourceTrueTypeFont@MyGUI@@QEBAIXZ 
?getSymbol@DynLib@MyGUI@@QEBAPEAXAEBV?$basic_string@DU?$char_traits@D@std@@V?$allocator@D@2@@std@@@Z 
?getTabPrinting@EditBox@MyGUI@@QEBA_NXZ 
?getTag@LanguageManager@MyGUI@@QEAA?AVUString@2@AEBV32@@Z 
?getTagColour@TextIterator@MyGUI@@AEBA_NAEAVUString@2@AEAV_fwd_iterator@32@@Z 
?getTagColour@TextIterator@MyGUI@@QEBA_NAEAVUString@2@@Z 
?getText@TextIterator@MyGUI@@QEBAAEBVUString@2@XZ 
?getTextAlign@EditText@MyGUI@@UEBA?AUAlign@2@XZ 
?getTextAlign@ISubWidgetText@MyGUI@@UEBA?AUAlign@2@XZ 
?getTextAlign@TextBox@MyGUI@@QEAA?AUAlign@2@XZ 
?getTextCharInfo@TextIterator@MyGUI@@SA?AVUString@2@I@Z 
?getTextColour@EditText@MyGUI@@UEBAAEBUColour@2@XZ 
?getTextColour@ISubWidgetText@MyGUI@@UEBAAEBUColour@2@XZ 
?getTextColour@TextBox@MyGUI@@QEAAAEBUColour@2@XZ 
?getTextCursor@EditBox@MyGUI@@QEBA_KXZ 
?getTextInterval@EditBox@MyGUI@@QEAA?AVUString@2@_K0@Z 
?getTextLength@EditBox@MyGUI@@QEBA_KXZ 
?getTextNewLine@TextIterator@MyGUI@@SA?AVUString@2@XZ 
?getTextRegion@EditBox@MyGUI@@UEAA?AU?$TCoord@H@types@2@XZ 
?getTextRegion@TextBox@MyGUI@@UEAA?AU?$TCoord@H@types@2@XZ 
?getTextSelection@EditBox@MyGUI@@QEAA?AVUString@2@XZ 
?getTextSelectionEnd@EditBox@MyGUI@@QEBA_KXZ 
?getTextSelectionEnd@EditText@MyGUI@@UEBA_KXZ 
?getTextSelectionEnd@ISubWidgetText@MyGUI@@UEBA_KXZ 
?getTextSelectionLength@EditBox@MyGUI@@QEBA_KXZ 
?getTextSelectionStart@EditBox@MyGUI@@QEBA_KXZ 
?getTextSelectionStart@EditText@MyGUI@@UEBA_KXZ 
?getTextSelectionStart@ISubWidgetText@MyGUI@@UEBA_KXZ 
?getTextShadow@TextBox@MyGUI@@QEAA_NXZ 
?getTextShadowColour@TextBox@MyGUI@@QEAAAEBUColour@2@XZ 
?getTextSize@EditBox@MyGUI@@UEAA?AU?$TSize@H@types@2@XZ 
?getTextSize@EditText@MyGUI@@UEAA?AU?$TSize@H@types@2@XZ 
?getTextSize@ISubWidgetText@MyGUI@@UEAA?AU?$TSize@H@types@2@XZ 
?getTextSize@TextBox@MyGUI@@UEAA?AU?$TSize@H@types@2@XZ 
?getTexture@Canvas@MyGUI@@QEBAPEAVITexture@2@XZ 
?getTexture@RenderItem@MyGUI@@QEAAPEAVITexture@2@XZ 
?getTextureFont@ResourceManualFont@MyGUI@@UEAAPEAVITexture@2@XZ 
?getTextureFont@ResourceTrueTypeFont@MyGUI@@UEAAPEAVITexture@2@XZ 
?getTextureFormat@Canvas@MyGUI@@QEBA?AUPixelFormat@2@XZ 
?getTextureName@Canvas@MyGUI@@QEBAAEBV?$basic_string@DU?$char_traits@D@std@@V?$allocator@D@2@@std@@XZ 
?getTextureName@ResourceSkin@MyGUI@@QEBAAEBV?$basic_string@DU?$char_traits@D@std@@V?$allocator@D@2@@std@@XZ 
?getTextureRealHeight@Canvas@MyGUI@@QEBAHXZ 
?getTextureRealSize@Canvas@MyGUI@@QEBA?AU?$TSize@H@types@2@XZ 
?getTextureRealWidth@Canvas@MyGUI@@QEBAHXZ 
?getTextureSize@texture_utility@MyGUI@@YAAEBU?$TSize@H@types@2@AEBV?$basic_string@DU?$char_traits@D@std@@V?$allocator@D@2@@std@@_N@Z 
?getTextureSrcHeight@Canvas@MyGUI@@QEBAHXZ 
?getTextureSrcSize@Canvas@MyGUI@@QEBA?AU?$TSize@H@types@2@XZ 
?getTextureSrcWidth@Canvas@MyGUI@@QEBAHXZ 
?getTileH@TileRectStateInfo@MyGUI@@QEBA_NXZ 
?getTileSize@TileRectStateInfo@MyGUI@@QEBAAEBU?$TSize@H@types@2@XZ 
?getTileV@TileRectStateInfo@MyGUI@@QEBA_NXZ 
?getToolTipIndex@ToolTipManager@MyGUI@@AEBA_KPEAVWidget@2@@Z 
?getTop@ICroppedRectangle@MyGUI@@QEBAHXZ 
?getTrackPlaceLength@ScrollBar@MyGUI@@IEBAHXZ 
?getTrackSize@ScrollBar@MyGUI@@QEBAHXZ 
?getType@Any@MyGUI@@QEBAAEBVtype_info@@XZ 
?getType@Element@xml@MyGUI@@QEBA?AUElementType@23@XZ 
?getTypeName@Button@MyGUI@@UEBAAEBV?$basic_string@DU?$char_traits@D@std@@V?$allocator@D@2@@std@@XZ 
?getTypeName@Canvas@MyGUI@@UEBAAEBV?$basic_string@DU?$char_traits@D@std@@V?$allocator@D@2@@std@@XZ 
?getTypeName@ComboBox@MyGUI@@UEBAAEBV?$basic_string@DU?$char_traits@D@std@@V?$allocator@D@2@@std@@XZ 
?getTypeName@ControllerEdgeHide@MyGUI@@UEBAAEBV?$basic_string@DU?$char_traits@D@std@@V?$allocator@D@2@@std@@XZ 
?getTypeName@ControllerFadeAlpha@MyGUI@@UEBAAEBV?$basic_string@DU?$char_traits@D@std@@V?$allocator@D@2@@std@@XZ 
?getTypeName@ControllerItem@MyGUI@@UEBAAEBV?$basic_string@DU?$char_traits@D@std@@V?$allocator@D@2@@std@@XZ 
?getTypeName@ControllerPosition@MyGUI@@UEBAAEBV?$basic_string@DU?$char_traits@D@std@@V?$allocator@D@2@@std@@XZ 
?getTypeName@DDContainer@MyGUI@@UEBAAEBV?$basic_string@DU?$char_traits@D@std@@V?$allocator@D@2@@std@@XZ 
?getTypeName@EditBox@MyGUI@@UEBAAEBV?$basic_string@DU?$char_traits@D@std@@V?$allocator@D@2@@std@@XZ 
?getTypeName@EditText@MyGUI@@UEBAAEBV?$basic_string@DU?$char_traits@D@std@@V?$allocator@D@2@@std@@XZ 
?getTypeName@EditTextStateInfo@MyGUI@@UEBAAEBV?$basic_string@DU?$char_traits@D@std@@V?$allocator@D@2@@std@@XZ 
?getTypeName@IFont@MyGUI@@UEBAAEBV?$basic_string@DU?$char_traits@D@std@@V?$allocator@D@2@@std@@XZ 
?getTypeName@ILayer@MyGUI@@UEBAAEBV?$basic_string@DU?$char_traits@D@std@@V?$allocator@D@2@@std@@XZ 
?getTypeName@ILayerNode@MyGUI@@UEBAAEBV?$basic_string@DU?$char_traits@D@std@@V?$allocator@D@2@@std@@XZ 
?getTypeName@IObject@MyGUI@@UEBAAEBV?$basic_string@DU?$char_traits@D@std@@V?$allocator@D@2@@std@@XZ 
?getTypeName@IPointer@MyGUI@@UEBAAEBV?$basic_string@DU?$char_traits@D@std@@V?$allocator@D@2@@std@@XZ 
?getTypeName@IResource@MyGUI@@UEBAAEBV?$basic_string@DU?$char_traits@D@std@@V?$allocator@D@2@@std@@XZ 
?getTypeName@ISerializable@MyGUI@@UEBAAEBV?$basic_string@DU?$char_traits@D@std@@V?$allocator@D@2@@std@@XZ 
?getTypeName@IStateInfo@MyGUI@@UEBAAEBV?$basic_string@DU?$char_traits@D@std@@V?$allocator@D@2@@std@@XZ 
?getTypeName@ISubWidget@MyGUI@@UEBAAEBV?$basic_string@DU?$char_traits@D@std@@V?$allocator@D@2@@std@@XZ 
?getTypeName@ISubWidgetRect@MyGUI@@UEBAAEBV?$basic_string@DU?$char_traits@D@std@@V?$allocator@D@2@@std@@XZ 
?getTypeName@ISubWidgetText@MyGUI@@UEBAAEBV?$basic_string@DU?$char_traits@D@std@@V?$allocator@D@2@@std@@XZ 
?getTypeName@ImageBox@MyGUI@@UEBAAEBV?$basic_string@DU?$char_traits@D@std@@V?$allocator@D@2@@std@@XZ 
?getTypeName@ItemBox@MyGUI@@UEBAAEBV?$basic_string@DU?$char_traits@D@std@@V?$allocator@D@2@@std@@XZ 
?getTypeName@LayerNode@MyGUI@@UEBAAEBV?$basic_string@DU?$char_traits@D@std@@V?$allocator@D@2@@std@@XZ 
?getTypeName@ListBox@MyGUI@@UEBAAEBV?$basic_string@DU?$char_traits@D@std@@V?$allocator@D@2@@std@@XZ 
?getTypeName@ListScrollBar@MyGUI@@UEBAAEBV?$basic_string@DU?$char_traits@D@std@@V?$allocator@D@2@@std@@XZ 
?getTypeName@MainSkin@MyGUI@@UEBAAEBV?$basic_string@DU?$char_traits@D@std@@V?$allocator@D@2@@std@@XZ 
?getTypeName@MenuBar@MyGUI@@UEBAAEBV?$basic_string@DU?$char_traits@D@std@@V?$allocator@D@2@@std@@XZ 
?getTypeName@MenuControl@MyGUI@@UEBAAEBV?$basic_string@DU?$char_traits@D@std@@V?$allocator@D@2@@std@@XZ 
?getTypeName@MenuItem@MyGUI@@UEBAAEBV?$basic_string@DU?$char_traits@D@std@@V?$allocator@D@2@@std@@XZ 
?getTypeName@MultiListBox@MyGUI@@UEBAAEBV?$basic_string@DU?$char_traits@D@std@@V?$allocator@D@2@@std@@XZ 
?getTypeName@MultiListItem@MyGUI@@UEBAAEBV?$basic_string@DU?$char_traits@D@std@@V?$allocator@D@2@@std@@XZ 
?getTypeName@MultiSlider@MyGUI@@UEBAAEBV?$basic_string@DU?$char_traits@D@std@@V?$allocator@D@2@@std@@XZ 
?getTypeName@OverlappedLayer@MyGUI@@UEBAAEBV?$basic_string@DU?$char_traits@D@std@@V?$allocator@D@2@@std@@XZ 
?getTypeName@PolygonalSkin@MyGUI@@UEBAAEBV?$basic_string@DU?$char_traits@D@std@@V?$allocator@D@2@@std@@XZ 
?getTypeName@PopupMenu@MyGUI@@UEBAAEBV?$basic_string@DU?$char_traits@D@std@@V?$allocator@D@2@@std@@XZ 
?getTypeName@ProgressBar@MyGUI@@UEBAAEBV?$basic_string@DU?$char_traits@D@std@@V?$allocator@D@2@@std@@XZ 
?getTypeName@ResourceImageSet@MyGUI@@UEBAAEBV?$basic_string@DU?$char_traits@D@std@@V?$allocator@D@2@@std@@XZ 
?getTypeName@ResourceImageSetPointer@MyGUI@@UEBAAEBV?$basic_string@DU?$char_traits@D@std@@V?$allocator@D@2@@std@@XZ 
?getTypeName@ResourceLayout@MyGUI@@UEBAAEBV?$basic_string@DU?$char_traits@D@std@@V?$allocator@D@2@@std@@XZ 
?getTypeName@ResourceManualFont@MyGUI@@UEBAAEBV?$basic_string@DU?$char_traits@D@std@@V?$allocator@D@2@@std@@XZ 
?getTypeName@ResourceManualPointer@MyGUI@@UEBAAEBV?$basic_string@DU?$char_traits@D@std@@V?$allocator@D@2@@std@@XZ 
?getTypeName@ResourceSkin@MyGUI@@UEBAAEBV?$basic_string@DU?$char_traits@D@std@@V?$allocator@D@2@@std@@XZ 
?getTypeName@ResourceTrueTypeFont@MyGUI@@UEBAAEBV?$basic_string@DU?$char_traits@D@std@@V?$allocator@D@2@@std@@XZ 
?getTypeName@RotatingSkin@MyGUI@@UEBAAEBV?$basic_string@DU?$char_traits@D@std@@V?$allocator@D@2@@std@@XZ 
?getTypeName@RotatingSkinStateInfo@MyGUI@@UEBAAEBV?$basic_string@DU?$char_traits@D@std@@V?$allocator@D@2@@std@@XZ 
?getTypeName@ScrollBar@MyGUI@@UEBAAEBV?$basic_string@DU?$char_traits@D@std@@V?$allocator@D@2@@std@@XZ 
?getTypeName@ScrollView@MyGUI@@UEBAAEBV?$basic_string@DU?$char_traits@D@std@@V?$allocator@D@2@@std@@XZ 
?getTypeName@SharedLayer@MyGUI@@UEBAAEBV?$basic_string@DU?$char_traits@D@std@@V?$allocator@D@2@@std@@XZ 
?getTypeName@SharedLayerNode@MyGUI@@UEBAAEBV?$basic_string@DU?$char_traits@D@std@@V?$allocator@D@2@@std@@XZ 
?getTypeName@SimpleText@MyGUI@@UEBAAEBV?$basic_string@DU?$char_traits@D@std@@V?$allocator@D@2@@std@@XZ 
?getTypeName@Slider@MyGUI@@UEBAAEBV?$basic_string@DU?$char_traits@D@std@@V?$allocator@D@2@@std@@XZ 
?getTypeName@SubSkin@MyGUI@@UEBAAEBV?$basic_string@DU?$char_traits@D@std@@V?$allocator@D@2@@std@@XZ 
?getTypeName@SubSkinStateInfo@MyGUI@@UEBAAEBV?$basic_string@DU?$char_traits@D@std@@V?$allocator@D@2@@std@@XZ 
?getTypeName@TabControl@MyGUI@@UEBAAEBV?$basic_string@DU?$char_traits@D@std@@V?$allocator@D@2@@std@@XZ 
?getTypeName@TabItem@MyGUI@@UEBAAEBV?$basic_string@DU?$char_traits@D@std@@V?$allocator@D@2@@std@@XZ 
?getTypeName@TextBox@MyGUI@@UEBAAEBV?$basic_string@DU?$char_traits@D@std@@V?$allocator@D@2@@std@@XZ 
?getTypeName@TileRect@MyGUI@@UEBAAEBV?$basic_string@DU?$char_traits@D@std@@V?$allocator@D@2@@std@@XZ 
?getTypeName@TileRectStateInfo@MyGUI@@UEBAAEBV?$basic_string@DU?$char_traits@D@std@@V?$allocator@D@2@@std@@XZ 
?getTypeName@Widget@MyGUI@@UEBAAEBV?$basic_string@DU?$char_traits@D@std@@V?$allocator@D@2@@std@@XZ 
?getTypeName@Window@MyGUI@@UEBAAEBV?$basic_string@DU?$char_traits@D@std@@V?$allocator@D@2@@std@@XZ 
?getUpdateByResize@MultiListBox@MyGUI@@AEAA_NXZ 
?getUserString@UserData@MyGUI@@QEBAAEBV?$basic_string@DU?$char_traits@D@std@@V?$allocator@D@2@@std@@AEBV34@@Z 
?getUserStrings@UserData@MyGUI@@QEBAAEBV?$map@V?$basic_string@DU?$char_traits@D@std@@V?$allocator@D@2@@std@@V12@U?$less@V?$basic_string@DU?$char_traits@D@std@@V?$allocator@D@2@@std@@@2@V?$allocator@U?$pair@$$CBV?$basic_string@DU?$char_traits@D@std@@V?$allocator@D@2@@std@@V12@@std@@@2@@std@@XZ 
?getVScroll@ScrollView@MyGUI@@QEAAPEAVScrollBar@2@XZ 
?getVScrollPage@EditBox@MyGUI@@EEAA_KXZ 
?getVScrollPage@ItemBox@MyGUI@@EEAA_KXZ 
?getVScrollPage@ScrollView@MyGUI@@EEAA_KXZ 
?getVScrollPage@ScrollViewBase@MyGUI@@MEAA_KXZ 
?getVScrollPosition@EditBox@MyGUI@@QEAA_KXZ 
?getVScrollRange@EditBox@MyGUI@@QEBA_KXZ 
?getValue@Align@MyGUI@@QEBAHXZ 
?getValue@DDItemState@MyGUI@@QEBAHXZ 
?getValue@FlowDirection@MyGUI@@QEBAHXZ 
?getValue@KeyCode@MyGUI@@QEBAHXZ 
?getValue@LogLevel@MyGUI@@QEBAHXZ 
?getValue@MenuItemType@MyGUI@@QEBAHXZ 
?getValue@MouseButton@MyGUI@@QEBAHXZ 
?getValue@PixelFormat@MyGUI@@QEBAHXZ 
?getValue@ResizingPolicy@MyGUI@@QEBAHXZ 
?getValue@TextureUsage@MyGUI@@QEBAHXZ 
?getValue@VertexColourType@MyGUI@@QEBAHXZ 
?getValue@WidgetStyle@MyGUI@@QEBAHXZ 
?getValueName@FlowDirection@MyGUI@@AEBAPEBDH@Z 
?getValueName@LogLevel@MyGUI@@AEBAPEBDH@Z 
?getValueName@MenuItemType@MyGUI@@AEBAPEBDH@Z 
?getValueName@ResizingPolicy@MyGUI@@AEBAPEBDH@Z 
?getValueName@WidgetStyle@MyGUI@@AEBAPEBDH@Z 
?getValueNames@Align@MyGUI@@AEBAAEBV?$map@V?$basic_string@DU?$char_traits@D@std@@V?$allocator@D@2@@std@@HU?$less@V?$basic_string@DU?$char_traits@D@std@@V?$allocator@D@2@@std@@@2@V?$allocator@U?$pair@$$CBV?$basic_string@DU?$char_traits@D@std@@V?$allocator@D@2@@std@@H@std@@@2@@std@@XZ 
?getValueSelected@ListScrollBar@MyGUI@@QEBAAEBV?$basic_string@DU?$char_traits@D@std@@V?$allocator@D@2@@std@@XZ 
?getValueSelectedIndex@ListScrollBar@MyGUI@@QEBA_KXZ 
?getVertexCount@RenderItem@MyGUI@@QEBA_KXZ 
?getVerticalAlignment@ItemBox@MyGUI@@QEBA_NXZ 
?getVerticalAlignment@MenuControl@MyGUI@@QEBA_NXZ 
?getVerticalAlignment@ScrollBar@MyGUI@@QEBA_NXZ 
?getViewCoord@ScrollView@MyGUI@@QEBA?AU?$TCoord@H@types@2@XZ 
?getViewOffset@EditText@MyGUI@@UEBA?AU?$TPoint@H@types@2@XZ 
?getViewOffset@ISubWidgetText@MyGUI@@UEBA?AU?$TPoint@H@types@2@XZ 
?getViewOffset@ItemBox@MyGUI@@QEAA?AU?$TPoint@H@types@2@XZ 
?getViewOffset@ScrollView@MyGUI@@QEBA?AU?$TPoint@H@types@2@XZ 
?getViewSize@EditBox@MyGUI@@EEAA?AU?$TSize@H@types@2@XZ 
?getViewSize@ItemBox@MyGUI@@UEAA?AU?$TSize@H@types@2@XZ 
?getViewSize@ScrollView@MyGUI@@EEAA?AU?$TSize@H@types@2@XZ 
?getViewSize@ScrollViewBase@MyGUI@@MEAA?AU?$TSize@H@types@2@XZ 
?getVisible@Widget@MyGUI@@QEBA_NXZ 
?getWidgetByIndex@ItemBox@MyGUI@@QEAAPEAVWidget@2@_K@Z 
?getWidgetByIndex@ListBox@MyGUI@@QEAAPEAVWidget@2@_K@Z 
?getWidgetDrag@ItemBox@MyGUI@@QEAAPEAVWidget@2@XZ 
?getWidgetFromPoint@LayerManager@MyGUI@@QEAAPEAVWidget@2@HH@Z 
?getWidgetStyle@Widget@MyGUI@@QEBA?AUWidgetStyle@2@XZ 
?getWidgets@ItemBox@MyGUI@@QEBA?AV?$vector@PEAVWidget@MyGUI@@V?$allocator@PEAVWidget@MyGUI@@@std@@@std@@XZ 
?getWidth@ICroppedRectangle@MyGUI@@QEBAHXZ 
?getZeroFloatCoord@Constants@MyGUI@@SAAEBU?$TCoord@M@types@2@XZ 
?getZeroFloatPoint@Constants@MyGUI@@SAAEBU?$TPoint@M@types@2@XZ 
?getZeroFloatSize@Constants@MyGUI@@SAAEBU?$TSize@M@types@2@XZ 
?getZeroIntCoord@Constants@MyGUI@@SAAEBU?$TCoord@H@types@2@XZ 
?getZeroIntPoint@Constants@MyGUI@@SAAEBU?$TPoint@H@types@2@XZ 
?getZeroIntSize@Constants@MyGUI@@SAAEBU?$TSize@H@types@2@XZ 
?handleClipboardChanged@WindowsClipboardHandler@MyGUI@@QEAAXAEBV?$basic_string@DU?$char_traits@D@std@@V?$allocator@D@2@@std@@0@Z 
?handleClipboardRequested@WindowsClipboardHandler@MyGUI@@QEAAXAEBV?$basic_string@DU?$char_traits@D@std@@V?$allocator@D@2@@std@@AEAV34@@Z 
?hideList@ComboBox@MyGUI@@AEAAXXZ 
?hideToolTip@ToolTipManager@MyGUI@@AEAAXPEAVWidget@2@@Z 
?inString@UString@MyGUI@@QEBA_NI@Z 
?inertionalMoveFunction@action@MyGUI@@YAXAEBU?$TCoord@H@types@2@0AEAU342@M@Z 
?initialise@BackwardCompatibility@MyGUI@@SAXXZ 
?initialise@ClipboardManager@MyGUI@@QEAAXXZ 
?initialise@ColourManager@MyGUI@@QEAAXXZ 
?initialise@ControllerManager@MyGUI@@QEAAXXZ 
?initialise@DynLibManager@MyGUI@@QEAAXXZ 
?initialise@FactoryManager@MyGUI@@QEAAXXZ 
?initialise@FontManager@MyGUI@@QEAAXXZ 
?initialise@Gui@MyGUI@@QEAAXAEBV?$basic_string@DU?$char_traits@D@std@@V?$allocator@D@2@@std@@@Z 
?initialise@InputManager@MyGUI@@QEAAXXZ 
?initialise@LanguageManager@MyGUI@@QEAAXXZ 
?initialise@LayerManager@MyGUI@@QEAAXXZ 
?initialise@LayoutManager@MyGUI@@QEAAXXZ 
?initialise@PluginManager@MyGUI@@QEAAXXZ 
?initialise@PointerManager@MyGUI@@QEAAXXZ 
?initialise@ResourceManager@MyGUI@@QEAAXXZ 
?initialise@ResourceTrueTypeFont@MyGUI@@QEAAXXZ 
?initialise@SkinManager@MyGUI@@QEAAXXZ 
?initialise@SubWidgetManager@MyGUI@@QEAAXXZ 
?initialise@ToolTipManager@MyGUI@@QEAAXXZ 
?initialise@WidgetManager@MyGUI@@QEAAXXZ 
?initialise@WindowsClipboardHandler@MyGUI@@QEAAXXZ 
?initialiseOverride@Button@MyGUI@@MEAAXXZ 
?initialiseOverride@Canvas@MyGUI@@MEAAXXZ 
?initialiseOverride@ComboBox@MyGUI@@MEAAXXZ 
?initialiseOverride@EditBox@MyGUI@@MEAAXXZ 
?initialiseOverride@ItemBox@MyGUI@@MEAAXXZ 
?initialiseOverride@ListBox@MyGUI@@MEAAXXZ 
?initialiseOverride@ListScrollBar@MyGUI@@MEAAXXZ 
?initialiseOverride@MenuControl@MyGUI@@MEAAXXZ 
?initialiseOverride@MenuItem@MyGUI@@MEAAXXZ 
?initialiseOverride@MultiListBox@MyGUI@@MEAAXXZ 
?initialiseOverride@MultiListItem@MyGUI@@MEAAXXZ 
?initialiseOverride@MultiSlider@MyGUI@@MEAAXXZ 
?initialiseOverride@ProgressBar@MyGUI@@MEAAXXZ 
?initialiseOverride@ScrollBar@MyGUI@@MEAAXXZ 
?initialiseOverride@ScrollView@MyGUI@@MEAAXXZ 
?initialiseOverride@Slider@MyGUI@@MEAAXXZ 
?initialiseOverride@TabControl@MyGUI@@MEAAXXZ 
?initialiseOverride@TabItem@MyGUI@@MEAAXXZ 
?initialiseOverride@Widget@MyGUI@@MEAAXXZ 
?initialiseOverride@Window@MyGUI@@MEAAXXZ 
?initialiseWidgetSkinBase@Widget@MyGUI@@AEAAPEBUWidgetInfo@2@PEAVResourceSkin@2@PEAVResourceLayout@2@@Z 
?injectKeyPress@InputManager@MyGUI@@QEAA_NUKeyCode@2@I@Z 
?injectKeyRelease@InputManager@MyGUI@@QEAA_NUKeyCode@2@@Z 
?injectMouseMove@InputManager@MyGUI@@QEAA_NHHH@Z 
?injectMousePress@InputManager@MyGUI@@QEAA_NHHUMouseButton@2@@Z 
?injectMouseRelease@InputManager@MyGUI@@QEAA_NHHUMouseButton@2@@Z 
?insert@TextIterator@MyGUI@@AEAAXAEAV_fwd_iterator@UString@2@AEAV42@@Z 
?insert@UString@MyGUI@@QEAA?AV_fwd_iterator@12@V312@AEBG@Z 
?insert@UString@MyGUI@@QEAAAEAV12@_K0D@Z 
?insert@UString@MyGUI@@QEAAAEAV12@_K0G@Z 
?insert@UString@MyGUI@@QEAAAEAV12@_K0I@Z 
?insert@UString@MyGUI@@QEAAAEAV12@_K0_W@Z 
?insert@UString@MyGUI@@QEAAAEAV12@_KAEBV12@00@Z 
?insert@UString@MyGUI@@QEAAAEAV12@_KAEBV12@@Z 
?insert@UString@MyGUI@@QEAAAEAV12@_KPEBD0@Z 
?insert@UString@MyGUI@@QEAAAEAV12@_KPEBG0@Z 
?insert@UString@MyGUI@@QEAAAEAV12@_KPEBG@Z 
?insert@UString@MyGUI@@QEAAAEAV12@_KPEB_W0@Z 
?insert@UString@MyGUI@@QEAAXV_fwd_iterator@12@00@Z 
?insert@UString@MyGUI@@QEAAXV_fwd_iterator@12@_KAEBD@Z 
?insert@UString@MyGUI@@QEAAXV_fwd_iterator@12@_KAEBG@Z 
?insert@UString@MyGUI@@QEAAXV_fwd_iterator@12@_KAEBI@Z 
?insert@UString@MyGUI@@QEAAXV_fwd_iterator@12@_KAEB_W@Z 
?insertColumnAt@MultiListBox@MyGUI@@QEAAX_KAEBVUString@2@HVAny@2@@Z 
?insertItem@ImageBox@MyGUI@@QEAAX_KAEBU?$TCoord@H@types@2@@Z 
?insertItem@MenuControl@MyGUI@@QEAAPEAVMenuItem@2@PEAV32@AEBVUString@2@UMenuItemType@2@AEBV?$basic_string@DU?$char_traits@D@std@@V?$allocator@D@2@@std@@VAny@2@@Z 
?insertItem@TabControl@MyGUI@@QEAAPEAVTabItem@2@PEAV32@AEBVUString@2@VAny@2@@Z 
?insertItemAt@BiIndexBase@MyGUI@@IEAA_K_K@Z 
?insertItemAt@ComboBox@MyGUI@@QEAAX_KAEBVUString@2@VAny@2@@Z 
?insertItemAt@ItemBox@MyGUI@@QEAAX_KVAny@2@_N@Z 
?insertItemAt@ListBox@MyGUI@@QEAAX_KAEBVUString@2@VAny@2@@Z 
?insertItemAt@MenuControl@MyGUI@@QEAAPEAVMenuItem@2@_KAEBVUString@2@UMenuItemType@2@AEBV?$basic_string@DU?$char_traits@D@std@@V?$allocator@D@2@@std@@VAny@2@@Z 
?insertItemAt@MultiListBox@MyGUI@@QEAAX_KAEBVUString@2@VAny@2@@Z 
?insertItemAt@TabControl@MyGUI@@QEAAPEAVTabItem@2@_KAEBVUString@2@VAny@2@@Z 
?insertItemFrame@ImageBox@MyGUI@@QEAAX_K0AEBU?$TCoord@H@types@2@@Z 
?insertItemFrameDuplicate@ImageBox@MyGUI@@QEAAX_K00@Z 
?insertText@EditBox@MyGUI@@AEAAXAEBVUString@2@_K_N@Z 
?insertText@EditBox@MyGUI@@QEAAXAEBVUString@2@_K@Z 
?insertText@TextIterator@MyGUI@@QEAAXAEBVUString@2@_N@Z 
?installPlugin@PluginManager@MyGUI@@QEAAXPEAVIPlugin@2@@Z 
?isBottom@Align@MyGUI@@QEBA_NXZ 
?isCaptureMouse@InputManager@MyGUI@@QEBA_NXZ 
?isCenter@Align@MyGUI@@QEBA_NXZ 
?isControlPressed@InputManager@MyGUI@@QEBA_NXZ 
?isDefault@Align@MyGUI@@QEBA_NXZ 
?isExist@ColourManager@MyGUI@@QEBA_NAEBV?$basic_string@DU?$char_traits@D@std@@V?$allocator@D@2@@std@@@Z 
?isExist@LayerManager@MyGUI@@QEBA_NAEBV?$basic_string@DU?$char_traits@D@std@@V?$allocator@D@2@@std@@@Z 
?isExist@LayoutManager@MyGUI@@QEBA_NAEBV?$basic_string@DU?$char_traits@D@std@@V?$allocator@D@2@@std@@@Z 
?isExist@ResourceManager@MyGUI@@QEBA_NAEBV?$basic_string@DU?$char_traits@D@std@@V?$allocator@D@2@@std@@@Z 
?isExist@SkinManager@MyGUI@@QEBA_NAEBV?$basic_string@DU?$char_traits@D@std@@V?$allocator@D@2@@std@@@Z 
?isFactoryExist@FactoryManager@MyGUI@@QEAA_NAEBV?$basic_string@DU?$char_traits@D@std@@V?$allocator@D@2@@std@@0@Z 
?isFactoryExist@WidgetManager@MyGUI@@QEAA_NAEBV?$basic_string@DU?$char_traits@D@std@@V?$allocator@D@2@@std@@@Z 
?isFocusKey@InputManager@MyGUI@@QEBA_NXZ 
?isFocusMouse@InputManager@MyGUI@@QEBA_NXZ 
?isFormatSupported@RenderManager@MyGUI@@UEAA_NUPixelFormat@2@UTextureUsage@2@@Z 
?isHCenter@Align@MyGUI@@QEBA_NXZ 
?isHStretch@Align@MyGUI@@QEBA_NXZ 
?isHorizontal@FlowDirection@MyGUI@@QEBA_NXZ 
?isIgnoreProperty@BackwardCompatibility@MyGUI@@SA_NAEBV?$basic_string@DU?$char_traits@D@std@@V?$allocator@D@2@@std@@@Z 
?isItemSelectedVisible@ListBox@MyGUI@@QEAA_N_N@Z 
?isItemVisibleAt@ListBox@MyGUI@@QEAA_N_K_N@Z 
?isLeft@Align@MyGUI@@QEBA_NXZ 
?isLocked@Canvas@MyGUI@@QEBA_NXZ 
?isMaskPickInside@WidgetInput@MyGUI@@QEBA_NAEBU?$TPoint@H@types@2@AEBU?$TCoord@H@42@@Z 
?isModalAny@InputManager@MyGUI@@QEBA_NXZ 
?isNeedToolTip@ToolTipManager@MyGUI@@AEAA_NPEAVWidget@2@@Z 
?isOutOfDate@LayerNode@MyGUI@@QEBA_NXZ 
?isOutOfDate@OverlappedLayer@MyGUI@@QEBA_NXZ 
?isOutOfDate@RenderItem@MyGUI@@QEBA_NXZ 
?isOutOfDate@SharedLayer@MyGUI@@QEBA_NXZ 
?isRight@Align@MyGUI@@QEBA_NXZ 
?isRootWidget@Widget@MyGUI@@QEBA_NXZ 
?isShiftPressed@InputManager@MyGUI@@QEBA_NXZ 
?isStretch@Align@MyGUI@@QEBA_NXZ 
?isTextSelection@EditBox@MyGUI@@QEBA_NXZ 
?isTextureCreated@Canvas@MyGUI@@QEBA_NXZ 
?isTextureManaged@Canvas@MyGUI@@QEBA_NXZ 
?isTextureSrcSize@Canvas@MyGUI@@QEBA_NXZ 
?isTop@Align@MyGUI@@QEBA_NXZ 
?isType@Button@MyGUI@@UEBA_NAEBVtype_info@@@Z 
?isType@Canvas@MyGUI@@UEBA_NAEBVtype_info@@@Z 
?isType@ComboBox@MyGUI@@UEBA_NAEBVtype_info@@@Z 
?isType@ControllerEdgeHide@MyGUI@@UEBA_NAEBVtype_info@@@Z 
?isType@ControllerFadeAlpha@MyGUI@@UEBA_NAEBVtype_info@@@Z 
?isType@ControllerItem@MyGUI@@UEBA_NAEBVtype_info@@@Z 
?isType@ControllerPosition@MyGUI@@UEBA_NAEBVtype_info@@@Z 
?isType@DDContainer@MyGUI@@UEBA_NAEBVtype_info@@@Z 
?isType@EditBox@MyGUI@@UEBA_NAEBVtype_info@@@Z 
?isType@EditText@MyGUI@@UEBA_NAEBVtype_info@@@Z 
?isType@EditTextStateInfo@MyGUI@@UEBA_NAEBVtype_info@@@Z 
?isType@IFont@MyGUI@@UEBA_NAEBVtype_info@@@Z 
?isType@ILayer@MyGUI@@UEBA_NAEBVtype_info@@@Z 
?isType@ILayerNode@MyGUI@@UEBA_NAEBVtype_info@@@Z 
?isType@IObject@MyGUI@@UEBA_NAEBVtype_info@@@Z 
?isType@IPointer@MyGUI@@UEBA_NAEBVtype_info@@@Z 
?isType@IResource@MyGUI@@UEBA_NAEBVtype_info@@@Z 
?isType@ISerializable@MyGUI@@UEBA_NAEBVtype_info@@@Z 
?isType@IStateInfo@MyGUI@@UEBA_NAEBVtype_info@@@Z 
?isType@ISubWidget@MyGUI@@UEBA_NAEBVtype_info@@@Z 
?isType@ISubWidgetRect@MyGUI@@UEBA_NAEBVtype_info@@@Z 
?isType@ISubWidgetText@MyGUI@@UEBA_NAEBVtype_info@@@Z 
?isType@ImageBox@MyGUI@@UEBA_NAEBVtype_info@@@Z 
?isType@ItemBox@MyGUI@@UEBA_NAEBVtype_info@@@Z 
?isType@LayerNode@MyGUI@@UEBA_NAEBVtype_info@@@Z 
?isType@ListBox@MyGUI@@UEBA_NAEBVtype_info@@@Z 
?isType@ListScrollBar@MyGUI@@UEBA_NAEBVtype_info@@@Z 
?isType@MainSkin@MyGUI@@UEBA_NAEBVtype_info@@@Z 
?isType@MenuBar@MyGUI@@UEBA_NAEBVtype_info@@@Z 
?isType@MenuControl@MyGUI@@UEBA_NAEBVtype_info@@@Z 
?isType@MenuItem@MyGUI@@UEBA_NAEBVtype_info@@@Z 
?isType@MultiListBox@MyGUI@@UEBA_NAEBVtype_info@@@Z 
?isType@MultiListItem@MyGUI@@UEBA_NAEBVtype_info@@@Z 
?isType@MultiSlider@MyGUI@@UEBA_NAEBVtype_info@@@Z 
?isType@OverlappedLayer@MyGUI@@UEBA_NAEBVtype_info@@@Z 
?isType@PolygonalSkin@MyGUI@@UEBA_NAEBVtype_info@@@Z 
?isType@PopupMenu@MyGUI@@UEBA_NAEBVtype_info@@@Z 
?isType@ProgressBar@MyGUI@@UEBA_NAEBVtype_info@@@Z 
?isType@ResourceImageSet@MyGUI@@UEBA_NAEBVtype_info@@@Z 
?isType@ResourceImageSetPointer@MyGUI@@UEBA_NAEBVtype_info@@@Z 
?isType@ResourceLayout@MyGUI@@UEBA_NAEBVtype_info@@@Z 
?isType@ResourceManualFont@MyGUI@@UEBA_NAEBVtype_info@@@Z 
?isType@ResourceManualPointer@MyGUI@@UEBA_NAEBVtype_info@@@Z 
?isType@ResourceSkin@MyGUI@@UEBA_NAEBVtype_info@@@Z 
?isType@ResourceTrueTypeFont@MyGUI@@UEBA_NAEBVtype_info@@@Z 
?isType@RotatingSkin@MyGUI@@UEBA_NAEBVtype_info@@@Z 
?isType@RotatingSkinStateInfo@MyGUI@@UEBA_NAEBVtype_info@@@Z 
?isType@ScrollBar@MyGUI@@UEBA_NAEBVtype_info@@@Z 
?isType@ScrollView@MyGUI@@UEBA_NAEBVtype_info@@@Z 
?isType@SharedLayer@MyGUI@@UEBA_NAEBVtype_info@@@Z 
?isType@SharedLayerNode@MyGUI@@UEBA_NAEBVtype_info@@@Z 
?isType@SimpleText@MyGUI@@UEBA_NAEBVtype_info@@@Z 
?isType@Slider@MyGUI@@UEBA_NAEBVtype_info@@@Z 
?isType@SubSkin@MyGUI@@UEBA_NAEBVtype_info@@@Z 
?isType@SubSkinStateInfo@MyGUI@@UEBA_NAEBVtype_info@@@Z 
?isType@TabControl@MyGUI@@UEBA_NAEBVtype_info@@@Z 
?isType@TabItem@MyGUI@@UEBA_NAEBVtype_info@@@Z 
?isType@TextBox@MyGUI@@UEBA_NAEBVtype_info@@@Z 
?isType@TileRect@MyGUI@@UEBA_NAEBVtype_info@@@Z 
?isType@TileRectStateInfo@MyGUI@@UEBA_NAEBVtype_info@@@Z 
?isType@Widget@MyGUI@@UEBA_NAEBVtype_info@@@Z 
?isType@Window@MyGUI@@UEBA_NAEBVtype_info@@@Z 
?isUserString@UserData@MyGUI@@QEBA_NAEBV?$basic_string@DU?$char_traits@D@std@@V?$allocator@D@2@@std@@@Z 
?isVCenter@Align@MyGUI@@QEBA_NXZ 
?isVStretch@Align@MyGUI@@QEBA_NXZ 
?isValue@TextureUsage@MyGUI@@QEBA_NW4Enum@12@@Z 
?isVertical@FlowDirection@MyGUI@@QEBA_NXZ 
?isVisible@PointerManager@MyGUI@@QEBA_NXZ 
?isVisibleCursor@EditText@MyGUI@@UEBA_NXZ 
?isVisibleCursor@ISubWidgetText@MyGUI@@UEBA_NXZ 
?isVisibleHScroll@EditBox@MyGUI@@QEBA_NXZ 
?isVisibleHScroll@ScrollView@MyGUI@@QEBA_NXZ 
?isVisibleVScroll@EditBox@MyGUI@@QEBA_NXZ 
?isVisibleVScroll@ScrollView@MyGUI@@QEBA_NXZ 
?length@UString@MyGUI@@QEBA_KXZ 
?length_Characters@UString@MyGUI@@QEBA_KXZ 
?linearMoveFunction@action@MyGUI@@YAXAEBU?$TCoord@H@types@2@0AEAU342@M@Z 
?load@DynLib@MyGUI@@QEAA_NXZ 
?load@DynLibManager@MyGUI@@QEAAPEAVDynLib@2@AEBV?$basic_string@DU?$char_traits@D@std@@V?$allocator@D@2@@std@@@Z 
?load@MaskPickInfo@MyGUI@@QEAA_NAEBV?$basic_string@DU?$char_traits@D@std@@V?$allocator@D@2@@std@@@Z 
?load@ResourceManager@MyGUI@@QEAA_NAEBV?$basic_string@DU?$char_traits@D@std@@V?$allocator@D@2@@std@@@Z 
?loadFace@ResourceTrueTypeFont@MyGUI@@AEAAPEAUFT_FaceRec_@@AEBQEAUFT_LibraryRec_@@AEAPEAE@Z 
?loadFromXmlNode@ResourceManager@MyGUI@@QEAAXPEAVElement@xml@2@AEBV?$basic_string@DU?$char_traits@D@std@@V?$allocator@D@2@@std@@VVersion@2@@Z 
?loadLanguage@LanguageManager@MyGUI@@AEAA_NAEBV?$basic_string@DU?$char_traits@D@std@@V?$allocator@D@2@@std@@_N@Z 
?loadLayout@LayoutManager@MyGUI@@QEAA?AV?$vector@PEAVWidget@MyGUI@@V?$allocator@PEAVWidget@MyGUI@@@std@@@std@@AEBV?$basic_string@DU?$char_traits@D@std@@V?$allocator@D@2@@4@0PEAVWidget@2@@Z 
?loadPlugin@PluginManager@MyGUI@@QEAA_NAEBV?$basic_string@DU?$char_traits@D@std@@V?$allocator@D@2@@std@@@Z 
?loadTexture@ResourceManualFont@MyGUI@@AEAAXXZ 
?loadUserTags@LanguageManager@MyGUI@@QEAA_NAEBV?$basic_string@DU?$char_traits@D@std@@V?$allocator@D@2@@std@@@Z 
?lock@Canvas@MyGUI@@QEAAPEAXUTextureUsage@2@@Z 
?log@ConsoleLogListener@MyGUI@@UEAAXAEBV?$basic_string@DU?$char_traits@D@std@@V?$allocator@D@2@@std@@ULogLevel@2@PEBUtm@@0PEBDH@Z 
?log@FileLogListener@MyGUI@@UEAAXAEBV?$basic_string@DU?$char_traits@D@std@@V?$allocator@D@2@@std@@ULogLevel@2@PEBUtm@@0PEBDH@Z 
?log@ILogListener@MyGUI@@UEAAXAEBV?$basic_string@DU?$char_traits@D@std@@V?$allocator@D@2@@std@@ULogLevel@2@PEBUtm@@0PEBDH@Z 
?log@LogManager@MyGUI@@QEAAXAEBV?$basic_string@DU?$char_traits@D@std@@V?$allocator@D@2@@std@@ULogLevel@2@0PEBDH@Z 
?log@LogSource@MyGUI@@QEAAXAEBV?$basic_string@DU?$char_traits@D@std@@V?$allocator@D@2@@std@@ULogLevel@2@PEBUtm@@0PEBDH@Z 
?mClassTypeName@?$Singleton@VClipboardManager@MyGUI@@@MyGUI@@0PEBDEB 
?mClassTypeName@?$Singleton@VColourManager@MyGUI@@@MyGUI@@0PEBDEB 
?mClassTypeName@?$Singleton@VControllerManager@MyGUI@@@MyGUI@@0PEBDEB 
?mClassTypeName@?$Singleton@VDataManager@MyGUI@@@MyGUI@@0PEBDEB 
?mClassTypeName@?$Singleton@VDynLibManager@MyGUI@@@MyGUI@@0PEBDEB 
?mClassTypeName@?$Singleton@VFactoryManager@MyGUI@@@MyGUI@@0PEBDEB 
?mClassTypeName@?$Singleton@VFontManager@MyGUI@@@MyGUI@@0PEBDEB 
?mClassTypeName@?$Singleton@VGui@MyGUI@@@MyGUI@@0PEBDEB 
?mClassTypeName@?$Singleton@VInputManager@MyGUI@@@MyGUI@@0PEBDEB 
?mClassTypeName@?$Singleton@VLanguageManager@MyGUI@@@MyGUI@@0PEBDEB 
?mClassTypeName@?$Singleton@VLayerManager@MyGUI@@@MyGUI@@0PEBDEB 
?mClassTypeName@?$Singleton@VLayoutManager@MyGUI@@@MyGUI@@0PEBDEB 
?mClassTypeName@?$Singleton@VPluginManager@MyGUI@@@MyGUI@@0PEBDEB 
?mClassTypeName@?$Singleton@VPointerManager@MyGUI@@@MyGUI@@0PEBDEB 
?mClassTypeName@?$Singleton@VRenderManager@MyGUI@@@MyGUI@@0PEBDEB 
?mClassTypeName@?$Singleton@VResourceManager@MyGUI@@@MyGUI@@0PEBDEB 
?mClassTypeName@?$Singleton@VScaleManager@MyGUI@@@MyGUI@@0PEBDEB 
?mClassTypeName@?$Singleton@VSkinManager@MyGUI@@@MyGUI@@0PEBDEB 
?mClassTypeName@?$Singleton@VSubWidgetManager@MyGUI@@@MyGUI@@0PEBDEB 
?mClassTypeName@?$Singleton@VToolTipManager@MyGUI@@@MyGUI@@0PEBDEB 
?mClassTypeName@?$Singleton@VWidgetManager@MyGUI@@@MyGUI@@0PEBDEB 
?mCursorWidth@ResourceTrueTypeFont@MyGUI@@0MB 
?mDefaultGlyphSpacing@ResourceTrueTypeFont@MyGUI@@0HB 
?mDefaultTabWidth@ResourceTrueTypeFont@MyGUI@@0MB 
?mFloatCoord@Constants@MyGUI@@0U?$TCoord@M@types@2@A 
?mFloatPoint@Constants@MyGUI@@0U?$TPoint@M@types@2@A 
?mFloatSize@Constants@MyGUI@@0U?$TSize@M@types@2@A 
?mFramesEmpty@ResourceImageSet@MyGUI@@0V?$vector@U?$TPoint@H@types@MyGUI@@V?$allocator@U?$TPoint@H@types@MyGUI@@@std@@@std@@A 
?mIntCoord@Constants@MyGUI@@0U?$TCoord@H@types@2@A 
?mIntPoint@Constants@MyGUI@@0U?$TPoint@H@types@2@A 
?mIntSize@Constants@MyGUI@@0U?$TSize@H@types@2@A 
?mSelectedWidth@ResourceTrueTypeFont@MyGUI@@0MB 
?mString@Constants@MyGUI@@0V?$basic_string@DU?$char_traits@D@std@@V?$allocator@D@2@@std@@A 
?mUString@Constants@MyGUI@@0VUString@2@A 
?map_names@?1??getValueNames@Align@MyGUI@@AEBAAEBV?$map@V?$basic_string@DU?$char_traits@D@std@@V?$allocator@D@2@@std@@HU?$less@V?$basic_string@DU?$char_traits@D@std@@V?$allocator@D@2@@std@@@2@V?$allocator@U?$pair@$$CBV?$basic_string@DU?$char_traits@D@std@@V?$allocator@D@2@@std@@H@std@@@2@@std@@XZ@4V45@A 
?max_size@UString@MyGUI@@QEBA_KXZ 
?merge@LayerManager@MyGUI@@AEAAXAEAV?$vector@PEAVILayer@MyGUI@@V?$allocator@PEAVILayer@MyGUI@@@std@@@std@@@Z 
?mouseButtonPressed@DDContainer@MyGUI@@IEAAXUMouseButton@2@@Z 
?mouseButtonReleased@DDContainer@MyGUI@@IEAAXUMouseButton@2@@Z 
?mouseDrag@DDContainer@MyGUI@@IEAAXUMouseButton@2@@Z 
?moveNext@TextIterator@MyGUI@@QEAA_NXZ 
?moveNext@_const_fwd_iterator@UString@MyGUI@@QEAAAEAV123@XZ 
?moveNext@_fwd_iterator@UString@MyGUI@@QEAAAEAV123@XZ 
?movePrev@_const_fwd_iterator@UString@MyGUI@@QEAAAEAV123@XZ 
?movePrev@_fwd_iterator@UString@MyGUI@@QEAAAEAV123@XZ 
?moveToolTip@ToolTipManager@MyGUI@@AEAAXPEAVWidget@2@_KAEBU?$TPoint@H@types@2@@Z 
?msInstance@?$Singleton@VClipboardManager@MyGUI@@@MyGUI@@0PEAVClipboardManager@2@EA 
?msInstance@?$Singleton@VColourManager@MyGUI@@@MyGUI@@0PEAVColourManager@2@EA 
?msInstance@?$Singleton@VControllerManager@MyGUI@@@MyGUI@@0PEAVControllerManager@2@EA 
?msInstance@?$Singleton@VDataManager@MyGUI@@@MyGUI@@0PEAVDataManager@2@EA 
?msInstance@?$Singleton@VDynLibManager@MyGUI@@@MyGUI@@0PEAVDynLibManager@2@EA 
?msInstance@?$Singleton@VFactoryManager@MyGUI@@@MyGUI@@0PEAVFactoryManager@2@EA 
?msInstance@?$Singleton@VFontManager@MyGUI@@@MyGUI@@0PEAVFontManager@2@EA 
?msInstance@?$Singleton@VGui@MyGUI@@@MyGUI@@0PEAVGui@2@EA 
?msInstance@?$Singleton@VInputManager@MyGUI@@@MyGUI@@0PEAVInputManager@2@EA 
?msInstance@?$Singleton@VLanguageManager@MyGUI@@@MyGUI@@0PEAVLanguageManager@2@EA 
?msInstance@?$Singleton@VLayerManager@MyGUI@@@MyGUI@@0PEAVLayerManager@2@EA 
?msInstance@?$Singleton@VLayoutManager@MyGUI@@@MyGUI@@0PEAVLayoutManager@2@EA 
?msInstance@?$Singleton@VPluginManager@MyGUI@@@MyGUI@@0PEAVPluginManager@2@EA 
?msInstance@?$Singleton@VPointerManager@MyGUI@@@MyGUI@@0PEAVPointerManager@2@EA 
?msInstance@?$Singleton@VRenderManager@MyGUI@@@MyGUI@@0PEAVRenderManager@2@EA 
?msInstance@?$Singleton@VResourceManager@MyGUI@@@MyGUI@@0PEAVResourceManager@2@EA 
?msInstance@?$Singleton@VScaleManager@MyGUI@@@MyGUI@@0PEAVScaleManager@2@EA 
?msInstance@?$Singleton@VSkinManager@MyGUI@@@MyGUI@@0PEAVSkinManager@2@EA 
?msInstance@?$Singleton@VSubWidgetManager@MyGUI@@@MyGUI@@0PEAVSubWidgetManager@2@EA 
?msInstance@?$Singleton@VToolTipManager@MyGUI@@@MyGUI@@0PEAVToolTipManager@2@EA 
?msInstance@?$Singleton@VWidgetManager@MyGUI@@@MyGUI@@0PEAVWidgetManager@2@EA 
?msInstance@LogManager@MyGUI@@0PEAV12@EA 
?next@ElementEnumerator@xml@MyGUI@@QEAA_NAEBV?$basic_string@DU?$char_traits@D@std@@V?$allocator@D@2@@std@@@Z 
?next@ElementEnumerator@xml@MyGUI@@QEAA_NXZ 
?normaliseNewLine@TextIterator@MyGUI@@AEAAXAEAVUString@2@@Z 
?notifyButtonClick@MultiListBox@MyGUI@@AEAAXPEAVWidget@2@@Z 
?notifyButtonPressed@ComboBox@MyGUI@@AEAAXPEAVWidget@2@HHUMouseButton@2@@Z 
?notifyChangeMouseFocus@PointerManager@MyGUI@@AEAAXPEAVWidget@2@@Z 
?notifyEditTextChange@ComboBox@MyGUI@@AEAAXPEAVEditBox@2@@Z 
?notifyEventFrameStart@DynLibManager@MyGUI@@AEAAXM@Z 
?notifyEventFrameStart@ToolTipManager@MyGUI@@AEAAXM@Z 
?notifyEventFrameStart@WidgetManager@MyGUI@@AEAAXM@Z 
?notifyFrameStart@PointerManager@MyGUI@@AEAAXM@Z 
?notifyInvalideDrop@DDContainer@MyGUI@@MEAAXPEAV12@@Z 
?notifyKeyButtonPressed@ItemBox@MyGUI@@IEAAXPEAVWidget@2@UKeyCode@2@I@Z 
?notifyKeyButtonPressed@ListBox@MyGUI@@IEAAXPEAVWidget@2@UKeyCode@2@I@Z 
?notifyKeyButtonReleased@ItemBox@MyGUI@@IEAAXPEAVWidget@2@UKeyCode@2@@Z 
?notifyKeyButtonReleased@ListBox@MyGUI@@IEAAXPEAVWidget@2@UKeyCode@2@@Z 
?notifyListChangeFocus@MultiListBox@MyGUI@@AEAAXPEAVListBox@2@_K@Z 
?notifyListChangePosition@ComboBox@MyGUI@@AEAAXPEAVListBox@2@_K@Z 
?notifyListChangePosition@MultiListBox@MyGUI@@AEAAXPEAVListBox@2@_K@Z 
?notifyListChangeScrollPosition@MultiListBox@MyGUI@@AEAAXPEAVListBox@2@_K@Z 
?notifyListLostFocus@ComboBox@MyGUI@@AEAAXPEAVWidget@2@0@Z 
?notifyListMouseItemActivate@ComboBox@MyGUI@@AEAAXPEAVListBox@2@_K@Z 
?notifyListSelectAccept@ComboBox@MyGUI@@AEAAXPEAVListBox@2@_K@Z 
?notifyListSelectAccept@MultiListBox@MyGUI@@AEAAXPEAVListBox@2@_K@Z 
?notifyMenuCtrlAccept@MenuControl@MyGUI@@AEAAXPEAVMenuItem@2@@Z 
?notifyMouseButtonClick@MenuControl@MyGUI@@AEAAXPEAVWidget@2@@Z 
?notifyMouseButtonDoubleClick@EditBox@MyGUI@@IEAAXPEAVWidget@2@@Z 
?notifyMouseButtonDoubleClick@ItemBox@MyGUI@@IEAAXPEAVWidget@2@@Z 
?notifyMouseButtonPressed@ItemBox@MyGUI@@IEAAXPEAVWidget@2@HHUMouseButton@2@@Z 
?notifyMouseButtonReleased@ItemBox@MyGUI@@IEAAXPEAVWidget@2@HHUMouseButton@2@@Z 
?notifyMouseButtonReleased@ListBox@MyGUI@@IEAAXPEAVWidget@2@HHUMouseButton@2@@Z 
?notifyMouseClick@ListBox@MyGUI@@IEAAXPEAVWidget@2@@Z 
?notifyMouseDoubleClick@ListBox@MyGUI@@IEAAXPEAVWidget@2@@Z 
?notifyMouseDrag@EditBox@MyGUI@@IEAAXPEAVWidget@2@HHUMouseButton@2@@Z 
?notifyMouseDrag@ItemBox@MyGUI@@IEAAXPEAVWidget@2@HHUMouseButton@2@@Z 
?notifyMouseDrag@ScrollBar@MyGUI@@IEAAXPEAVWidget@2@HHUMouseButton@2@@Z 
?notifyMouseDrag@Window@MyGUI@@IEAAXPEAVWidget@2@HHUMouseButton@2@@Z 
?notifyMouseLostFocus@EditBox@MyGUI@@IEAAXPEAVWidget@2@0@Z 
?notifyMouseLostFocus@ListBox@MyGUI@@IEAAXPEAVWidget@2@0@Z 
?notifyMousePressed@ComboBox@MyGUI@@AEAAXPEAVWidget@2@HHUMouseButton@2@@Z 
?notifyMousePressed@EditBox@MyGUI@@IEAAXPEAVWidget@2@HHUMouseButton@2@@Z 
?notifyMousePressed@ListBox@MyGUI@@IEAAXPEAVWidget@2@HHUMouseButton@2@@Z 
?notifyMousePressed@ScrollBar@MyGUI@@IEAAXPEAVWidget@2@HHUMouseButton@2@@Z 
?notifyMousePressed@Window@MyGUI@@IEAAXPEAVWidget@2@HHUMouseButton@2@@Z 
?notifyMouseReleased@EditBox@MyGUI@@IEAAXPEAVWidget@2@HHUMouseButton@2@@Z 
?notifyMouseReleased@ScrollBar@MyGUI@@IEAAXPEAVWidget@2@HHUMouseButton@2@@Z 
?notifyMouseReleased@Window@MyGUI@@IEAAXPEAVWidget@2@HHUMouseButton@2@@Z 
?notifyMouseSetFocus@EditBox@MyGUI@@IEAAXPEAVWidget@2@0@Z 
?notifyMouseSetFocus@ListBox@MyGUI@@IEAAXPEAVWidget@2@0@Z 
?notifyMouseSetFocus@MenuControl@MyGUI@@AEAAXPEAVWidget@2@0@Z 
?notifyMouseWheel@ComboBox@MyGUI@@AEAAXPEAVWidget@2@H@Z 
?notifyMouseWheel@EditBox@MyGUI@@IEAAXPEAVWidget@2@H@Z 
?notifyMouseWheel@ItemBox@MyGUI@@IEAAXPEAVWidget@2@H@Z 
?notifyMouseWheel@ListBox@MyGUI@@IEAAXPEAVWidget@2@H@Z 
?notifyMouseWheel@ScrollBar@MyGUI@@IEAAXPEAVWidget@2@H@Z 
?notifyMouseWheel@ScrollView@MyGUI@@IEAAXPEAVWidget@2@H@Z 
?notifyMouseWheel@Window@MyGUI@@IEAAXPEAVWidget@2@H@Z 
?notifyPressedBarButtonEvent@TabControl@MyGUI@@IEAAXPEAVWidget@2@@Z 
?notifyPressedButtonEvent@TabControl@MyGUI@@IEAAXPEAVWidget@2@@Z 
?notifyPressedButtonEvent@Window@MyGUI@@IEAAXPEAVWidget@2@@Z 
?notifyRootKeyChangeFocus@MenuControl@MyGUI@@AEAAXPEAVWidget@2@_N@Z 
?notifyRootMouseChangeFocus@ItemBox@MyGUI@@IEAAXPEAVWidget@2@_N@Z 
?notifyScrollChangePosition@EditBox@MyGUI@@IEAAXPEAVScrollBar@2@_K@Z 
?notifyScrollChangePosition@ItemBox@MyGUI@@IEAAXPEAVScrollBar@2@_K@Z 
?notifyScrollChangePosition@ListBox@MyGUI@@IEAAXPEAVScrollBar@2@_K@Z 
?notifyScrollChangePosition@ScrollView@MyGUI@@IEAAXPEAVScrollBar@2@_K@Z 
?notifyToolTip@ComboBox@MyGUI@@AEAAXPEAVWidget@2@AEBUToolTipInfo@2@@Z 
?npos@UString@MyGUI@@2_KB 
?onFrameEvent@RenderManager@MyGUI@@MEAAXM@Z 
?onKeyButtonPressed@ComboBox@MyGUI@@MEAAXUKeyCode@2@I@Z 
?onKeyButtonPressed@EditBox@MyGUI@@MEAAXUKeyCode@2@I@Z 
?onKeyButtonPressed@ItemBox@MyGUI@@MEAAXUKeyCode@2@I@Z 
?onKeyButtonPressed@ListBox@MyGUI@@MEAAXUKeyCode@2@I@Z 
?onKeyButtonPressed@WidgetInput@MyGUI@@MEAAXUKeyCode@2@I@Z 
?onKeyButtonReleased@ItemBox@MyGUI@@MEAAXUKeyCode@2@@Z 
?onKeyButtonReleased@ListBox@MyGUI@@MEAAXUKeyCode@2@@Z 
?onKeyButtonReleased@WidgetInput@MyGUI@@MEAAXUKeyCode@2@@Z 
?onKeyChangeRootFocus@MenuControl@MyGUI@@MEAAX_N@Z 
?onKeyChangeRootFocus@WidgetInput@MyGUI@@MEAAX_N@Z 
?onKeyChangeRootFocus@Window@MyGUI@@MEAAX_N@Z 
?onKeyLostFocus@EditBox@MyGUI@@MEAAXPEAVWidget@2@@Z 
?onKeyLostFocus@ItemBox@MyGUI@@MEAAXPEAVWidget@2@@Z 
?onKeyLostFocus@WidgetInput@MyGUI@@MEAAXPEAVWidget@2@@Z 
?onKeySetFocus@EditBox@MyGUI@@MEAAXPEAVWidget@2@@Z 
?onKeySetFocus@ItemBox@MyGUI@@MEAAXPEAVWidget@2@@Z 
?onKeySetFocus@WidgetInput@MyGUI@@MEAAXPEAVWidget@2@@Z 
?onMouseButtonClick@WidgetInput@MyGUI@@MEAAXXZ 
?onMouseButtonDoubleClick@WidgetInput@MyGUI@@MEAAXXZ 
?onMouseButtonPressed@Button@MyGUI@@MEAAXHHUMouseButton@2@@Z 
?onMouseButtonPressed@DDContainer@MyGUI@@MEAAXHHUMouseButton@2@@Z 
?onMouseButtonPressed@ItemBox@MyGUI@@MEAAXHHUMouseButton@2@@Z 
?onMouseButtonPressed@WidgetInput@MyGUI@@MEAAXHHUMouseButton@2@@Z 
?onMouseButtonPressed@Window@MyGUI@@MEAAXHHUMouseButton@2@@Z 
?onMouseButtonReleased@Button@MyGUI@@MEAAXHHUMouseButton@2@@Z 
?onMouseButtonReleased@DDContainer@MyGUI@@MEAAXHHUMouseButton@2@@Z 
?onMouseButtonReleased@ItemBox@MyGUI@@MEAAXHHUMouseButton@2@@Z 
?onMouseButtonReleased@WidgetInput@MyGUI@@MEAAXHHUMouseButton@2@@Z 
?onMouseButtonReleased@Window@MyGUI@@MEAAXHHUMouseButton@2@@Z 
?onMouseChangeRootFocus@WidgetInput@MyGUI@@MEAAX_N@Z 
?onMouseChangeRootFocus@Window@MyGUI@@MEAAX_N@Z 
?onMouseDrag@DDContainer@MyGUI@@MEAAXHHUMouseButton@2@@Z 
?onMouseDrag@EditBox@MyGUI@@MEAAXHHUMouseButton@2@@Z 
?onMouseDrag@ItemBox@MyGUI@@MEAAXHHUMouseButton@2@@Z 
?onMouseDrag@WidgetInput@MyGUI@@MEAAXHHUMouseButton@2@@Z 
?onMouseDrag@Window@MyGUI@@MEAAXHHUMouseButton@2@@Z 
?onMouseLostFocus@Button@MyGUI@@MEAAXPEAVWidget@2@@Z 
?onMouseLostFocus@WidgetInput@MyGUI@@MEAAXPEAVWidget@2@@Z 
?onMouseMove@WidgetInput@MyGUI@@MEAAXHH@Z 
?onMouseSetFocus@Button@MyGUI@@MEAAXPEAVWidget@2@@Z 
?onMouseSetFocus@WidgetInput@MyGUI@@MEAAXPEAVWidget@2@@Z 
?onMouseWheel@ItemBox@MyGUI@@MEAAXH@Z 
?onMouseWheel@ListBox@MyGUI@@MEAAXH@Z 
?onMouseWheel@ScrollBar@MyGUI@@MEAAXH@Z 
?onMouseWheel@WidgetInput@MyGUI@@MEAAXH@Z 
?onRenderToTarget@RenderManager@MyGUI@@MEAAXPEAVIRenderTarget@2@_N@Z 
?onResizeView@RenderManager@MyGUI@@MEAAXAEBU?$TSize@H@types@2@@Z 
?onWidgetCreated@MenuControl@MyGUI@@MEAAXPEAVWidget@2@@Z 
?onWidgetCreated@MenuItem@MyGUI@@MEAAXPEAVWidget@2@@Z 
?onWidgetCreated@MultiListBox@MyGUI@@MEAAXPEAVWidget@2@@Z 
?onWidgetCreated@TabControl@MyGUI@@MEAAXPEAVWidget@2@@Z 
?onWidgetCreated@Widget@MyGUI@@MEAAXPEAV12@@Z 
?onWidgetDestroy@MultiListBox@MyGUI@@MEAAXPEAVWidget@2@@Z 
?onWidgetDestroy@Widget@MyGUI@@MEAAXPEAV12@@Z 
?open@Document@xml@MyGUI@@QEAA_NAEAV?$basic_istream@DU?$char_traits@D@std@@@std@@@Z 
?open@Document@xml@MyGUI@@QEAA_NAEBV?$basic_string@DU?$char_traits@D@std@@V?$allocator@D@2@@std@@@Z 
?open@Document@xml@MyGUI@@QEAA_NAEBV?$basic_string@_WU?$char_traits@_W@std@@V?$allocator@_W@2@@std@@@Z 
?open@Document@xml@MyGUI@@QEAA_NAEBVUString@3@@Z 
?open@Document@xml@MyGUI@@QEAA_NPEAVIDataStream@3@@Z 
?open@FileLogListener@MyGUI@@UEAAXXZ 
?open@ILogListener@MyGUI@@UEAAXXZ 
?open@LogSource@MyGUI@@QEAAXXZ 
?operatorShiftLeft@Colour@MyGUI@@SAAEAV?$basic_ostream@DU?$char_traits@D@std@@@std@@AEAV34@AEBU12@@Z 
?operatorShiftRight@Colour@MyGUI@@SAAEAV?$basic_istream@DU?$char_traits@D@std@@@std@@AEAV34@AEAU12@@Z 
?outOfDate@LayerNode@MyGUI@@UEAAXPEAVRenderItem@2@@Z 
?outOfDate@RenderItem@MyGUI@@QEAAXXZ 
?parse@Align@MyGUI@@SA?AU12@AEBV?$basic_string@DU?$char_traits@D@std@@V?$allocator@D@2@@std@@@Z 
?parse@Colour@MyGUI@@SA?AU12@AEBV?$basic_string@DU?$char_traits@D@std@@V?$allocator@D@2@@std@@@Z 
?parse@FlowDirection@MyGUI@@SA?AU12@AEBV?$basic_string@DU?$char_traits@D@std@@V?$allocator@D@2@@std@@@Z 
?parse@LogLevel@MyGUI@@SA?AU12@AEBV?$basic_string@DU?$char_traits@D@std@@V?$allocator@D@2@@std@@@Z 
?parse@MenuItemType@MyGUI@@SA?AU12@AEBV?$basic_string@DU?$char_traits@D@std@@V?$allocator@D@2@@std@@@Z 
?parse@ResizingPolicy@MyGUI@@SA?AU12@AEBV?$basic_string@DU?$char_traits@D@std@@V?$allocator@D@2@@std@@@Z 
?parse@Version@MyGUI@@SA?AV12@AEBV?$basic_string@DU?$char_traits@D@std@@V?$allocator@D@2@@std@@@Z 
?parse@WidgetStyle@MyGUI@@SA?AU12@AEBV?$basic_string@DU?$char_traits@D@std@@V?$allocator@D@2@@std@@@Z 
?parseLine@Document@xml@MyGUI@@AEAA_NAEAV?$basic_string@DU?$char_traits@D@std@@V?$allocator@D@2@@std@@AEAPEAVElement@23@@Z 
?parseTag@Document@xml@MyGUI@@AEAA_NAEAPEAVElement@23@V?$basic_string@DU?$char_traits@D@std@@V?$allocator@D@2@@std@@@Z 
?parseWidget@ResourceLayout@MyGUI@@IEAA?AUWidgetInfo@2@AEAVElementEnumerator@xml@2@_N@Z 
?pick@MaskPickInfo@MyGUI@@QEBA_NAEBU?$TPoint@H@types@2@AEBU?$TCoord@H@42@@Z 
?prepareItem@ControllerEdgeHide@MyGUI@@UEAAXPEAVWidget@2@@Z 
?prepareItem@ControllerFadeAlpha@MyGUI@@UEAAXPEAVWidget@2@@Z 
?prepareItem@ControllerPosition@MyGUI@@UEAAXPEAVWidget@2@@Z 
?prepareStream@DataMemoryStream@MyGUI@@AEAAXXZ 
?print@Align@MyGUI@@QEBA?AV?$basic_string@DU?$char_traits@D@std@@V?$allocator@D@2@@std@@XZ 
?print@Colour@MyGUI@@QEBA?AV?$basic_string@DU?$char_traits@D@std@@V?$allocator@D@2@@std@@XZ 
?print@FlowDirection@MyGUI@@QEBA?AV?$basic_string@DU?$char_traits@D@std@@V?$allocator@D@2@@std@@XZ 
?print@LogLevel@MyGUI@@QEBA?AV?$basic_string@DU?$char_traits@D@std@@V?$allocator@D@2@@std@@XZ 
?print@MenuItemType@MyGUI@@QEBA?AV?$basic_string@DU?$char_traits@D@std@@V?$allocator@D@2@@std@@XZ 
?print@ResizingPolicy@MyGUI@@QEBA?AV?$basic_string@DU?$char_traits@D@std@@V?$allocator@D@2@@std@@XZ 
?print@Version@MyGUI@@QEBA?AV?$basic_string@DU?$char_traits@D@std@@V?$allocator@D@2@@std@@XZ 
?print@WidgetStyle@MyGUI@@QEBA?AV?$basic_string@DU?$char_traits@D@std@@V?$allocator@D@2@@std@@XZ 
?push_back@UString@MyGUI@@QEAAXD@Z 
?push_back@UString@MyGUI@@QEAAXG@Z 
?push_back@UString@MyGUI@@QEAAXI@Z 
?push_back@UString@MyGUI@@QEAAX_W@Z 
?rbegin@UString@MyGUI@@QEAA?AV_rev_iterator@12@XZ 
?rbegin@UString@MyGUI@@QEBA?AV_const_rev_iterator@12@XZ 
?read@DataMemoryStream@MyGUI@@UEAA_KPEAX_K@Z 
?read@DataStream@MyGUI@@UEAA_KPEAX_K@Z 
?readline@DataMemoryStream@MyGUI@@UEAAXAEAV?$basic_string@DU?$char_traits@D@std@@V?$allocator@D@2@@std@@I@Z 
?readline@DataStream@MyGUI@@UEAAXAEAV?$basic_string@DU?$char_traits@D@std@@V?$allocator@D@2@@std@@I@Z 
?reallockDrawItem@RenderItem@MyGUI@@QEAAXPEAVISubWidget@2@_K@Z 
?recalcIndexes@ImageBox@MyGUI@@AEAAXXZ 
?recalculateTime@ControllerEdgeHide@MyGUI@@AEAAXPEAVWidget@2@@Z 
?redrawAllItems@ItemBox@MyGUI@@QEAAXXZ 
?redrawButtons@MultiListBox@MyGUI@@AEAAXXZ 
?redrawItemAt@ItemBox@MyGUI@@QEAAX_K@Z 
?refreshMouseFocusWidget@InputManager@MyGUI@@QEAAPEAVWidget@2@XZ 
?registerFactory@FactoryManager@MyGUI@@QEAAXAEBV?$basic_string@DU?$char_traits@D@std@@V?$allocator@D@2@@std@@0PEAV?$IDelegate1@AEAPEAVIObject@MyGUI@@@delegates@2@@Z 
?registerLoadXmlDelegate@ResourceManager@MyGUI@@QEAAAEAV?$CDelegate3@PEAVElement@xml@MyGUI@@AEBV?$basic_string@DU?$char_traits@D@std@@V?$allocator@D@2@@std@@VVersion@3@@delegates@2@AEBV?$basic_string@DU?$char_traits@D@std@@V?$allocator@D@2@@std@@@Z 
?registerUnlinker@WidgetManager@MyGUI@@QEAAXPEAVIUnlinkWidget@2@@Z 
?registerWidgetTypes@BackwardCompatibility@MyGUI@@SAXXZ 
?removeAllColumns@MultiListBox@MyGUI@@QEAAXXZ 
?removeAllItems@BiIndexBase@MyGUI@@IEAAXXZ 
?removeAllItems@ComboBox@MyGUI@@QEAAXXZ 
?removeAllItems@ItemBox@MyGUI@@QEAAXXZ 
?removeAllItems@ListBox@MyGUI@@QEAAXXZ 
?removeAllItems@MenuControl@MyGUI@@QEAAXXZ 
?removeAllItems@MultiListBox@MyGUI@@QEAAXXZ 
?removeAllItems@TabControl@MyGUI@@QEAAXXZ 
?removeAllRenderItems@LayerItem@MyGUI@@QEAAXXZ 
?removeAttribute@Element@xml@MyGUI@@QEAAXAEBV?$basic_string@DU?$char_traits@D@std@@V?$allocator@D@2@@std@@@Z 
?removeByName@ResourceManager@MyGUI@@QEAA_NAEBV?$basic_string@DU?$char_traits@D@std@@V?$allocator@D@2@@std@@@Z 
?removeChild@Element@xml@MyGUI@@QEAAXPEAV123@@Z 
?removeChildItem@LayerItem@MyGUI@@QEAAXPEAV12@@Z 
?removeChildNode@LayerItem@MyGUI@@QEAAXPEAV12@@Z 
?removeCodePoint@ResourceTrueTypeFont@MyGUI@@AEAAXI@Z 
?removeCodePointRange@ResourceTrueTypeFont@MyGUI@@QEAAXII@Z 
?removeColour@ColourManager@MyGUI@@QEAA_NAEBV?$basic_string@DU?$char_traits@D@std@@V?$allocator@D@2@@std@@@Z 
?removeColumnAt@MultiListBox@MyGUI@@QEAAX_K@Z 
?removeDrawItem@RenderItem@MyGUI@@QEAAXPEAVISubWidget@2@@Z 
?removeDropItems@DDContainer@MyGUI@@MEAAXXZ 
?removeDropItems@ItemBox@MyGUI@@MEAAXXZ 
?removeItem@ControllerManager@MyGUI@@QEAAXPEAVWidget@2@@Z 
?removeItem@MenuControl@MyGUI@@QEAAXPEAVMenuItem@2@@Z 
?removeItem@MenuItem@MyGUI@@QEAAXXZ 
?removeItem@TabControl@MyGUI@@QEAAXPEAVTabItem@2@@Z 
?removeItemAt@BiIndexBase@MyGUI@@IEAA_K_K@Z 
?removeItemAt@ComboBox@MyGUI@@QEAAX_K@Z 
?removeItemAt@ItemBox@MyGUI@@QEAAX_K_N@Z 
?removeItemAt@ListBox@MyGUI@@QEAAX_K@Z 
?removeItemAt@MenuControl@MyGUI@@QEAAX_K@Z 
?removeItemAt@MultiListBox@MyGUI@@QEAAX_K@Z 
?removeItemAt@TabControl@MyGUI@@QEAAX_K@Z 
?removeItemChild@MenuControl@MyGUI@@QEAAXPEAVMenuItem@2@@Z 
?removeItemChildAt@MenuControl@MyGUI@@QEAAX_K@Z 
?removeLoadedFont@FontManager@MyGUI@@QEAAXAEBV?$basic_string@DU?$char_traits@D@std@@V?$allocator@D@2@@std@@@Z 
?removeResource@ResourceManager@MyGUI@@QEAAXPEAVIResource@2@@Z 
?removeUsing@SharedLayerNode@MyGUI@@QEAAXXZ 
?removeWidgetModal@InputManager@MyGUI@@QEAAXPEAVWidget@2@@Z 
?rend@UString@MyGUI@@QEAA?AV_rev_iterator@12@XZ 
?rend@UString@MyGUI@@QEBA?AV_const_rev_iterator@12@XZ 
?renderToTarget@LayerManager@MyGUI@@QEAAXPEAVIRenderTarget@2@_N@Z 
?renderToTarget@LayerNode@MyGUI@@UEAAXPEAVIRenderTarget@2@_N@Z 
?renderToTarget@OverlappedLayer@MyGUI@@UEAAXPEAVIRenderTarget@2@_N@Z 
?renderToTarget@RenderItem@MyGUI@@QEAAXPEAVIRenderTarget@2@_N@Z 
?renderToTarget@SharedLayer@MyGUI@@UEAAXPEAVIRenderTarget@2@_N@Z 
?repeatClick@ScrollBar@MyGUI@@AEAAXPEAVWidget@2@PEAVControllerItem@2@@Z 
?replace@UString@MyGUI@@QEAAAEAV12@V_fwd_iterator@12@0AEBV12@_K@Z 
?replace@UString@MyGUI@@QEAAAEAV12@V_fwd_iterator@12@0_KG@Z 
?replace@UString@MyGUI@@QEAAAEAV12@_K00G@Z 
?replace@UString@MyGUI@@QEAAAEAV12@_K0AEBV12@00@Z 
?replace@UString@MyGUI@@QEAAAEAV12@_K0AEBV12@0@Z 
?replace@UString@MyGUI@@QEAAAEAV12@_K0AEBV12@@Z 
?replaceTags@LanguageManager@MyGUI@@QEAA?AVUString@2@AEBV32@@Z 
?replaceTagsPass@LanguageManager@MyGUI@@AEAA?AVUString@2@AEBV32@AEA_N@Z 
?requestItemSize@ItemBox@MyGUI@@AEAAXXZ 
?reserve@UString@MyGUI@@QEAAX_K@Z 
?reset@DDItemInfo@MyGUI@@QEAAXXZ 
?reset@Timer@MyGUI@@QEAAXXZ 
?resetCurrentActiveItem@ItemBox@MyGUI@@IEAAXXZ 
?resetDrag@DDContainer@MyGUI@@QEAAXXZ 
?resetDrag@ItemBox@MyGUI@@QEAAXXZ 
?resetItemSelect@ImageBox@MyGUI@@QEAAXXZ 
?resetKey@InputManager@MyGUI@@AEAAXXZ 
?resetKeyFocusWidget@InputManager@MyGUI@@QEAAXPEAVWidget@2@@Z 
?resetKeyFocusWidget@InputManager@MyGUI@@QEAAXXZ 
?resetMouseCaptureWidget@InputManager@MyGUI@@QEAAXXZ 
?resetSelect@EditBox@MyGUI@@AEAAXXZ 
?resetToDefaultPointer@PointerManager@MyGUI@@QEAAXXZ 
?resize@Canvas@MyGUI@@IEAAXAEBU?$TSize@H@types@2@@Z 
?resize@UString@MyGUI@@QEAAX_KAEBG@Z 
?resizeLayerItemView@Widget@MyGUI@@EEAAXAEBU?$TSize@H@types@2@0@Z 
?resizeView@LayerManager@MyGUI@@QEAAXAEBU?$TSize@H@types@2@@Z 
?resizeView@LayerNode@MyGUI@@UEAAXAEBU?$TSize@H@types@2@@Z 
?resizeView@OverlappedLayer@MyGUI@@UEAAXAEBU?$TSize@H@types@2@@Z 
?resizeView@SharedLayer@MyGUI@@UEAAXAEBU?$TSize@H@types@2@@Z 
?restoreLayerItem@LayerItem@MyGUI@@QEAAXXZ 
?rfind@UString@MyGUI@@QEBA_KAEBV12@_K@Z 
?rfind@UString@MyGUI@@QEBA_KD_K@Z 
?rfind@UString@MyGUI@@QEBA_KG_K@Z 
?rfind@UString@MyGUI@@QEBA_KI_K@Z 
?rfind@UString@MyGUI@@QEBA_KPEBD_K1@Z 
?rfind@UString@MyGUI@@QEBA_KPEBG_K1@Z 
?rfind@UString@MyGUI@@QEBA_KPEB_W_K1@Z 
?rfind@UString@MyGUI@@QEBA_K_W_K@Z 
?round@ScaleManager@MyGUI@@AEBAHM@Z 
?save@Document@xml@MyGUI@@QEAA_NAEAV?$basic_ostream@DU?$char_traits@D@std@@@std@@@Z 
?save@Document@xml@MyGUI@@QEAA_NAEBV?$basic_string@DU?$char_traits@D@std@@V?$allocator@D@2@@std@@@Z 
?save@Document@xml@MyGUI@@QEAA_NAEBV?$basic_string@_WU?$char_traits@_W@std@@V?$allocator@_W@2@@std@@@Z 
?save@Document@xml@MyGUI@@QEAA_NAEBVUString@3@@Z 
?save@Element@xml@MyGUI@@AEAAXAEAV?$basic_ostream@DU?$char_traits@D@std@@@std@@_K@Z 
?saveInHistory@EditBox@MyGUI@@AEAAXPEAV?$vector@UTextCommandInfo@MyGUI@@V?$allocator@UTextCommandInfo@MyGUI@@@std@@@std@@@Z 
?saveLayerItem@LayerItem@MyGUI@@QEAAXXZ 
?saveStartPoint@TextIterator@MyGUI@@QEAA_NXZ 
?serialization@ISerializable@MyGUI@@UEAAXPEAVElement@xml@2@VVersion@2@@Z 
?set@Colour@MyGUI@@QEAAXMMMM@Z 
?set@DDItemInfo@MyGUI@@QEAAXPEAVDDContainer@2@_K01@Z 
?setAction@ControllerPosition@MyGUI@@QEAAXPEAV?$IDelegate4@AEBU?$TCoord@H@types@MyGUI@@AEBU123@AEAU123@M@delegates@2@@Z 
?setActivateOnClick@ListBox@MyGUI@@QEAAX_N@Z 
?setAlign@ISubWidget@MyGUI@@UEAAXUAlign@2@@Z 
?setAlign@Widget@MyGUI@@UEAAXUAlign@2@@Z 
?setAlpha@ControllerFadeAlpha@MyGUI@@QEAAXM@Z 
?setAlpha@EditText@MyGUI@@UEAAXM@Z 
?setAlpha@ISubWidget@MyGUI@@UEAAXM@Z 
?setAlpha@PolygonalSkin@MyGUI@@UEAAXM@Z 
?setAlpha@RotatingSkin@MyGUI@@UEAAXM@Z 
?setAlpha@SubSkin@MyGUI@@UEAAXM@Z 
?setAlpha@TileRect@MyGUI@@UEAAXM@Z 
?setAlpha@Widget@MyGUI@@QEAAXM@Z 
?setAngle@RotatingSkin@MyGUI@@QEAAXM@Z 
?setAntialias@ResourceTrueTypeFont@MyGUI@@QEAAX_N@Z 
?setAttribute@Element@xml@MyGUI@@QEAAXAEBV?$basic_string@DU?$char_traits@D@std@@V?$allocator@D@2@@std@@0@Z 
?setAutoAlpha@Window@MyGUI@@QEAAX_N@Z 
?setButtonAutoWidth@TabControl@MyGUI@@QEAAX_N@Z 
?setButtonDefaultWidth@TabControl@MyGUI@@QEAAXH@Z 
?setButtonWidth@TabControl@MyGUI@@QEAAXPEAVTabItem@2@H@Z 
?setButtonWidth@TabItem@MyGUI@@QEAAXH@Z 
?setButtonWidthAt@TabControl@MyGUI@@QEAAX_KH@Z 
?setCanvasAlign@ScrollView@MyGUI@@QEAAXUAlign@2@@Z 
?setCanvasSize@ScrollView@MyGUI@@QEAAXAEBU?$TSize@H@types@2@@Z 
?setCanvasSize@ScrollView@MyGUI@@QEAAXHH@Z 
?setCaption@EditBox@MyGUI@@UEAAXAEBVUString@2@@Z 
?setCaption@EditText@MyGUI@@UEAAXAEBVUString@2@@Z 
?setCaption@ISubWidgetText@MyGUI@@UEAAXAEBVUString@2@@Z 
?setCaption@ListScrollBar@MyGUI@@QEAAXAEBVUString@2@@Z 
?setCaption@MenuItem@MyGUI@@UEAAXAEBVUString@2@@Z 
?setCaption@MultiListItem@MyGUI@@UEAAXAEBVUString@2@@Z 
?setCaption@MultiSlider@MyGUI@@QEAAXAEBVUString@2@@Z 
?setCaption@Slider@MyGUI@@QEAAXAEBVUString@2@@Z 
?setCaption@TabItem@MyGUI@@UEAAXAEBVUString@2@@Z 
?setCaption@TextBox@MyGUI@@UEAAXAEBVUString@2@@Z 
?setCaption@Window@MyGUI@@UEAAXAEBVUString@2@@Z 
?setCaptionWithReplacing@TextBox@MyGUI@@QEAAXAEBV?$basic_string@DU?$char_traits@D@std@@V?$allocator@D@2@@std@@@Z 
?setCenter@RotatingSkin@MyGUI@@QEAAXAEBU?$TPoint@H@types@2@@Z 
?setChar@UString@MyGUI@@QEAAH_KI@Z 
?setCharacter@_fwd_iterator@UString@MyGUI@@QEAAHI@Z 
?setClipboardData@ClipboardManager@MyGUI@@QEAAXAEBV?$basic_string@DU?$char_traits@D@std@@V?$allocator@D@2@@std@@0@Z 
?setCoef@ControllerFadeAlpha@MyGUI@@QEAAXM@Z 
?setColour@Widget@MyGUI@@QEAAXAEBUColour@2@@Z 
?setColumnDataAt@MultiListBox@MyGUI@@QEAAX_KVAny@2@@Z 
?setColumnName@MultiListBox@MyGUI@@QEAAXPEAVMultiListItem@2@AEBVUString@2@@Z 
?setColumnNameAt@MultiListBox@MyGUI@@QEAAX_KAEBVUString@2@@Z 
?setColumnResizingPolicy@MultiListBox@MyGUI@@QEAAXPEAVMultiListItem@2@UResizingPolicy@2@@Z 
?setColumnResizingPolicyAt@MultiListBox@MyGUI@@QEAAX_KUResizingPolicy@2@@Z 
?setColumnWidth@MultiListBox@MyGUI@@QEAAXPEAVMultiListItem@2@H@Z 
?setColumnWidthAt@MultiListBox@MyGUI@@QEAAX_KH@Z 
?setComboModeDrop@ComboBox@MyGUI@@QEAAX_N@Z 
?setContent@Element@xml@MyGUI@@QEAAXAEBV?$basic_string@DU?$char_traits@D@std@@V?$allocator@D@2@@std@@@Z 
?setContentPosition@EditBox@MyGUI@@EEAAXAEBU?$TPoint@H@types@2@@Z 
?setContentPosition@ItemBox@MyGUI@@EEAAXAEBU?$TPoint@H@types@2@@Z 
?setContentPosition@ScrollView@MyGUI@@EEAAXAEBU?$TPoint@H@types@2@@Z 
?setContentPosition@ScrollViewBase@MyGUI@@MEAAXAEBU?$TPoint@H@types@2@@Z 
?setCoord@Canvas@MyGUI@@QEAAXHHHH@Z 
?setCoord@Canvas@MyGUI@@UEAAXAEBU?$TCoord@H@types@2@@Z 
?setCoord@ControllerPosition@MyGUI@@QEAAXAEBU?$TCoord@H@types@2@@Z 
?setCoord@EditBox@MyGUI@@QEAAXHHHH@Z 
?setCoord@EditBox@MyGUI@@UEAAXAEBU?$TCoord@H@types@2@@Z 
?setCoord@ICroppedRectangle@MyGUI@@UEAAXAEBU?$TCoord@H@types@2@@Z 
?setCoord@ItemBox@MyGUI@@QEAAXHHHH@Z 
?setCoord@ItemBox@MyGUI@@UEAAXAEBU?$TCoord@H@types@2@@Z 
?setCoord@ListBox@MyGUI@@QEAAXHHHH@Z 
?setCoord@ListBox@MyGUI@@UEAAXAEBU?$TCoord@H@types@2@@Z 
?setCoord@MultiListBox@MyGUI@@QEAAXHHHH@Z 
?setCoord@MultiListBox@MyGUI@@UEAAXAEBU?$TCoord@H@types@2@@Z 
?setCoord@ProgressBar@MyGUI@@QEAAXHHHH@Z 
?setCoord@ProgressBar@MyGUI@@UEAAXAEBU?$TCoord@H@types@2@@Z 
?setCoord@ScrollBar@MyGUI@@QEAAXHHHH@Z 
?setCoord@ScrollBar@MyGUI@@UEAAXAEBU?$TCoord@H@types@2@@Z 
?setCoord@ScrollView@MyGUI@@QEAAXHHHH@Z 
?setCoord@ScrollView@MyGUI@@UEAAXAEBU?$TCoord@H@types@2@@Z 
?setCoord@TabControl@MyGUI@@QEAAXHHHH@Z 
?setCoord@TabControl@MyGUI@@UEAAXAEBU?$TCoord@H@types@2@@Z 
?setCoord@Widget@MyGUI@@QEAAXHHHH@Z 
?setCoord@Widget@MyGUI@@UEAAXAEBU?$TCoord@H@types@2@@Z 
?setCoord@Window@MyGUI@@QEAAXHHHH@Z 
?setCoord@Window@MyGUI@@UEAAXAEBU?$TCoord@H@types@2@@Z 
?setCurrentLanguage@LanguageManager@MyGUI@@QEAAXAEBV?$basic_string@DU?$char_traits@D@std@@V?$allocator@D@2@@std@@@Z 
?setCursorPosition@EditText@MyGUI@@UEAAX_K@Z 
?setCursorPosition@ISubWidgetText@MyGUI@@UEAAX_K@Z 
?setDefaultFont@FontManager@MyGUI@@QEAAXAEBV?$basic_string@DU?$char_traits@D@std@@V?$allocator@D@2@@std@@@Z 
?setDefaultHeight@ResourceManualFont@MyGUI@@QEAAXH@Z 
?setDefaultPointer@PointerManager@MyGUI@@QEAAXAEBV?$basic_string@DU?$char_traits@D@std@@V?$allocator@D@2@@std@@@Z 
?setDefaultSkin@SkinManager@MyGUI@@QEAAXAEBV?$basic_string@DU?$char_traits@D@std@@V?$allocator@D@2@@std@@@Z 
?setDelayVisible@ToolTipManager@MyGUI@@QEAAXM@Z 
?setDepth@Widget@MyGUI@@QEAAXH@Z 
?setDistance@ResourceTrueTypeFont@MyGUI@@QEAAXH@Z 
?setEditMultiLine@EditBox@MyGUI@@QEAAX_N@Z 
?setEditPassword@EditBox@MyGUI@@QEAAX_N@Z 
?setEditReadOnly@EditBox@MyGUI@@QEAAX_N@Z 
?setEditStatic@EditBox@MyGUI@@QEAAX_N@Z 
?setEditWordWrap@EditBox@MyGUI@@QEAAX_N@Z 
?setEnabled@ConsoleLogListener@MyGUI@@QEAAX_N@Z 
?setEnabled@ControllerFadeAlpha@MyGUI@@QEAAX_N@Z 
?setEnabled@ListScrollBar@MyGUI@@UEAAX_N@Z 
?setEnabled@Widget@MyGUI@@UEAAX_N@Z 
?setEnabledSilent@Widget@MyGUI@@QEAAX_N@Z 
?setFileName@FileLogListener@MyGUI@@QEAAXAEBV?$basic_string@DU?$char_traits@D@std@@V?$allocator@D@2@@std@@@Z 
?setFlowDirection@ComboBox@MyGUI@@QEAAXUFlowDirection@2@@Z 
?setFlowDirection@ProgressBar@MyGUI@@QEAAXUFlowDirection@2@@Z 
?setFontHeight@EditBox@MyGUI@@UEAAXH@Z 
?setFontHeight@EditText@MyGUI@@UEAAXH@Z 
?setFontHeight@ISubWidgetText@MyGUI@@UEAAXH@Z 
?setFontHeight@MenuItem@MyGUI@@UEAAXH@Z 
?setFontHeight@TextBox@MyGUI@@UEAAXH@Z 
?setFontName@EditBox@MyGUI@@UEAAXAEBV?$basic_string@DU?$char_traits@D@std@@V?$allocator@D@2@@std@@@Z 
?setFontName@EditText@MyGUI@@UEAAXAEBV?$basic_string@DU?$char_traits@D@std@@V?$allocator@D@2@@std@@@Z 
?setFontName@ISubWidgetText@MyGUI@@UEAAXAEBV?$basic_string@DU?$char_traits@D@std@@V?$allocator@D@2@@std@@@Z 
?setFontName@MenuItem@MyGUI@@UEAAXAEBV?$basic_string@DU?$char_traits@D@std@@V?$allocator@D@2@@std@@@Z 
?setFontName@TextBox@MyGUI@@UEAAXAEBV?$basic_string@DU?$char_traits@D@std@@V?$allocator@D@2@@std@@@Z 
?setFunction@ControllerPosition@MyGUI@@QEAAXAEBV?$basic_string@DU?$char_traits@D@std@@V?$allocator@D@2@@std@@@Z 
?setHScrollPosition@EditBox@MyGUI@@QEAAX_K@Z 
?setHinting@ResourceTrueTypeFont@MyGUI@@QEAAXAEBV?$basic_string@DU?$char_traits@D@std@@V?$allocator@D@2@@std@@@Z 
?setImage@ResourceImageSetPointer@MyGUI@@UEAAXPEAVImageBox@2@@Z 
?setImage@ResourceManualPointer@MyGUI@@UEAAXPEAVImageBox@2@@Z 
?setImageCoord@ImageBox@MyGUI@@QEAAXAEBU?$TCoord@H@types@2@@Z 
?setImageGroup@Button@MyGUI@@QEAAXAEBV?$basic_string@DU?$char_traits@D@std@@V?$allocator@D@2@@std@@@Z 
?setImageIndex@ImageBox@MyGUI@@QEAAX_K@Z 
?setImageInfo@ImageBox@MyGUI@@QEAAXAEBV?$basic_string@DU?$char_traits@D@std@@V?$allocator@D@2@@std@@AEBU?$TCoord@H@types@2@AEBU?$TSize@H@62@@Z 
?setImageName@Button@MyGUI@@QEAAXAEBV?$basic_string@DU?$char_traits@D@std@@V?$allocator@D@2@@std@@@Z 
?setImageRect@ImageBox@MyGUI@@QEAAXAEBU?$TRect@H@types@2@@Z 
?setImageResource@Button@MyGUI@@QEAAXAEBV?$basic_string@DU?$char_traits@D@std@@V?$allocator@D@2@@std@@@Z 
?setImageTexture@ImageBox@MyGUI@@QEAAXAEBV?$basic_string@DU?$char_traits@D@std@@V?$allocator@D@2@@std@@@Z 
?setImageTile@ImageBox@MyGUI@@QEAAXAEBU?$TSize@H@types@2@@Z 
?setIndexSelected@ComboBox@MyGUI@@QEAAX_K@Z 
?setIndexSelected@ItemBox@MyGUI@@QEAAX_K@Z 
?setIndexSelected@ListBox@MyGUI@@QEAAX_K@Z 
?setIndexSelected@MultiListBox@MyGUI@@QEAAX_K@Z 
?setIndexSelected@TabControl@MyGUI@@QEAAX_K@Z 
?setInfo@ResourceSkin@MyGUI@@AEAAXAEBU?$TSize@H@types@2@AEBV?$basic_string@DU?$char_traits@D@std@@V?$allocator@D@2@@std@@@Z 
?setInheritsAlpha@Widget@MyGUI@@QEAAX_N@Z 
?setInheritsPick@WidgetInput@MyGUI@@QEAAX_N@Z 
?setInvalidateListener@ITexture@MyGUI@@UEAAXPEAVITextureInvalidateListener@2@@Z 
?setInvertSelected@EditBox@MyGUI@@QEAAX_N@Z 
?setInvertSelected@EditText@MyGUI@@UEAAX_N@Z 
?setInvertSelected@ISubWidgetText@MyGUI@@UEAAX_N@Z 
?setItem@ImageBox@MyGUI@@QEAAX_KAEBU?$TCoord@H@types@2@@Z 
?setItemChecked@MenuItem@MyGUI@@QEAAX_N@Z 
?setItemChildVisible@MenuControl@MyGUI@@QEAAXPEAVMenuItem@2@_N@Z 
?setItemChildVisible@MenuItem@MyGUI@@QEAAX_N@Z 
?setItemChildVisibleAt@MenuControl@MyGUI@@QEAAX_K_N@Z 
?setItemCurrentFrame@ImageBox@MyGUI@@QEAAX_K0@Z 
?setItemCurrentFrame@ImageBox@MyGUI@@QEAAX_K0AEBU?$TCoord@H@types@2@@Z 
?setItemData@MenuControl@MyGUI@@QEAAXPEAVMenuItem@2@VAny@2@@Z 
?setItemData@MenuItem@MyGUI@@QEAAXVAny@2@@Z 
?setItemData@TabControl@MyGUI@@QEAAXPEAVTabItem@2@VAny@2@@Z 
?setItemDataAt@ComboBox@MyGUI@@QEAAX_KVAny@2@@Z 
?setItemDataAt@ItemBox@MyGUI@@QEAAX_KVAny@2@@Z 
?setItemDataAt@ListBox@MyGUI@@QEAAX_KVAny@2@@Z 
?setItemDataAt@MenuControl@MyGUI@@QEAAX_KVAny@2@@Z 
?setItemDataAt@MultiListBox@MyGUI@@QEAAX_KVAny@2@@Z 
?setItemDataAt@TabControl@MyGUI@@QEAAX_KVAny@2@@Z 
?setItemFrameRate@ImageBox@MyGUI@@QEAAX_KM@Z 
?setItemGroup@ImageBox@MyGUI@@QEAAXAEBV?$basic_string@DU?$char_traits@D@std@@V?$allocator@D@2@@std@@@Z 
?setItemId@MenuControl@MyGUI@@QEAAXPEAVMenuItem@2@AEBV?$basic_string@DU?$char_traits@D@std@@V?$allocator@D@2@@std@@@Z 
?setItemId@MenuItem@MyGUI@@QEAAXAEBV?$basic_string@DU?$char_traits@D@std@@V?$allocator@D@2@@std@@@Z 
?setItemIdAt@MenuControl@MyGUI@@QEAAX_KAEBV?$basic_string@DU?$char_traits@D@std@@V?$allocator@D@2@@std@@@Z 
?setItemName@ImageBox@MyGUI@@QEAAXAEBV?$basic_string@DU?$char_traits@D@std@@V?$allocator@D@2@@std@@@Z 
?setItemName@MenuControl@MyGUI@@QEAAXPEAVMenuItem@2@AEBVUString@2@@Z 
?setItemName@MenuItem@MyGUI@@QEAAXAEBVUString@2@@Z 
?setItemName@TabControl@MyGUI@@QEAAXPEAVTabItem@2@AEBVUString@2@@Z 
?setItemNameAt@ComboBox@MyGUI@@QEAAX_KAEBVUString@2@@Z 
?setItemNameAt@ListBox@MyGUI@@QEAAX_KAEBVUString@2@@Z 
?setItemNameAt@MenuControl@MyGUI@@QEAAX_KAEBVUString@2@@Z 
?setItemNameAt@MultiListBox@MyGUI@@QEAAX_KAEBVUString@2@@Z 
?setItemNameAt@TabControl@MyGUI@@QEAAX_KAEBVUString@2@@Z 
?setItemResizingPolicy@MultiListItem@MyGUI@@QEAAXUResizingPolicy@2@@Z 
?setItemResource@ImageBox@MyGUI@@QEAA_NAEBV?$basic_string@DU?$char_traits@D@std@@V?$allocator@D@2@@std@@@Z 
?setItemResourceInfo@ImageBox@MyGUI@@QEAAXAEBUImageIndexInfo@2@@Z 
?setItemResourceInfo@ImageBox@MyGUI@@QEAAXPEAVResourceImageSet@2@AEBV?$basic_string@DU?$char_traits@D@std@@V?$allocator@D@2@@std@@1@Z 
?setItemResourcePtr@ImageBox@MyGUI@@QEAAXPEAVResourceImageSet@2@@Z 
?setItemSelect@ImageBox@MyGUI@@QEAAX_K@Z 
?setItemSelected@TabControl@MyGUI@@QEAAXPEAVTabItem@2@@Z 
?setItemType@MenuControl@MyGUI@@QEAAXPEAVMenuItem@2@UMenuItemType@2@@Z 
?setItemType@MenuItem@MyGUI@@QEAAXUMenuItemType@2@@Z 
?setItemTypeAt@MenuControl@MyGUI@@QEAAX_KUMenuItemType@2@@Z 
?setItemWidth@MultiListItem@MyGUI@@QEAAXH@Z 
?setKeyFocusWidget@InputManager@MyGUI@@QEAAXPEAVWidget@2@@Z 
?setLastFileError@Document@xml@MyGUI@@AEAAXAEBV?$basic_string@DU?$char_traits@D@std@@V?$allocator@D@2@@std@@@Z 
?setLastFileError@Document@xml@MyGUI@@AEAAXAEBV?$basic_string@_WU?$char_traits@_W@std@@V?$allocator@_W@2@@std@@@Z 
?setLastVertexCount@RenderItem@MyGUI@@QEAAX_K@Z 
?setLayerName@PointerManager@MyGUI@@QEAAXAEBV?$basic_string@DU?$char_traits@D@std@@V?$allocator@D@2@@std@@@Z 
?setLocale@LanguageManager@MyGUI@@QEAAXAEBVlocale@std@@_N@Z 
?setLogFilter@LogSource@MyGUI@@QEAAXPEAVILogFilter@2@@Z 
?setLoggingLevel@LevelLogFilter@MyGUI@@QEAAXULogLevel@2@@Z 
?setLoggingLevel@LogManager@MyGUI@@QEAAXULogLevel@2@@Z 
?setManualRender@RenderItem@MyGUI@@QEAAX_N@Z 
?setMaskPick@WidgetInput@MyGUI@@QEAAXAEBV?$basic_string@DU?$char_traits@D@std@@V?$allocator@D@2@@std@@@Z 
?setMaskPick@WidgetInput@MyGUI@@QEAAXAEBVMaskPickInfo@2@@Z 
?setMaxListLength@ComboBox@MyGUI@@QEAAXH@Z 
?setMaxSize@Window@MyGUI@@QEAAXAEBU?$TSize@H@types@2@@Z 
?setMaxSize@Window@MyGUI@@QEAAXHH@Z 
?setMaxTextLength@EditBox@MyGUI@@QEAAX_K@Z 
?setMinSize@Window@MyGUI@@QEAAXAEBU?$TSize@H@types@2@@Z 
?setMinSize@Window@MyGUI@@QEAAXHH@Z 
?setMinTrackSize@ScrollBar@MyGUI@@QEAAXH@Z 
?setModeImage@Button@MyGUI@@QEAAX_N@Z 
?setMouseFocusWidget@InputManager@MyGUI@@QEAAXPEAVWidget@2@@Z 
?setMovable@Window@MyGUI@@QEAAX_N@Z 
?setMoveToClick@ScrollBar@MyGUI@@QEAAX_N@Z 
?setName@ILayer@MyGUI@@QEAAXAEBV?$basic_string@DU?$char_traits@D@std@@V?$allocator@D@2@@std@@@Z 
?setNeedCompression@RenderItem@MyGUI@@QEAAX_N@Z 
?setNeedDragDrop@DDContainer@MyGUI@@QEAAX_N@Z 
?setNeedKeyFocus@WidgetInput@MyGUI@@QEAAX_N@Z 
?setNeedMouseFocus@WidgetInput@MyGUI@@QEAAX_N@Z 
?setNeedToolTip@WidgetInput@MyGUI@@QEAAX_N@Z 
?setOffset@RenderTargetInfo@MyGUI@@QEBAXHH@Z 
?setOffsetHeight@ResourceTrueTypeFont@MyGUI@@QEAAXH@Z 
?setOnlyText@EditBox@MyGUI@@QEAAXAEBVUString@2@@Z 
?setOverflowToTheLeft@EditBox@MyGUI@@QEAAX_N@Z 
?setPasswordChar@EditBox@MyGUI@@QEAAXAEBVUString@2@@Z 
?setPasswordChar@EditBox@MyGUI@@QEAAXI@Z 
?setPick@OverlappedLayer@MyGUI@@QEAAX_N@Z 
?setPick@SharedLayer@MyGUI@@QEAAX_N@Z 
?setPointer@PointerManager@MyGUI@@AEAAXAEBV?$basic_string@DU?$char_traits@D@std@@V?$allocator@D@2@@std@@PEAVWidget@2@@Z 
?setPointer@PointerManager@MyGUI@@QEAAXAEBV?$basic_string@DU?$char_traits@D@std@@V?$allocator@D@2@@std@@@Z 
?setPointer@WidgetInput@MyGUI@@QEAAXAEBV?$basic_string@DU?$char_traits@D@std@@V?$allocator@D@2@@std@@@Z 
?setPoints@PolygonalSkin@MyGUI@@QEAAXAEBV?$vector@U?$TPoint@M@types@MyGUI@@V?$allocator@U?$TPoint@M@types@MyGUI@@@std@@@std@@@Z 
?setPopupAccept@MenuControl@MyGUI@@QEAAX_N@Z 
?setPosition@ControllerPosition@MyGUI@@QEAAXAEBU?$TPoint@H@types@2@@Z 
?setPosition@EditBox@MyGUI@@QEAAXHH@Z 
?setPosition@EditBox@MyGUI@@UEAAXAEBU?$TPoint@H@types@2@@Z 
?setPosition@ICroppedRectangle@MyGUI@@UEAAXAEBU?$TPoint@H@types@2@@Z 
?setPosition@ItemBox@MyGUI@@QEAAXHH@Z 
?setPosition@ItemBox@MyGUI@@UEAAXAEBU?$TPoint@H@types@2@@Z 
?setPosition@ListBox@MyGUI@@QEAAXHH@Z 
?setPosition@ListBox@MyGUI@@UEAAXAEBU?$TPoint@H@types@2@@Z 
?setPosition@MultiListBox@MyGUI@@QEAAXHH@Z 
?setPosition@MultiListBox@MyGUI@@UEAAXAEBU?$TPoint@H@types@2@@Z 
?setPosition@ProgressBar@MyGUI@@QEAAXHH@Z 
?setPosition@ProgressBar@MyGUI@@UEAAXAEBU?$TPoint@H@types@2@@Z 
?setPosition@ResourceImageSetPointer@MyGUI@@UEAAXPEAVImageBox@2@AEBU?$TPoint@H@types@2@@Z 
?setPosition@ResourceManualPointer@MyGUI@@UEAAXPEAVImageBox@2@AEBU?$TPoint@H@types@2@@Z 
?setPosition@ScrollBar@MyGUI@@QEAAXHH@Z 
?setPosition@ScrollBar@MyGUI@@UEAAXAEBU?$TPoint@H@types@2@@Z 
?setPosition@ScrollView@MyGUI@@QEAAXHH@Z 
?setPosition@ScrollView@MyGUI@@UEAAXAEBU?$TPoint@H@types@2@@Z 
?setPosition@TabControl@MyGUI@@QEAAXHH@Z 
?setPosition@TabControl@MyGUI@@UEAAXAEBU?$TPoint@H@types@2@@Z 
?setPosition@Widget@MyGUI@@QEAAXHH@Z 
?setPosition@Widget@MyGUI@@UEAAXAEBU?$TPoint@H@types@2@@Z 
?setPosition@Window@MyGUI@@QEAAXHH@Z 
?setPosition@Window@MyGUI@@UEAAXAEBU?$TPoint@H@types@2@@Z 
?setProgressAutoTrack@ProgressBar@MyGUI@@QEAAX_N@Z 
?setProgressPosition@ProgressBar@MyGUI@@QEAAX_K@Z 
?setProgressRange@ProgressBar@MyGUI@@QEAAX_K@Z 
?setProperty@ControllerEdgeHide@MyGUI@@UEAAXAEBV?$basic_string@DU?$char_traits@D@std@@V?$allocator@D@2@@std@@0@Z 
?setProperty@ControllerFadeAlpha@MyGUI@@UEAAXAEBV?$basic_string@DU?$char_traits@D@std@@V?$allocator@D@2@@std@@0@Z 
?setProperty@ControllerItem@MyGUI@@UEAAXAEBV?$basic_string@DU?$char_traits@D@std@@V?$allocator@D@2@@std@@0@Z 
?setProperty@ControllerPosition@MyGUI@@UEAAXAEBV?$basic_string@DU?$char_traits@D@std@@V?$allocator@D@2@@std@@0@Z 
?setProperty@Widget@MyGUI@@QEAAXAEBV?$basic_string@DU?$char_traits@D@std@@V?$allocator@D@2@@std@@0@Z 
?setPropertyOverride@Button@MyGUI@@MEAAXAEBV?$basic_string@DU?$char_traits@D@std@@V?$allocator@D@2@@std@@0@Z 
?setPropertyOverride@ComboBox@MyGUI@@MEAAXAEBV?$basic_string@DU?$char_traits@D@std@@V?$allocator@D@2@@std@@0@Z 
?setPropertyOverride@DDContainer@MyGUI@@MEAAXAEBV?$basic_string@DU?$char_traits@D@std@@V?$allocator@D@2@@std@@0@Z 
?setPropertyOverride@EditBox@MyGUI@@MEAAXAEBV?$basic_string@DU?$char_traits@D@std@@V?$allocator@D@2@@std@@0@Z 
?setPropertyOverride@ImageBox@MyGUI@@MEAAXAEBV?$basic_string@DU?$char_traits@D@std@@V?$allocator@D@2@@std@@0@Z 
?setPropertyOverride@ItemBox@MyGUI@@MEAAXAEBV?$basic_string@DU?$char_traits@D@std@@V?$allocator@D@2@@std@@0@Z 
?setPropertyOverride@ListBox@MyGUI@@MEAAXAEBV?$basic_string@DU?$char_traits@D@std@@V?$allocator@D@2@@std@@0@Z 
?setPropertyOverride@MenuControl@MyGUI@@MEAAXAEBV?$basic_string@DU?$char_traits@D@std@@V?$allocator@D@2@@std@@0@Z 
?setPropertyOverride@MenuItem@MyGUI@@MEAAXAEBV?$basic_string@DU?$char_traits@D@std@@V?$allocator@D@2@@std@@0@Z 
?setPropertyOverride@MultiListItem@MyGUI@@MEAAXAEBV?$basic_string@DU?$char_traits@D@std@@V?$allocator@D@2@@std@@0@Z 
?setPropertyOverride@ProgressBar@MyGUI@@MEAAXAEBV?$basic_string@DU?$char_traits@D@std@@V?$allocator@D@2@@std@@0@Z 
?setPropertyOverride@ScrollBar@MyGUI@@MEAAXAEBV?$basic_string@DU?$char_traits@D@std@@V?$allocator@D@2@@std@@0@Z 
?setPropertyOverride@ScrollView@MyGUI@@MEAAXAEBV?$basic_string@DU?$char_traits@D@std@@V?$allocator@D@2@@std@@0@Z 
?setPropertyOverride@TabControl@MyGUI@@MEAAXAEBV?$basic_string@DU?$char_traits@D@std@@V?$allocator@D@2@@std@@0@Z 
?setPropertyOverride@TabItem@MyGUI@@MEAAXAEBV?$basic_string@DU?$char_traits@D@std@@V?$allocator@D@2@@std@@0@Z 
?setPropertyOverride@TextBox@MyGUI@@MEAAXAEBV?$basic_string@DU?$char_traits@D@std@@V?$allocator@D@2@@std@@0@Z 
?setPropertyOverride@Widget@MyGUI@@MEAAXAEBV?$basic_string@DU?$char_traits@D@std@@V?$allocator@D@2@@std@@0@Z 
?setPropertyOverride@Window@MyGUI@@MEAAXAEBV?$basic_string@DU?$char_traits@D@std@@V?$allocator@D@2@@std@@0@Z 
?setRealCoord@Widget@MyGUI@@QEAAXAEBU?$TCoord@M@types@2@@Z 
?setRealCoord@Widget@MyGUI@@QEAAXMMMM@Z 
?setRealPosition@Widget@MyGUI@@QEAAXAEBU?$TPoint@M@types@2@@Z 
?setRealPosition@Widget@MyGUI@@QEAAXMM@Z 
?setRealSize@Widget@MyGUI@@QEAAXAEBU?$TSize@M@types@2@@Z 
?setRealSize@Widget@MyGUI@@QEAAXMM@Z 
?setRealString@EditBox@MyGUI@@AEAAXAEBVUString@2@@Z 
?setRemainPixels@ControllerEdgeHide@MyGUI@@QEAAXH@Z 
?setRenderItemTexture@LayerItem@MyGUI@@QEAAXPEAVITexture@2@@Z 
?setRepeatEnabled@ScrollBar@MyGUI@@QEAAX_N@Z 
?setRepeatStepTime@ScrollBar@MyGUI@@QEAAXM@Z 
?setRepeatTriggerTime@ScrollBar@MyGUI@@QEAAXM@Z 
?setResizeMode@Canvas@MyGUI@@QEAAXW4TextureResizeMode@12@@Z 
?setResolution@ResourceTrueTypeFont@MyGUI@@QEAAXI@Z 
?setResourceName@IResource@MyGUI@@QEAAXAEBV?$basic_string@DU?$char_traits@D@std@@V?$allocator@D@2@@std@@@Z 
?setSTDOutputEnabled@LogManager@MyGUI@@QEAAX_N@Z 
?setScale@ScaleManager@MyGUI@@QEAAXAEBU?$TSize@M@types@2@@Z 
?setScrollPage@ScrollBar@MyGUI@@QEAAX_K@Z 
?setScrollPosition@ListBox@MyGUI@@QEAAX_K@Z 
?setScrollPosition@ScrollBar@MyGUI@@QEAAX_K@Z 
?setScrollPosition@Slider@MyGUI@@QEAAXH@Z 
?setScrollRange@ScrollBar@MyGUI@@QEAAX_K@Z 
?setScrollRange@Slider@MyGUI@@QEAAXH@Z 
?setScrollRange@Slider@MyGUI@@QEAAXHH@Z 
?setScrollViewPage@ScrollBar@MyGUI@@QEAAX_K@Z 
?setScrollVisible@ListBox@MyGUI@@QEAAX_N@Z 
?setScrollWheelPage@ScrollBar@MyGUI@@QEAAX_K@Z 
?setSelectBackground@EditText@MyGUI@@UEAAX_N@Z 
?setSelectBackground@ISubWidgetText@MyGUI@@UEAAX_N@Z 
?setShadow@EditText@MyGUI@@UEAAX_N@Z 
?setShadow@ISubWidgetText@MyGUI@@UEAAX_N@Z 
?setShadowColour@EditText@MyGUI@@UEAAXAEBUColour@2@@Z 
?setShadowColour@ISubWidgetText@MyGUI@@UEAAXAEBUColour@2@@Z 
?setShadowSize@ControllerEdgeHide@MyGUI@@QEAAXH@Z 
?setShiftText@EditText@MyGUI@@UEAAX_N@Z 
?setShiftText@ISubWidgetText@MyGUI@@UEAAX_N@Z 
?setSize@Canvas@MyGUI@@QEAAXHH@Z 
?setSize@Canvas@MyGUI@@UEAAXAEBU?$TSize@H@types@2@@Z 
?setSize@ControllerPosition@MyGUI@@QEAAXAEBU?$TSize@H@types@2@@Z 
?setSize@EditBox@MyGUI@@QEAAXHH@Z 
?setSize@EditBox@MyGUI@@UEAAXAEBU?$TSize@H@types@2@@Z 
?setSize@ICroppedRectangle@MyGUI@@UEAAXAEBU?$TSize@H@types@2@@Z 
?setSize@ItemBox@MyGUI@@QEAAXHH@Z 
?setSize@ItemBox@MyGUI@@UEAAXAEBU?$TSize@H@types@2@@Z 
?setSize@ListBox@MyGUI@@QEAAXHH@Z 
?setSize@ListBox@MyGUI@@UEAAXAEBU?$TSize@H@types@2@@Z 
?setSize@MultiListBox@MyGUI@@QEAAXHH@Z 
?setSize@MultiListBox@MyGUI@@UEAAXAEBU?$TSize@H@types@2@@Z 
?setSize@ProgressBar@MyGUI@@QEAAXHH@Z 
?setSize@ProgressBar@MyGUI@@UEAAXAEBU?$TSize@H@types@2@@Z 
?setSize@ResourceTrueTypeFont@MyGUI@@QEAAXM@Z 
?setSize@ScrollBar@MyGUI@@QEAAXHH@Z 
?setSize@ScrollBar@MyGUI@@UEAAXAEBU?$TSize@H@types@2@@Z 
?setSize@ScrollView@MyGUI@@QEAAXHH@Z 
?setSize@ScrollView@MyGUI@@UEAAXAEBU?$TSize@H@types@2@@Z 
?setSize@TabControl@MyGUI@@QEAAXHH@Z 
?setSize@TabControl@MyGUI@@UEAAXAEBU?$TSize@H@types@2@@Z 
?setSize@Widget@MyGUI@@QEAAXHH@Z 
?setSize@Widget@MyGUI@@UEAAXAEBU?$TSize@H@types@2@@Z 
?setSize@Window@MyGUI@@QEAAXHH@Z 
?setSize@Window@MyGUI@@UEAAXAEBU?$TSize@H@types@2@@Z 
?setSkinProperty@Widget@MyGUI@@AEAAXPEAVResourceSkin@2@@Z 
?setSliderCaption@MultiSlider@MyGUI@@QEAAX_KAEBVUString@2@@Z 
?setSmoothShow@ComboBox@MyGUI@@QEAAX_N@Z 
?setSmoothShow@TabControl@MyGUI@@QEAAX_N@Z 
?setSnap@Window@MyGUI@@QEAAX_N@Z 
?setSource@ResourceManualFont@MyGUI@@QEAAXAEBV?$basic_string@DU?$char_traits@D@std@@V?$allocator@D@2@@std@@@Z 
?setSource@ResourceTrueTypeFont@MyGUI@@QEAAXAEBV?$basic_string@DU?$char_traits@D@std@@V?$allocator@D@2@@std@@@Z 
?setStateData@EditText@MyGUI@@UEAAXPEAVIStateInfo@2@@Z 
?setStateData@ISubWidget@MyGUI@@UEAAXPEAVIStateInfo@2@@Z 
?setStateData@PolygonalSkin@MyGUI@@UEAAXPEAVIStateInfo@2@@Z 
?setStateData@RotatingSkin@MyGUI@@UEAAXPEAVIStateInfo@2@@Z 
?setStateData@SubSkin@MyGUI@@UEAAXPEAVIStateInfo@2@@Z 
?setStateData@TileRect@MyGUI@@UEAAXPEAVIStateInfo@2@@Z 
?setStateSelected@Button@MyGUI@@QEAAX_N@Z 
?setStroke@PolygonalSkin@MyGUI@@QEAAX_K@Z 
?setSubItemDataAt@MultiListBox@MyGUI@@QEAAX_K0VAny@2@@Z 
?setSubItemNameAt@MultiListBox@MyGUI@@QEAAX_K0AEBVUString@2@@Z 
?setSubstituteCode@ResourceTrueTypeFont@MyGUI@@QEAAXH@Z 
?setTabPrinting@EditBox@MyGUI@@QEAAX_N@Z 
?setTabWidth@ResourceTrueTypeFont@MyGUI@@QEAAXM@Z 
?setTagColour@TextIterator@MyGUI@@QEAA_NAEBUColour@2@@Z 
?setTagColour@TextIterator@MyGUI@@QEAA_NVUString@2@@Z 
?setText@EditBox@MyGUI@@AEAAXAEBVUString@2@_N@Z 
?setText@TextIterator@MyGUI@@QEAAXAEBVUString@2@_N@Z 
?setTextAlign@EditBox@MyGUI@@UEAAXUAlign@2@@Z 
?setTextAlign@EditText@MyGUI@@UEAAXUAlign@2@@Z 
?setTextAlign@ISubWidgetText@MyGUI@@UEAAXUAlign@2@@Z 
?setTextAlign@TextBox@MyGUI@@UEAAXUAlign@2@@Z 
?setTextColour@EditBox@MyGUI@@UEAAXAEBUColour@2@@Z 
?setTextColour@EditText@MyGUI@@UEAAXAEBUColour@2@@Z 
?setTextColour@ISubWidgetText@MyGUI@@UEAAXAEBUColour@2@@Z 
?setTextColour@TextBox@MyGUI@@UEAAXAEBUColour@2@@Z 
?setTextCursor@EditBox@MyGUI@@QEAAX_K@Z 
?setTextIntervalColour@EditBox@MyGUI@@QEAAX_K0AEBUColour@2@@Z 
?setTextSelectColour@EditBox@MyGUI@@AEAAXAEBUColour@2@_N@Z 
?setTextSelection@EditBox@MyGUI@@QEAAX_K0@Z 
?setTextSelection@EditText@MyGUI@@UEAAX_K0@Z 
?setTextSelection@ISubWidgetText@MyGUI@@UEAAX_K0@Z 
?setTextSelectionColour@EditBox@MyGUI@@QEAAXAEBUColour@2@@Z 
?setTextShadow@EditBox@MyGUI@@UEAAX_N@Z 
?setTextShadow@TextBox@MyGUI@@UEAAX_N@Z 
?setTextShadowColour@EditBox@MyGUI@@UEAAXAEBUColour@2@@Z 
?setTextShadowColour@TextBox@MyGUI@@UEAAXAEBUColour@2@@Z 
?setTexture@RenderItem@MyGUI@@QEAAXPEAVITexture@2@@Z 
?setTexture@ResourceManualFont@MyGUI@@QEAAXPEAVITexture@2@@Z 
?setTextureManaged@Canvas@MyGUI@@QEAAX_N@Z 
?setTime@ControllerEdgeHide@MyGUI@@QEAAXM@Z 
?setTime@ControllerPosition@MyGUI@@QEAAXM@Z 
?setTrackPosition@ProgressBar@MyGUI@@AEAAXPEAVWidget@2@HHHH@Z 
?setTrackSize@ScrollBar@MyGUI@@QEAAXH@Z 
?setUserData@UserData@MyGUI@@QEAAXVAny@2@@Z 
?setUserString@UserData@MyGUI@@QEAAXAEBV?$basic_string@DU?$char_traits@D@std@@V?$allocator@D@2@@std@@0@Z 
?setVScrollPosition@EditBox@MyGUI@@QEAAX_K@Z 
?setValueSelected@ListScrollBar@MyGUI@@QEAAXAEBV?$basic_string@DU?$char_traits@D@std@@V?$allocator@D@2@@std@@@Z 
?setValueSelectedIndex@ListScrollBar@MyGUI@@QEAAX_K@Z 
?setValues@ListScrollBar@MyGUI@@QEAAXAEBV?$vector@V?$basic_string@DU?$char_traits@D@std@@V?$allocator@D@2@@std@@V?$allocator@V?$basic_string@DU?$char_traits@D@std@@V?$allocator@D@2@@std@@@2@@std@@@Z 
?setVerticalAlignment@ItemBox@MyGUI@@QEAAX_N@Z 
?setVerticalAlignment@MenuControl@MyGUI@@QEAAX_N@Z 
?setVerticalAlignment@ScrollBar@MyGUI@@QEAAX_N@Z 
?setViewOffset@EditText@MyGUI@@UEAAXAEBU?$TPoint@H@types@2@@Z 
?setViewOffset@ISubWidgetText@MyGUI@@UEAAXAEBU?$TPoint@H@types@2@@Z 
?setViewOffset@ItemBox@MyGUI@@QEAAXAEBU?$TPoint@H@types@2@@Z 
?setViewOffset@ScrollView@MyGUI@@QEAAXAEBU?$TPoint@H@types@2@@Z 
?setViewOffset@SimpleText@MyGUI@@UEAAXAEBU?$TPoint@H@types@2@@Z 
?setVisible@EditText@MyGUI@@UEAAX_N@Z 
?setVisible@ISubWidget@MyGUI@@UEAAX_N@Z 
?setVisible@MenuControl@MyGUI@@UEAAX_N@Z 
?setVisible@PointerManager@MyGUI@@QEAAX_N@Z 
?setVisible@PolygonalSkin@MyGUI@@UEAAX_N@Z 
?setVisible@RotatingSkin@MyGUI@@UEAAX_N@Z 
?setVisible@SubSkin@MyGUI@@UEAAX_N@Z 
?setVisible@TileRect@MyGUI@@UEAAX_N@Z 
?setVisible@Widget@MyGUI@@UEAAX_N@Z 
?setVisible@Window@MyGUI@@UEAAX_N@Z 
?setVisibleCursor@EditText@MyGUI@@UEAAX_N@Z 
?setVisibleCursor@ISubWidgetText@MyGUI@@UEAAX_N@Z 
?setVisibleHScroll@EditBox@MyGUI@@QEAAX_N@Z 
?setVisibleHScroll@ScrollView@MyGUI@@QEAAX_N@Z 
?setVisibleSmooth@MenuControl@MyGUI@@QEAAX_N@Z 
?setVisibleSmooth@Window@MyGUI@@QEAAX_N@Z 
?setVisibleVScroll@EditBox@MyGUI@@QEAAX_N@Z 
?setVisibleVScroll@ScrollView@MyGUI@@QEAAX_N@Z 
?setWidgetClient@Widget@MyGUI@@IEAAXPEAV12@@Z 
?setWidgetStyle@Widget@MyGUI@@QEAAXUWidgetStyle@2@AEBV?$basic_string@DU?$char_traits@D@std@@V?$allocator@D@2@@std@@@Z 
?setWidth@PolygonalSkin@MyGUI@@QEAAXM@Z 
?setWordWrap@EditText@MyGUI@@UEAAX_N@Z 
?setWordWrap@ISubWidgetText@MyGUI@@UEAAX_N@Z 
?shouldLog@ILogFilter@MyGUI@@UEAA_NAEBV?$basic_string@DU?$char_traits@D@std@@V?$allocator@D@2@@std@@ULogLevel@2@PEBUtm@@0PEBDH@Z 
?shouldLog@LevelLogFilter@MyGUI@@UEAA_NAEBV?$basic_string@DU?$char_traits@D@std@@V?$allocator@D@2@@std@@ULogLevel@2@PEBUtm@@0PEBDH@Z 
?showList@ComboBox@MyGUI@@AEAAXXZ 
?showToolTip@ToolTipManager@MyGUI@@AEAAXPEAVWidget@2@_KAEBU?$TPoint@H@types@2@@Z 
?shutdown@BackwardCompatibility@MyGUI@@SAXXZ 
?shutdown@ClipboardManager@MyGUI@@QEAAXXZ 
?shutdown@ColourManager@MyGUI@@QEAAXXZ 
?shutdown@ControllerManager@MyGUI@@QEAAXXZ 
?shutdown@DynLibManager@MyGUI@@QEAAXXZ 
?shutdown@FactoryManager@MyGUI@@QEAAXXZ 
?shutdown@FontManager@MyGUI@@QEAAXXZ 
?shutdown@Gui@MyGUI@@QEAAXXZ 
?shutdown@InputManager@MyGUI@@QEAAXXZ 
?shutdown@LanguageManager@MyGUI@@QEAAXXZ 
?shutdown@LayerManager@MyGUI@@QEAAXXZ 
?shutdown@LayoutManager@MyGUI@@QEAAXXZ 
?shutdown@PluginManager@MyGUI@@QEAAXXZ 
?shutdown@PointerManager@MyGUI@@QEAAXXZ 
?shutdown@ResourceManager@MyGUI@@QEAAXXZ 
?shutdown@SkinManager@MyGUI@@QEAAXXZ 
?shutdown@SubWidgetManager@MyGUI@@QEAAXXZ 
?shutdown@ToolTipManager@MyGUI@@QEAAXXZ 
?shutdown@WidgetManager@MyGUI@@QEAAXXZ 
?shutdown@WindowsClipboardHandler@MyGUI@@QEAAXXZ 
?shutdownOverride@Button@MyGUI@@MEAAXXZ 
?shutdownOverride@Canvas@MyGUI@@MEAAXXZ 
?shutdownOverride@ComboBox@MyGUI@@MEAAXXZ 
?shutdownOverride@EditBox@MyGUI@@MEAAXXZ 
?shutdownOverride@ImageBox@MyGUI@@MEAAXXZ 
?shutdownOverride@ItemBox@MyGUI@@MEAAXXZ 
?shutdownOverride@ListBox@MyGUI@@MEAAXXZ 
?shutdownOverride@ListScrollBar@MyGUI@@MEAAXXZ 
?shutdownOverride@MenuControl@MyGUI@@MEAAXXZ 
?shutdownOverride@MenuItem@MyGUI@@MEAAXXZ 
?shutdownOverride@MultiListBox@MyGUI@@MEAAXXZ 
?shutdownOverride@MultiListItem@MyGUI@@MEAAXXZ 
?shutdownOverride@MultiSlider@MyGUI@@MEAAXXZ 
?shutdownOverride@ProgressBar@MyGUI@@MEAAXXZ 
?shutdownOverride@ScrollBar@MyGUI@@MEAAXXZ 
?shutdownOverride@ScrollView@MyGUI@@MEAAXXZ 
?shutdownOverride@Slider@MyGUI@@MEAAXXZ 
?shutdownOverride@TabControl@MyGUI@@MEAAXXZ 
?shutdownOverride@TabItem@MyGUI@@MEAAXXZ 
?shutdownOverride@Widget@MyGUI@@MEAAXXZ 
?shutdownOverride@Window@MyGUI@@MEAAXXZ 
?shutdownWidgetSkinBase@Widget@MyGUI@@AEAAXXZ 
?size@DataMemoryStream@MyGUI@@UEAA_KXZ 
?size@DataStream@MyGUI@@UEAA_KXZ 
?size@UString@MyGUI@@QEBA_KXZ 
?sortByColumn@MultiListBox@MyGUI@@QEAAX_K_N@Z 
?sortList@MultiListBox@MyGUI@@AEAAXXZ 
?storeKey@InputManager@MyGUI@@AEAAXUKeyCode@2@I@Z 
?substr@UString@MyGUI@@QEBA?AV12@_K0@Z 
?swap@Any@MyGUI@@QEAAAEAV12@AEAV12@@Z 
?swap@UString@MyGUI@@QEAAXAEAV12@@Z 
?swapColumnsAt@MultiListBox@MyGUI@@QEAAX_K0@Z 
?swapItems@TabControl@MyGUI@@QEAAX_K0@Z 
?swapItemsAt@ListBox@MyGUI@@QEAAX_K0@Z 
?swapItemsAt@MultiListBox@MyGUI@@QEAAX_K0@Z 
?swapItemsBackAt@BiIndexBase@MyGUI@@IEAAX_K0@Z 
?swapItemsFaceAt@BiIndexBase@MyGUI@@IEAAX_K0@Z 
?textureInvalidate@Canvas@MyGUI@@MEAAXPEAVITexture@2@@Z 
?textureInvalidate@ResourceTrueTypeFont@MyGUI@@UEAAXPEAVITexture@2@@Z 
?toColourARGB@texture_utility@MyGUI@@YAIAEBUColour@2@@Z 
?toTagsString@TextIterator@MyGUI@@SA?AVUString@2@AEBV32@@Z 
?type@?1??getClassTypeName@Button@MyGUI@@SAAEBV?$basic_string@DU?$char_traits@D@std@@V?$allocator@D@2@@std@@XZ@4V45@A 
?type@?1??getClassTypeName@Canvas@MyGUI@@SAAEBV?$basic_string@DU?$char_traits@D@std@@V?$allocator@D@2@@std@@XZ@4V45@A 
?type@?1??getClassTypeName@ComboBox@MyGUI@@SAAEBV?$basic_string@DU?$char_traits@D@std@@V?$allocator@D@2@@std@@XZ@4V45@A 
?type@?1??getClassTypeName@ControllerEdgeHide@MyGUI@@SAAEBV?$basic_string@DU?$char_traits@D@std@@V?$allocator@D@2@@std@@XZ@4V45@A 
?type@?1??getClassTypeName@ControllerFadeAlpha@MyGUI@@SAAEBV?$basic_string@DU?$char_traits@D@std@@V?$allocator@D@2@@std@@XZ@4V45@A 
?type@?1??getClassTypeName@ControllerItem@MyGUI@@SAAEBV?$basic_string@DU?$char_traits@D@std@@V?$allocator@D@2@@std@@XZ@4V45@A 
?type@?1??getClassTypeName@ControllerPosition@MyGUI@@SAAEBV?$basic_string@DU?$char_traits@D@std@@V?$allocator@D@2@@std@@XZ@4V45@A 
?type@?1??getClassTypeName@DDContainer@MyGUI@@SAAEBV?$basic_string@DU?$char_traits@D@std@@V?$allocator@D@2@@std@@XZ@4V45@A 
?type@?1??getClassTypeName@EditBox@MyGUI@@SAAEBV?$basic_string@DU?$char_traits@D@std@@V?$allocator@D@2@@std@@XZ@4V45@A 
?type@?1??getClassTypeName@EditText@MyGUI@@SAAEBV?$basic_string@DU?$char_traits@D@std@@V?$allocator@D@2@@std@@XZ@4V45@A 
?type@?1??getClassTypeName@EditTextStateInfo@MyGUI@@SAAEBV?$basic_string@DU?$char_traits@D@std@@V?$allocator@D@2@@std@@XZ@4V45@A 
?type@?1??getClassTypeName@IFont@MyGUI@@SAAEBV?$basic_string@DU?$char_traits@D@std@@V?$allocator@D@2@@std@@XZ@4V45@A 
?type@?1??getClassTypeName@ILayer@MyGUI@@SAAEBV?$basic_string@DU?$char_traits@D@std@@V?$allocator@D@2@@std@@XZ@4V45@A 
?type@?1??getClassTypeName@ILayerNode@MyGUI@@SAAEBV?$basic_string@DU?$char_traits@D@std@@V?$allocator@D@2@@std@@XZ@4V45@A 
?type@?1??getClassTypeName@IObject@MyGUI@@SAAEBV?$basic_string@DU?$char_traits@D@std@@V?$allocator@D@2@@std@@XZ@4V45@A 
?type@?1??getClassTypeName@IPointer@MyGUI@@SAAEBV?$basic_string@DU?$char_traits@D@std@@V?$allocator@D@2@@std@@XZ@4V45@A 
?type@?1??getClassTypeName@IResource@MyGUI@@SAAEBV?$basic_string@DU?$char_traits@D@std@@V?$allocator@D@2@@std@@XZ@4V45@A 
?type@?1??getClassTypeName@ISerializable@MyGUI@@SAAEBV?$basic_string@DU?$char_traits@D@std@@V?$allocator@D@2@@std@@XZ@4V45@A 
?type@?1??getClassTypeName@IStateInfo@MyGUI@@SAAEBV?$basic_string@DU?$char_traits@D@std@@V?$allocator@D@2@@std@@XZ@4V45@A 
?type@?1??getClassTypeName@ISubWidget@MyGUI@@SAAEBV?$basic_string@DU?$char_traits@D@std@@V?$allocator@D@2@@std@@XZ@4V45@A 
?type@?1??getClassTypeName@ISubWidgetRect@MyGUI@@SAAEBV?$basic_string@DU?$char_traits@D@std@@V?$allocator@D@2@@std@@XZ@4V45@A 
?type@?1??getClassTypeName@ISubWidgetText@MyGUI@@SAAEBV?$basic_string@DU?$char_traits@D@std@@V?$allocator@D@2@@std@@XZ@4V45@A 
?type@?1??getClassTypeName@ImageBox@MyGUI@@SAAEBV?$basic_string@DU?$char_traits@D@std@@V?$allocator@D@2@@std@@XZ@4V45@A 
?type@?1??getClassTypeName@ItemBox@MyGUI@@SAAEBV?$basic_string@DU?$char_traits@D@std@@V?$allocator@D@2@@std@@XZ@4V45@A 
?type@?1??getClassTypeName@LayerNode@MyGUI@@SAAEBV?$basic_string@DU?$char_traits@D@std@@V?$allocator@D@2@@std@@XZ@4V45@A 
?type@?1??getClassTypeName@ListBox@MyGUI@@SAAEBV?$basic_string@DU?$char_traits@D@std@@V?$allocator@D@2@@std@@XZ@4V45@A 
?type@?1??getClassTypeName@ListScrollBar@MyGUI@@SAAEBV?$basic_string@DU?$char_traits@D@std@@V?$allocator@D@2@@std@@XZ@4V45@A 
?type@?1??getClassTypeName@MainSkin@MyGUI@@SAAEBV?$basic_string@DU?$char_traits@D@std@@V?$allocator@D@2@@std@@XZ@4V45@A 
?type@?1??getClassTypeName@MenuBar@MyGUI@@SAAEBV?$basic_string@DU?$char_traits@D@std@@V?$allocator@D@2@@std@@XZ@4V45@A 
?type@?1??getClassTypeName@MenuControl@MyGUI@@SAAEBV?$basic_string@DU?$char_traits@D@std@@V?$allocator@D@2@@std@@XZ@4V45@A 
?type@?1??getClassTypeName@MenuItem@MyGUI@@SAAEBV?$basic_string@DU?$char_traits@D@std@@V?$allocator@D@2@@std@@XZ@4V45@A 
?type@?1??getClassTypeName@MultiListBox@MyGUI@@SAAEBV?$basic_string@DU?$char_traits@D@std@@V?$allocator@D@2@@std@@XZ@4V45@A 
?type@?1??getClassTypeName@MultiListItem@MyGUI@@SAAEBV?$basic_string@DU?$char_traits@D@std@@V?$allocator@D@2@@std@@XZ@4V45@A 
?type@?1??getClassTypeName@MultiSlider@MyGUI@@SAAEBV?$basic_string@DU?$char_traits@D@std@@V?$allocator@D@2@@std@@XZ@4V45@A 
?type@?1??getClassTypeName@OverlappedLayer@MyGUI@@SAAEBV?$basic_string@DU?$char_traits@D@std@@V?$allocator@D@2@@std@@XZ@4V45@A 
?type@?1??getClassTypeName@PolygonalSkin@MyGUI@@SAAEBV?$basic_string@DU?$char_traits@D@std@@V?$allocator@D@2@@std@@XZ@4V45@A 
?type@?1??getClassTypeName@PopupMenu@MyGUI@@SAAEBV?$basic_string@DU?$char_traits@D@std@@V?$allocator@D@2@@std@@XZ@4V45@A 
?type@?1??getClassTypeName@ProgressBar@MyGUI@@SAAEBV?$basic_string@DU?$char_traits@D@std@@V?$allocator@D@2@@std@@XZ@4V45@A 
?type@?1??getClassTypeName@ResourceImageSet@MyGUI@@SAAEBV?$basic_string@DU?$char_traits@D@std@@V?$allocator@D@2@@std@@XZ@4V45@A 
?type@?1??getClassTypeName@ResourceImageSetPointer@MyGUI@@SAAEBV?$basic_string@DU?$char_traits@D@std@@V?$allocator@D@2@@std@@XZ@4V45@A 
?type@?1??getClassTypeName@ResourceLayout@MyGUI@@SAAEBV?$basic_string@DU?$char_traits@D@std@@V?$allocator@D@2@@std@@XZ@4V45@A 
?type@?1??getClassTypeName@ResourceManualFont@MyGUI@@SAAEBV?$basic_string@DU?$char_traits@D@std@@V?$allocator@D@2@@std@@XZ@4V45@A 
?type@?1??getClassTypeName@ResourceManualPointer@MyGUI@@SAAEBV?$basic_string@DU?$char_traits@D@std@@V?$allocator@D@2@@std@@XZ@4V45@A 
?type@?1??getClassTypeName@ResourceSkin@MyGUI@@SAAEBV?$basic_string@DU?$char_traits@D@std@@V?$allocator@D@2@@std@@XZ@4V45@A 
?type@?1??getClassTypeName@ResourceTrueTypeFont@MyGUI@@SAAEBV?$basic_string@DU?$char_traits@D@std@@V?$allocator@D@2@@std@@XZ@4V45@A 
?type@?1??getClassTypeName@RotatingSkin@MyGUI@@SAAEBV?$basic_string@DU?$char_traits@D@std@@V?$allocator@D@2@@std@@XZ@4V45@A 
?type@?1??getClassTypeName@RotatingSkinStateInfo@MyGUI@@SAAEBV?$basic_string@DU?$char_traits@D@std@@V?$allocator@D@2@@std@@XZ@4V45@A 
?type@?1??getClassTypeName@ScrollBar@MyGUI@@SAAEBV?$basic_string@DU?$char_traits@D@std@@V?$allocator@D@2@@std@@XZ@4V45@A 
?type@?1??getClassTypeName@ScrollView@MyGUI@@SAAEBV?$basic_string@DU?$char_traits@D@std@@V?$allocator@D@2@@std@@XZ@4V45@A 
?type@?1??getClassTypeName@SharedLayer@MyGUI@@SAAEBV?$basic_string@DU?$char_traits@D@std@@V?$allocator@D@2@@std@@XZ@4V45@A 
?type@?1??getClassTypeName@SharedLayerNode@MyGUI@@SAAEBV?$basic_string@DU?$char_traits@D@std@@V?$allocator@D@2@@std@@XZ@4V45@A 
?type@?1??getClassTypeName@SimpleText@MyGUI@@SAAEBV?$basic_string@DU?$char_traits@D@std@@V?$allocator@D@2@@std@@XZ@4V45@A 
?type@?1??getClassTypeName@Slider@MyGUI@@SAAEBV?$basic_string@DU?$char_traits@D@std@@V?$allocator@D@2@@std@@XZ@4V45@A 
?type@?1??getClassTypeName@SubSkin@MyGUI@@SAAEBV?$basic_string@DU?$char_traits@D@std@@V?$allocator@D@2@@std@@XZ@4V45@A 
?type@?1??getClassTypeName@SubSkinStateInfo@MyGUI@@SAAEBV?$basic_string@DU?$char_traits@D@std@@V?$allocator@D@2@@std@@XZ@4V45@A 
?type@?1??getClassTypeName@TabControl@MyGUI@@SAAEBV?$basic_string@DU?$char_traits@D@std@@V?$allocator@D@2@@std@@XZ@4V45@A 
?type@?1??getClassTypeName@TabItem@MyGUI@@SAAEBV?$basic_string@DU?$char_traits@D@std@@V?$allocator@D@2@@std@@XZ@4V45@A 
?type@?1??getClassTypeName@TextBox@MyGUI@@SAAEBV?$basic_string@DU?$char_traits@D@std@@V?$allocator@D@2@@std@@XZ@4V45@A 
?type@?1??getClassTypeName@TileRect@MyGUI@@SAAEBV?$basic_string@DU?$char_traits@D@std@@V?$allocator@D@2@@std@@XZ@4V45@A 
?type@?1??getClassTypeName@TileRectStateInfo@MyGUI@@SAAEBV?$basic_string@DU?$char_traits@D@std@@V?$allocator@D@2@@std@@XZ@4V45@A 
?type@?1??getClassTypeName@Widget@MyGUI@@SAAEBV?$basic_string@DU?$char_traits@D@std@@V?$allocator@D@2@@std@@XZ@4V45@A 
?type@?1??getClassTypeName@Window@MyGUI@@SAAEBV?$basic_string@DU?$char_traits@D@std@@V?$allocator@D@2@@std@@XZ@4V45@A 
?uninstallPlugin@PluginManager@MyGUI@@QEAAXPEAVIPlugin@2@@Z 
?unlinkFromUnlinkers@WidgetManager@MyGUI@@QEAAXPEAVWidget@2@@Z 
?unlinkWidget@InputManager@MyGUI@@QEAAXPEAVWidget@2@@Z 
?unload@DynLib@MyGUI@@QEAAXXZ 
?unload@DynLibManager@MyGUI@@QEAAXPEAVDynLib@2@@Z 
?unloadAll@DynLibManager@MyGUI@@QEAAXXZ 
?unloadAllPlugins@PluginManager@MyGUI@@QEAAXXZ 
?unloadLayout@LayoutManager@MyGUI@@QEAAXAEAV?$vector@PEAVWidget@MyGUI@@V?$allocator@PEAVWidget@MyGUI@@@std@@@std@@@Z 
?unloadPlugin@PluginManager@MyGUI@@QEAAXAEBV?$basic_string@DU?$char_traits@D@std@@V?$allocator@D@2@@std@@@Z 
?unlock@Canvas@MyGUI@@QEAAXXZ 
?unregisterFactory@FactoryManager@MyGUI@@QEAAXAEBV?$basic_string@DU?$char_traits@D@std@@V?$allocator@D@2@@std@@0@Z 
?unregisterFactory@FactoryManager@MyGUI@@QEAAXAEBV?$basic_string@DU?$char_traits@D@std@@V?$allocator@D@2@@std@@@Z 
?unregisterLoadXmlDelegate@ResourceManager@MyGUI@@QEAAXAEBV?$basic_string@DU?$char_traits@D@std@@V?$allocator@D@2@@std@@@Z 
?unregisterUnlinker@WidgetManager@MyGUI@@QEAAXPEAVIUnlinkWidget@2@@Z 
?upChildItemNode@LayerNode@MyGUI@@UEAAXPEAVILayerNode@2@@Z 
?upChildItemNode@OverlappedLayer@MyGUI@@UEAAXPEAVILayerNode@2@@Z 
?upChildItemNode@SharedLayer@MyGUI@@UEAAXPEAVILayerNode@2@@Z 
?upLayerItem@LayerItem@MyGUI@@UEAAXXZ 
?upLayerItem@LayerManager@MyGUI@@QEAAXPEAVWidget@2@@Z 
?update@MenuControl@MyGUI@@AEAAXXZ 
?updateAlpha@Window@MyGUI@@IEAAXXZ 
?updateBackSelected@MultiListBox@MyGUI@@AEAAX_K@Z 
?updateBar@TabControl@MyGUI@@IEAAXXZ 
?updateBarNew@TabControl@MyGUI@@AEAAXXZ 
?updateBarOld@TabControl@MyGUI@@AEAAXXZ 
?updateButtonState@Button@MyGUI@@AEAAXXZ 
?updateCheck@MenuItem@MyGUI@@AEAAXXZ 
?updateColumns@MultiListBox@MyGUI@@AEAAXXZ 
?updateCompression@LayerNode@MyGUI@@IEAAXXZ 
?updateCursorPosition@EditBox@MyGUI@@AEAAXXZ 
?updateDropItems@DDContainer@MyGUI@@MEAAXXZ 
?updateDropItems@ItemBox@MyGUI@@MEAAXXZ 
?updateDropItemsState@DDContainer@MyGUI@@MEAAXAEBUDDWidgetState@2@@Z 
?updateDropItemsState@ItemBox@MyGUI@@MEAAXAEBUDDWidgetState@2@@Z 
?updateEditState@EditBox@MyGUI@@AEAAXXZ 
?updateFromResize@ItemBox@MyGUI@@IEAAXXZ 
?updateLine@ListBox@MyGUI@@IEAAX_N@Z 
?updateMetrics@ItemBox@MyGUI@@IEAAXXZ 
?updateOnlyEmpty@MultiListBox@MyGUI@@AEAAXXZ 
?updateRawData@EditText@MyGUI@@UEAAXXZ 
?updateScroll@ListBox@MyGUI@@IEAAXXZ 
?updateScrollPosition@ScrollViewBase@MyGUI@@IEAAXXZ 
?updateScrollSize@ScrollViewBase@MyGUI@@IEAAXXZ 
?updateSelectIndex@ImageBox@MyGUI@@AEAAX_K@Z 
?updateSelectText@EditBox@MyGUI@@AEAAXXZ 
?updateTexture@Canvas@MyGUI@@QEAAXXZ 
?updateTrack@ProgressBar@MyGUI@@AEAAXXZ 
?updateTrack@ScrollBar@MyGUI@@IEAAXXZ 
?updateView@EditBox@MyGUI@@IEAAXXZ 
?updateView@ScrollView@MyGUI@@IEAAXXZ 
?updateViewWithCursor@EditBox@MyGUI@@IEAAXXZ 
?updateWidthColumns@MultiListBox@MyGUI@@AEAAHAEA_K0@Z 
?validate@Canvas@MyGUI@@IEBAXAEAH0AEAUTextureUsage@2@AEAUPixelFormat@2@@Z 
?valueChanged@ListScrollBar@MyGUI@@IEAAXPEAVScrollBar@2@_K@Z 
?valueChanged@MultiSlider@MyGUI@@IEAAXPEAVSlider@2@H@Z 
?valueChanged@Slider@MyGUI@@IEAAXPEAVScrollBar@2@_K@Z 
?values@?1??getValueName@FlowDirection@MyGUI@@AEBAPEBDH@Z@4PAPEBDA 
?values@?1??getValueName@LogLevel@MyGUI@@AEBAPEBDH@Z@4PAPEBDA 
?values@?1??getValueName@MenuItemType@MyGUI@@AEBAPEBDH@Z@4PAPEBDA 
?values@?1??getValueName@ResizingPolicy@MyGUI@@AEBAPEBDH@Z@4PAPEBDA 
?values@?1??getValueName@WidgetStyle@MyGUI@@AEBAPEBDH@Z@4PAPEBDA 
?what@Exception@MyGUI@@UEBAPEBDXZ 
?widgetEndPressed@ScrollBar@MyGUI@@AEAAXXZ 
?widgetFirstPartPressed@ScrollBar@MyGUI@@AEAAXXZ 
?widgetSecondPartPressed@ScrollBar@MyGUI@@AEAAXXZ 
?widgetStartPressed@ScrollBar@MyGUI@@AEAAXXZ 
